
./rust_5simd/target/release/num_perf_demo:     file format elf64-x86-64


Disassembly of section .init:

0000000000003650 <_init>:
    3650:	48 83 ec 08          	sub    $0x8,%rsp
    3654:	48 8b 05 8d 58 23 00 	mov    0x23588d(%rip),%rax        # 238ee8 <__gmon_start__>
    365b:	48 85 c0             	test   %rax,%rax
    365e:	74 02                	je     3662 <_init+0x12>
    3660:	ff d0                	callq  *%rax
    3662:	48 83 c4 08          	add    $0x8,%rsp
    3666:	c3                   	retq   

Disassembly of section .plt:

0000000000003670 <.plt>:
    3670:	ff 35 c2 56 23 00    	pushq  0x2356c2(%rip)        # 238d38 <_GLOBAL_OFFSET_TABLE_+0x8>
    3676:	ff 25 c4 56 23 00    	jmpq   *0x2356c4(%rip)        # 238d40 <_GLOBAL_OFFSET_TABLE_+0x10>
    367c:	0f 1f 40 00          	nopl   0x0(%rax)

0000000000003680 <dl_iterate_phdr@plt>:
    3680:	ff 25 c2 56 23 00    	jmpq   *0x2356c2(%rip)        # 238d48 <dl_iterate_phdr@GLIBC_2.2.5>
    3686:	68 00 00 00 00       	pushq  $0x0
    368b:	e9 e0 ff ff ff       	jmpq   3670 <.plt>

0000000000003690 <getpid@plt>:
    3690:	ff 25 ba 56 23 00    	jmpq   *0x2356ba(%rip)        # 238d50 <getpid@GLIBC_2.2.5>
    3696:	68 01 00 00 00       	pushq  $0x1
    369b:	e9 d0 ff ff ff       	jmpq   3670 <.plt>

00000000000036a0 <snprintf@plt>:
    36a0:	ff 25 b2 56 23 00    	jmpq   *0x2356b2(%rip)        # 238d58 <snprintf@GLIBC_2.2.5>
    36a6:	68 02 00 00 00       	pushq  $0x2
    36ab:	e9 c0 ff ff ff       	jmpq   3670 <.plt>

00000000000036b0 <strrchr@plt>:
    36b0:	ff 25 aa 56 23 00    	jmpq   *0x2356aa(%rip)        # 238d60 <strrchr@GLIBC_2.2.5>
    36b6:	68 03 00 00 00       	pushq  $0x3
    36bb:	e9 b0 ff ff ff       	jmpq   3670 <.plt>

00000000000036c0 <lseek@plt>:
    36c0:	ff 25 a2 56 23 00    	jmpq   *0x2356a2(%rip)        # 238d68 <lseek@GLIBC_2.2.5>
    36c6:	68 04 00 00 00       	pushq  $0x4
    36cb:	e9 a0 ff ff ff       	jmpq   3670 <.plt>

00000000000036d0 <close@plt>:
    36d0:	ff 25 9a 56 23 00    	jmpq   *0x23569a(%rip)        # 238d70 <close@GLIBC_2.2.5>
    36d6:	68 05 00 00 00       	pushq  $0x5
    36db:	e9 90 ff ff ff       	jmpq   3670 <.plt>

00000000000036e0 <read@plt>:
    36e0:	ff 25 92 56 23 00    	jmpq   *0x235692(%rip)        # 238d78 <read@GLIBC_2.2.5>
    36e6:	68 06 00 00 00       	pushq  $0x6
    36eb:	e9 80 ff ff ff       	jmpq   3670 <.plt>

00000000000036f0 <strcmp@plt>:
    36f0:	ff 25 8a 56 23 00    	jmpq   *0x23568a(%rip)        # 238d80 <strcmp@GLIBC_2.2.5>
    36f6:	68 07 00 00 00       	pushq  $0x7
    36fb:	e9 70 ff ff ff       	jmpq   3670 <.plt>

0000000000003700 <__fxstat@plt>:
    3700:	ff 25 82 56 23 00    	jmpq   *0x235682(%rip)        # 238d88 <__fxstat@GLIBC_2.2.5>
    3706:	68 08 00 00 00       	pushq  $0x8
    370b:	e9 60 ff ff ff       	jmpq   3670 <.plt>

0000000000003710 <open@plt>:
    3710:	ff 25 7a 56 23 00    	jmpq   *0x23567a(%rip)        # 238d90 <open@GLIBC_2.2.5>
    3716:	68 09 00 00 00       	pushq  $0x9
    371b:	e9 50 ff ff ff       	jmpq   3670 <.plt>

0000000000003720 <bsearch@plt>:
    3720:	ff 25 72 56 23 00    	jmpq   *0x235672(%rip)        # 238d98 <bsearch@GLIBC_2.2.5>
    3726:	68 0a 00 00 00       	pushq  $0xa
    372b:	e9 40 ff ff ff       	jmpq   3670 <.plt>

0000000000003730 <_Unwind_Resume@plt>:
    3730:	ff 25 6a 56 23 00    	jmpq   *0x23566a(%rip)        # 238da0 <_Unwind_Resume@GCC_3.0>
    3736:	68 0b 00 00 00       	pushq  $0xb
    373b:	e9 30 ff ff ff       	jmpq   3670 <.plt>

Disassembly of section .plt.got:

0000000000003740 <free@plt>:
    3740:	ff 25 6a 56 23 00    	jmpq   *0x23566a(%rip)        # 238db0 <free@GLIBC_2.2.5>
    3746:	66 90                	xchg   %ax,%ax

0000000000003748 <abort@plt>:
    3748:	ff 25 6a 56 23 00    	jmpq   *0x23566a(%rip)        # 238db8 <abort@GLIBC_2.2.5>
    374e:	66 90                	xchg   %ax,%ax

0000000000003750 <__errno_location@plt>:
    3750:	ff 25 72 56 23 00    	jmpq   *0x235672(%rip)        # 238dc8 <__errno_location@GLIBC_2.2.5>
    3756:	66 90                	xchg   %ax,%ax

0000000000003758 <strlen@plt>:
    3758:	ff 25 da 56 23 00    	jmpq   *0x2356da(%rip)        # 238e38 <strlen@GLIBC_2.2.5>
    375e:	66 90                	xchg   %ax,%ax

0000000000003760 <memset@plt>:
    3760:	ff 25 0a 57 23 00    	jmpq   *0x23570a(%rip)        # 238e70 <memset@GLIBC_2.2.5>
    3766:	66 90                	xchg   %ax,%ax

0000000000003768 <memcpy@plt>:
    3768:	ff 25 82 57 23 00    	jmpq   *0x235782(%rip)        # 238ef0 <memcpy@GLIBC_2.14>
    376e:	66 90                	xchg   %ax,%ax

0000000000003770 <malloc@plt>:
    3770:	ff 25 aa 57 23 00    	jmpq   *0x2357aa(%rip)        # 238f20 <malloc@GLIBC_2.2.5>
    3776:	66 90                	xchg   %ax,%ax

0000000000003778 <realloc@plt>:
    3778:	ff 25 ca 57 23 00    	jmpq   *0x2357ca(%rip)        # 238f48 <realloc@GLIBC_2.2.5>
    377e:	66 90                	xchg   %ax,%ax

0000000000003780 <__cxa_finalize@plt>:
    3780:	ff 25 52 58 23 00    	jmpq   *0x235852(%rip)        # 238fd8 <__cxa_finalize@GLIBC_2.2.5>
    3786:	66 90                	xchg   %ax,%ax

Disassembly of section .text:

0000000000003790 <_start>:
    3790:	31 ed                	xor    %ebp,%ebp
    3792:	49 89 d1             	mov    %rdx,%r9
    3795:	5e                   	pop    %rsi
    3796:	48 89 e2             	mov    %rsp,%rdx
    3799:	48 83 e4 f0          	and    $0xfffffffffffffff0,%rsp
    379d:	50                   	push   %rax
    379e:	54                   	push   %rsp
    379f:	4c 8d 05 5a a4 02 00 	lea    0x2a45a(%rip),%r8        # 2dc00 <__libc_csu_fini>
    37a6:	48 8d 0d e3 a3 02 00 	lea    0x2a3e3(%rip),%rcx        # 2db90 <__libc_csu_init>
    37ad:	48 8d 3d dc 26 00 00 	lea    0x26dc(%rip),%rdi        # 5e90 <main>
    37b4:	ff 15 f6 56 23 00    	callq  *0x2356f6(%rip)        # 238eb0 <__libc_start_main@GLIBC_2.2.5>
    37ba:	f4                   	hlt    
    37bb:	0f 1f 44 00 00       	nopl   0x0(%rax,%rax,1)

00000000000037c0 <deregister_tm_clones>:
    37c0:	48 8d 3d 71 58 23 00 	lea    0x235871(%rip),%rdi        # 239038 <__TMC_END__>
    37c7:	55                   	push   %rbp
    37c8:	48 8d 05 69 58 23 00 	lea    0x235869(%rip),%rax        # 239038 <__TMC_END__>
    37cf:	48 39 f8             	cmp    %rdi,%rax
    37d2:	48 89 e5             	mov    %rsp,%rbp
    37d5:	74 19                	je     37f0 <deregister_tm_clones+0x30>
    37d7:	48 8b 05 fa 55 23 00 	mov    0x2355fa(%rip),%rax        # 238dd8 <_ITM_deregisterTMCloneTable>
    37de:	48 85 c0             	test   %rax,%rax
    37e1:	74 0d                	je     37f0 <deregister_tm_clones+0x30>
    37e3:	5d                   	pop    %rbp
    37e4:	ff e0                	jmpq   *%rax
    37e6:	66 2e 0f 1f 84 00 00 	nopw   %cs:0x0(%rax,%rax,1)
    37ed:	00 00 00 
    37f0:	5d                   	pop    %rbp
    37f1:	c3                   	retq   
    37f2:	0f 1f 40 00          	nopl   0x0(%rax)
    37f6:	66 2e 0f 1f 84 00 00 	nopw   %cs:0x0(%rax,%rax,1)
    37fd:	00 00 00 

0000000000003800 <register_tm_clones>:
    3800:	48 8d 3d 31 58 23 00 	lea    0x235831(%rip),%rdi        # 239038 <__TMC_END__>
    3807:	48 8d 35 2a 58 23 00 	lea    0x23582a(%rip),%rsi        # 239038 <__TMC_END__>
    380e:	55                   	push   %rbp
    380f:	48 29 fe             	sub    %rdi,%rsi
    3812:	48 89 e5             	mov    %rsp,%rbp
    3815:	48 c1 fe 03          	sar    $0x3,%rsi
    3819:	48 89 f0             	mov    %rsi,%rax
    381c:	48 c1 e8 3f          	shr    $0x3f,%rax
    3820:	48 01 c6             	add    %rax,%rsi
    3823:	48 d1 fe             	sar    %rsi
    3826:	74 18                	je     3840 <register_tm_clones+0x40>
    3828:	48 8b 05 89 57 23 00 	mov    0x235789(%rip),%rax        # 238fb8 <_ITM_registerTMCloneTable>
    382f:	48 85 c0             	test   %rax,%rax
    3832:	74 0c                	je     3840 <register_tm_clones+0x40>
    3834:	5d                   	pop    %rbp
    3835:	ff e0                	jmpq   *%rax
    3837:	66 0f 1f 84 00 00 00 	nopw   0x0(%rax,%rax,1)
    383e:	00 00 
    3840:	5d                   	pop    %rbp
    3841:	c3                   	retq   
    3842:	0f 1f 40 00          	nopl   0x0(%rax)
    3846:	66 2e 0f 1f 84 00 00 	nopw   %cs:0x0(%rax,%rax,1)
    384d:	00 00 00 

0000000000003850 <__do_global_dtors_aux>:
    3850:	80 3d e1 57 23 00 00 	cmpb   $0x0,0x2357e1(%rip)        # 239038 <__TMC_END__>
    3857:	75 2f                	jne    3888 <__do_global_dtors_aux+0x38>
    3859:	48 83 3d 77 57 23 00 	cmpq   $0x0,0x235777(%rip)        # 238fd8 <__cxa_finalize@GLIBC_2.2.5>
    3860:	00 
    3861:	55                   	push   %rbp
    3862:	48 89 e5             	mov    %rsp,%rbp
    3865:	74 0c                	je     3873 <__do_global_dtors_aux+0x23>
    3867:	48 8b 3d 92 57 23 00 	mov    0x235792(%rip),%rdi        # 239000 <__dso_handle>
    386e:	e8 0d ff ff ff       	callq  3780 <__cxa_finalize@plt>
    3873:	e8 48 ff ff ff       	callq  37c0 <deregister_tm_clones>
    3878:	c6 05 b9 57 23 00 01 	movb   $0x1,0x2357b9(%rip)        # 239038 <__TMC_END__>
    387f:	5d                   	pop    %rbp
    3880:	c3                   	retq   
    3881:	0f 1f 80 00 00 00 00 	nopl   0x0(%rax)
    3888:	f3 c3                	repz retq 
    388a:	66 0f 1f 44 00 00    	nopw   0x0(%rax,%rax,1)

0000000000003890 <frame_dummy>:
    3890:	55                   	push   %rbp
    3891:	48 89 e5             	mov    %rsp,%rbp
    3894:	5d                   	pop    %rbp
    3895:	e9 66 ff ff ff       	jmpq   3800 <register_tm_clones>
    389a:	66 0f 1f 44 00 00    	nopw   0x0(%rax,%rax,1)

00000000000038a0 <_ZN3std2rt10lang_start28_$u7b$$u7b$closure$u7d$$u7d$17h27a14ba0c63aa888E>:
    38a0:	50                   	push   %rax
    38a1:	ff 17                	callq  *(%rdi)
    38a3:	31 c0                	xor    %eax,%eax
    38a5:	59                   	pop    %rcx
    38a6:	c3                   	retq   
    38a7:	66 0f 1f 84 00 00 00 	nopw   0x0(%rax,%rax,1)
    38ae:	00 00 

00000000000038b0 <_ZN4core3ops8function6FnOnce40call_once$u7b$$u7b$vtable.shim$u7d$$u7d$17ha8aa13352b02c426E>:
    38b0:	50                   	push   %rax
    38b1:	ff 17                	callq  *(%rdi)
    38b3:	31 c0                	xor    %eax,%eax
    38b5:	59                   	pop    %rcx
    38b6:	c3                   	retq   
    38b7:	66 0f 1f 84 00 00 00 	nopw   0x0(%rax,%rax,1)
    38be:	00 00 

00000000000038c0 <_ZN4core3ptr13drop_in_place17h07ac21deedb71d49E>:
    38c0:	c3                   	retq   
    38c1:	66 2e 0f 1f 84 00 00 	nopw   %cs:0x0(%rax,%rax,1)
    38c8:	00 00 00 
    38cb:	0f 1f 44 00 00       	nopl   0x0(%rax,%rax,1)

00000000000038d0 <_ZN4core3ptr13drop_in_place17h7e5e7d91ff58eb22E>:
    38d0:	48 83 7f 08 00       	cmpq   $0x0,0x8(%rdi)
    38d5:	74 09                	je     38e0 <_ZN4core3ptr13drop_in_place17h7e5e7d91ff58eb22E+0x10>
    38d7:	48 8b 3f             	mov    (%rdi),%rdi
    38da:	ff 25 d0 54 23 00    	jmpq   *0x2354d0(%rip)        # 238db0 <free@GLIBC_2.2.5>
    38e0:	c3                   	retq   
    38e1:	66 2e 0f 1f 84 00 00 	nopw   %cs:0x0(%rax,%rax,1)
    38e8:	00 00 00 
    38eb:	0f 1f 44 00 00       	nopl   0x0(%rax,%rax,1)

00000000000038f0 <_ZN4core3ptr13drop_in_place17hd8f3c2072f099e1bE>:
    38f0:	41 56                	push   %r14
    38f2:	53                   	push   %rbx
    38f3:	50                   	push   %rax
    38f4:	48 89 fb             	mov    %rdi,%rbx
    38f7:	48 8b 57 10          	mov    0x10(%rdi),%rdx
    38fb:	48 8b 47 18          	mov    0x18(%rdi),%rax
    38ff:	48 39 c2             	cmp    %rax,%rdx
    3902:	74 38                	je     393c <_ZN4core3ptr13drop_in_place17hd8f3c2072f099e1bE+0x4c>
    3904:	4c 8b 35 a5 54 23 00 	mov    0x2354a5(%rip),%r14        # 238db0 <free@GLIBC_2.2.5>
    390b:	eb 0b                	jmp    3918 <_ZN4core3ptr13drop_in_place17hd8f3c2072f099e1bE+0x28>
    390d:	0f 1f 00             	nopl   (%rax)
    3910:	48 89 ca             	mov    %rcx,%rdx
    3913:	48 39 c1             	cmp    %rax,%rcx
    3916:	74 24                	je     393c <_ZN4core3ptr13drop_in_place17hd8f3c2072f099e1bE+0x4c>
    3918:	48 8d 4a 18          	lea    0x18(%rdx),%rcx
    391c:	48 89 4b 10          	mov    %rcx,0x10(%rbx)
    3920:	48 8b 3a             	mov    (%rdx),%rdi
    3923:	48 85 ff             	test   %rdi,%rdi
    3926:	74 14                	je     393c <_ZN4core3ptr13drop_in_place17hd8f3c2072f099e1bE+0x4c>
    3928:	48 83 7a 08 00       	cmpq   $0x0,0x8(%rdx)
    392d:	74 e1                	je     3910 <_ZN4core3ptr13drop_in_place17hd8f3c2072f099e1bE+0x20>
    392f:	41 ff d6             	callq  *%r14
    3932:	48 8b 4b 10          	mov    0x10(%rbx),%rcx
    3936:	48 8b 43 18          	mov    0x18(%rbx),%rax
    393a:	eb d4                	jmp    3910 <_ZN4core3ptr13drop_in_place17hd8f3c2072f099e1bE+0x20>
    393c:	48 83 7b 08 00       	cmpq   $0x0,0x8(%rbx)
    3941:	74 10                	je     3953 <_ZN4core3ptr13drop_in_place17hd8f3c2072f099e1bE+0x63>
    3943:	48 8b 3b             	mov    (%rbx),%rdi
    3946:	48 83 c4 08          	add    $0x8,%rsp
    394a:	5b                   	pop    %rbx
    394b:	41 5e                	pop    %r14
    394d:	ff 25 5d 54 23 00    	jmpq   *0x23545d(%rip)        # 238db0 <free@GLIBC_2.2.5>
    3953:	48 83 c4 08          	add    $0x8,%rsp
    3957:	5b                   	pop    %rbx
    3958:	41 5e                	pop    %r14
    395a:	c3                   	retq   
    395b:	0f 1f 44 00 00       	nopl   0x0(%rax,%rax,1)

0000000000003960 <_ZN4core3ptr13drop_in_place17hebcdfb075ba20e6cE>:
    3960:	41 57                	push   %r15
    3962:	41 56                	push   %r14
    3964:	41 55                	push   %r13
    3966:	41 54                	push   %r12
    3968:	53                   	push   %rbx
    3969:	49 89 fe             	mov    %rdi,%r14
    396c:	48 8b 47 10          	mov    0x10(%rdi),%rax
    3970:	48 85 c0             	test   %rax,%rax
    3973:	74 4c                	je     39c1 <_ZN4core3ptr13drop_in_place17hebcdfb075ba20e6cE+0x61>
    3975:	4d 8b 26             	mov    (%r14),%r12
    3978:	48 c1 e0 03          	shl    $0x3,%rax
    397c:	4c 8d 3c 40          	lea    (%rax,%rax,2),%r15
    3980:	31 db                	xor    %ebx,%ebx
    3982:	4c 8b 2d 27 54 23 00 	mov    0x235427(%rip),%r13        # 238db0 <free@GLIBC_2.2.5>
    3989:	49 83 7c 1c 08 00    	cmpq   $0x0,0x8(%r12,%rbx,1)
    398f:	75 20                	jne    39b1 <_ZN4core3ptr13drop_in_place17hebcdfb075ba20e6cE+0x51>
    3991:	66 2e 0f 1f 84 00 00 	nopw   %cs:0x0(%rax,%rax,1)
    3998:	00 00 00 
    399b:	0f 1f 44 00 00       	nopl   0x0(%rax,%rax,1)
    39a0:	48 83 c3 18          	add    $0x18,%rbx
    39a4:	49 39 df             	cmp    %rbx,%r15
    39a7:	74 18                	je     39c1 <_ZN4core3ptr13drop_in_place17hebcdfb075ba20e6cE+0x61>
    39a9:	49 83 7c 1c 08 00    	cmpq   $0x0,0x8(%r12,%rbx,1)
    39af:	74 ef                	je     39a0 <_ZN4core3ptr13drop_in_place17hebcdfb075ba20e6cE+0x40>
    39b1:	49 8b 3c 1c          	mov    (%r12,%rbx,1),%rdi
    39b5:	41 ff d5             	callq  *%r13
    39b8:	48 83 c3 18          	add    $0x18,%rbx
    39bc:	49 39 df             	cmp    %rbx,%r15
    39bf:	75 e8                	jne    39a9 <_ZN4core3ptr13drop_in_place17hebcdfb075ba20e6cE+0x49>
    39c1:	49 83 7e 08 00       	cmpq   $0x0,0x8(%r14)
    39c6:	74 12                	je     39da <_ZN4core3ptr13drop_in_place17hebcdfb075ba20e6cE+0x7a>
    39c8:	49 8b 3e             	mov    (%r14),%rdi
    39cb:	5b                   	pop    %rbx
    39cc:	41 5c                	pop    %r12
    39ce:	41 5d                	pop    %r13
    39d0:	41 5e                	pop    %r14
    39d2:	41 5f                	pop    %r15
    39d4:	ff 25 d6 53 23 00    	jmpq   *0x2353d6(%rip)        # 238db0 <free@GLIBC_2.2.5>
    39da:	5b                   	pop    %rbx
    39db:	41 5c                	pop    %r12
    39dd:	41 5d                	pop    %r13
    39df:	41 5e                	pop    %r14
    39e1:	41 5f                	pop    %r15
    39e3:	c3                   	retq   
    39e4:	66 2e 0f 1f 84 00 00 	nopw   %cs:0x0(%rax,%rax,1)
    39eb:	00 00 00 
    39ee:	66 90                	xchg   %ax,%ax

00000000000039f0 <_ZN5alloc7raw_vec19RawVec$LT$T$C$A$GT$11allocate_in28_$u7b$$u7b$closure$u7d$$u7d$17h25c729f8bfb3329bE>:
    39f0:	50                   	push   %rax
    39f1:	e8 fa 2d 00 00       	callq  67f0 <_ZN5alloc7raw_vec17capacity_overflow17h9be7d3ce681ac1a6E>
    39f6:	0f 0b                	ud2    
    39f8:	0f 1f 84 00 00 00 00 	nopl   0x0(%rax,%rax,1)
    39ff:	00 

0000000000003a00 <_ZN13num_perf_demo4main17h1c767c90db3777c8E>:
use ::std::env::args;
use ::std::process::exit;
use ::num_perf_demo::mul_test;


fn main() {
    3a00:	55                   	push   %rbp
    3a01:	48 89 e5             	mov    %rsp,%rbp
    3a04:	41 57                	push   %r15
    3a06:	41 56                	push   %r14
    3a08:	41 55                	push   %r13
    3a0a:	41 54                	push   %r12
    3a0c:	53                   	push   %rbx
    3a0d:	48 83 e4 e0          	and    $0xffffffffffffffe0,%rsp
    3a11:	48 81 ec e0 08 00 00 	sub    $0x8e0,%rsp
    3a18:	48 8d 1d 29 56 23 00 	lea    0x235629(%rip),%rbx        # 239048 <_ZN3std3sys4unix4args3imp4LOCK17h1d8f441b10ddb3ddE>
    3a1f:	48 89 df             	mov    %rbx,%rdi
    3a22:	ff 15 b8 55 23 00    	callq  *0x2355b8(%rip)        # 238fe0 <pthread_mutex_lock@GLIBC_2.2.5>
    3a28:	48 89 5c 24 60       	mov    %rbx,0x60(%rsp)
    3a2d:	48 8b 1d 3c 56 23 00 	mov    0x23563c(%rip),%rbx        # 239070 <_ZN3std3sys4unix4args3imp4ARGC17h4e4d06cf3ef5a743E>
    3a34:	48 c7 84 24 80 00 00 	movq   $0x8,0x80(%rsp)
    3a3b:	00 08 00 00 00 
    3a40:	c5 f9 ef c0          	vpxor  %xmm0,%xmm0,%xmm0
    3a44:	c5 fa 7f 84 24 88 00 	vmovdqu %xmm0,0x88(%rsp)
    3a4b:	00 00 
    3a4d:	48 85 db             	test   %rbx,%rbx
    3a50:	7e 59                	jle    3aab <_ZN13num_perf_demo4main17h1c767c90db3777c8E+0xab>
    3a52:	b9 18 00 00 00       	mov    $0x18,%ecx
    3a57:	45 31 f6             	xor    %r14d,%r14d
    3a5a:	48 89 d8             	mov    %rbx,%rax
    3a5d:	48 f7 e1             	mul    %rcx
    3a60:	49 89 c4             	mov    %rax,%r12
    3a63:	0f 91 c0             	setno  %al
    3a66:	0f 80 5e 21 00 00    	jo     5bca <_ZN13num_perf_demo4main17h1c767c90db3777c8E+0x21ca>
    3a6c:	41 88 c6             	mov    %al,%r14b
    3a6f:	49 c1 e6 03          	shl    $0x3,%r14
    3a73:	4d 39 e6             	cmp    %r12,%r14
    3a76:	76 48                	jbe    3ac0 <_ZN13num_perf_demo4main17h1c767c90db3777c8E+0xc0>
    3a78:	48 c7 04 24 00 00 00 	movq   $0x0,(%rsp)
    3a7f:	00 
    3a80:	48 89 e7             	mov    %rsp,%rdi
    3a83:	be 08 00 00 00       	mov    $0x8,%esi
    3a88:	4c 89 e2             	mov    %r12,%rdx
    3a8b:	ff 15 1f 55 23 00    	callq  *0x23551f(%rip)        # 238fb0 <posix_memalign@GLIBC_2.2.5>
    3a91:	85 c0                	test   %eax,%eax
    3a93:	75 09                	jne    3a9e <_ZN13num_perf_demo4main17h1c767c90db3777c8E+0x9e>
    3a95:	4c 8b 2c 24          	mov    (%rsp),%r13
    3a99:	4d 85 ed             	test   %r13,%r13
    3a9c:	75 33                	jne    3ad1 <_ZN13num_perf_demo4main17h1c767c90db3777c8E+0xd1>
    3a9e:	4c 89 e7             	mov    %r12,%rdi
    3aa1:	4c 89 f6             	mov    %r14,%rsi
    3aa4:	e8 37 2d 00 00       	callq  67e0 <_ZN5alloc5alloc18handle_alloc_error17hf7bb8682f6c8b1d7E>
    3aa9:	0f 0b                	ud2    
    3aab:	31 c0                	xor    %eax,%eax
    3aad:	48 89 44 24 30       	mov    %rax,0x30(%rsp)
    3ab2:	41 be 08 00 00 00    	mov    $0x8,%r14d
    3ab8:	41 bd 08 00 00 00    	mov    $0x8,%r13d
    3abe:	eb 29                	jmp    3ae9 <_ZN13num_perf_demo4main17h1c767c90db3777c8E+0xe9>
    3ac0:	4c 89 e7             	mov    %r12,%rdi
    3ac3:	ff 15 57 54 23 00    	callq  *0x235457(%rip)        # 238f20 <malloc@GLIBC_2.2.5>
    3ac9:	49 89 c5             	mov    %rax,%r13
    3acc:	4d 85 ed             	test   %r13,%r13
    3acf:	74 cd                	je     3a9e <_ZN13num_perf_demo4main17h1c767c90db3777c8E+0x9e>
    3ad1:	4c 89 ac 24 80 00 00 	mov    %r13,0x80(%rsp)
    3ad8:	00 
    3ad9:	48 89 9c 24 88 00 00 	mov    %rbx,0x88(%rsp)
    3ae0:	00 
    3ae1:	48 89 5c 24 30       	mov    %rbx,0x30(%rsp)
    3ae6:	4d 89 ee             	mov    %r13,%r14
    3ae9:	48 8d 84 24 90 00 00 	lea    0x90(%rsp),%rax
    3af0:	00 
    3af1:	4c 89 2c 24          	mov    %r13,(%rsp)
    3af5:	48 89 44 24 08       	mov    %rax,0x8(%rsp)
    3afa:	48 c7 44 24 10 00 00 	movq   $0x0,0x10(%rsp)
    3b01:	00 00 
    3b03:	48 85 db             	test   %rbx,%rbx
    3b06:	0f 8e 9c 00 00 00    	jle    3ba8 <_ZN13num_perf_demo4main17h1c767c90db3777c8E+0x1a8>
    3b0c:	4c 89 74 24 58       	mov    %r14,0x58(%rsp)
    3b11:	45 31 ff             	xor    %r15d,%r15d
    3b14:	48 89 5c 24 40       	mov    %rbx,0x40(%rsp)
    3b19:	eb 31                	jmp    3b4c <_ZN13num_perf_demo4main17h1c767c90db3777c8E+0x14c>
    3b1b:	0f 1f 44 00 00       	nopl   0x0(%rax,%rax,1)
    3b20:	49 ff c7             	inc    %r15
    3b23:	4c 89 f7             	mov    %r14,%rdi
    3b26:	4c 89 e6             	mov    %r12,%rsi
    3b29:	48 89 da             	mov    %rbx,%rdx
    3b2c:	ff 15 be 53 23 00    	callq  *0x2353be(%rip)        # 238ef0 <memcpy@GLIBC_2.14>
    3b32:	4d 89 75 00          	mov    %r14,0x0(%r13)
    3b36:	49 89 5d 08          	mov    %rbx,0x8(%r13)
    3b3a:	49 89 5d 10          	mov    %rbx,0x10(%r13)
    3b3e:	49 83 c5 18          	add    $0x18,%r13
    3b42:	48 8b 5c 24 40       	mov    0x40(%rsp),%rbx
    3b47:	4c 39 fb             	cmp    %r15,%rbx
    3b4a:	74 4c                	je     3b98 <_ZN13num_perf_demo4main17h1c767c90db3777c8E+0x198>
    3b4c:	48 8b 05 25 55 23 00 	mov    0x235525(%rip),%rax        # 239078 <_ZN3std3sys4unix4args3imp4ARGV17he0db131b08904595E>
    3b53:	4e 8b 24 f8          	mov    (%rax,%r15,8),%r12
    3b57:	4c 89 e7             	mov    %r12,%rdi
    3b5a:	ff 15 d8 52 23 00    	callq  *0x2352d8(%rip)        # 238e38 <strlen@GLIBC_2.2.5>
    3b60:	48 89 c3             	mov    %rax,%rbx
    3b63:	41 be 01 00 00 00    	mov    $0x1,%r14d
    3b69:	48 85 c0             	test   %rax,%rax
    3b6c:	74 b2                	je     3b20 <_ZN13num_perf_demo4main17h1c767c90db3777c8E+0x120>
    3b6e:	48 83 fb ff          	cmp    $0xffffffffffffffff,%rbx
    3b72:	0f 84 31 1f 00 00    	je     5aa9 <_ZN13num_perf_demo4main17h1c767c90db3777c8E+0x20a9>
    3b78:	48 89 df             	mov    %rbx,%rdi
    3b7b:	ff 15 9f 53 23 00    	callq  *0x23539f(%rip)        # 238f20 <malloc@GLIBC_2.2.5>
    3b81:	49 89 c6             	mov    %rax,%r14
    3b84:	48 85 c0             	test   %rax,%rax
    3b87:	75 97                	jne    3b20 <_ZN13num_perf_demo4main17h1c767c90db3777c8E+0x120>
    3b89:	be 01 00 00 00       	mov    $0x1,%esi
    3b8e:	48 89 df             	mov    %rbx,%rdi
    3b91:	e8 4a 2c 00 00       	callq  67e0 <_ZN5alloc5alloc18handle_alloc_error17hf7bb8682f6c8b1d7E>
    3b96:	0f 0b                	ud2    
    3b98:	4c 89 2c 24          	mov    %r13,(%rsp)
    3b9c:	48 89 5c 24 10       	mov    %rbx,0x10(%rsp)
    3ba1:	4c 8b 74 24 58       	mov    0x58(%rsp),%r14
    3ba6:	eb 02                	jmp    3baa <_ZN13num_perf_demo4main17h1c767c90db3777c8E+0x1aa>
    3ba8:	31 db                	xor    %ebx,%ebx
    3baa:	48 8d 3d 97 54 23 00 	lea    0x235497(%rip),%rdi        # 239048 <_ZN3std3sys4unix4args3imp4LOCK17h1d8f441b10ddb3ddE>
    3bb1:	ff 15 59 53 23 00    	callq  *0x235359(%rip)        # 238f10 <pthread_mutex_unlock@GLIBC_2.2.5>
    3bb7:	48 8d 04 5b          	lea    (%rbx,%rbx,2),%rax
    3bbb:	4d 8d 24 c6          	lea    (%r14,%rax,8),%r12
    3bbf:	4c 89 b4 24 80 00 00 	mov    %r14,0x80(%rsp)
    3bc6:	00 
    3bc7:	48 8b 44 24 30       	mov    0x30(%rsp),%rax
    3bcc:	48 89 84 24 88 00 00 	mov    %rax,0x88(%rsp)
    3bd3:	00 
    3bd4:	4c 89 b4 24 90 00 00 	mov    %r14,0x90(%rsp)
    3bdb:	00 
    3bdc:	4c 89 a4 24 98 00 00 	mov    %r12,0x98(%rsp)
    3be3:	00 
    3be4:	4d 89 f5             	mov    %r14,%r13
    3be7:	48 85 db             	test   %rbx,%rbx
    3bea:	0f 84 a1 00 00 00    	je     3c91 <_ZN13num_perf_demo4main17h1c767c90db3777c8E+0x291>
    3bf0:	4d 8d 6e 18          	lea    0x18(%r14),%r13
    3bf4:	4c 89 ac 24 90 00 00 	mov    %r13,0x90(%rsp)
    3bfb:	00 
    3bfc:	4d 8b 3e             	mov    (%r14),%r15
    3bff:	4d 85 ff             	test   %r15,%r15
    3c02:	0f 84 89 00 00 00    	je     3c91 <_ZN13num_perf_demo4main17h1c767c90db3777c8E+0x291>
    3c08:	49 8b 5e 08          	mov    0x8(%r14),%rbx
    3c0c:	4d 8b 76 10          	mov    0x10(%r14),%r14
    3c10:	48 89 e7             	mov    %rsp,%rdi
    3c13:	4c 89 fe             	mov    %r15,%rsi
    3c16:	4c 89 f2             	mov    %r14,%rdx
    3c19:	e8 62 8e 00 00       	callq  ca80 <_ZN4core3str9from_utf817ha5f1d279f7594d61E>
    3c1e:	48 83 3c 24 01       	cmpq   $0x1,(%rsp)
    3c23:	0f 84 b2 1f 00 00    	je     5bdb <_ZN13num_perf_demo4main17h1c767c90db3777c8E+0x21db>
    3c29:	4c 89 3c 24          	mov    %r15,(%rsp)
    3c2d:	48 89 5c 24 08       	mov    %rbx,0x8(%rsp)
    3c32:	4c 89 74 24 10       	mov    %r14,0x10(%rsp)
    3c37:	4d 29 ec             	sub    %r13,%r12
    3c3a:	49 c1 fc 03          	sar    $0x3,%r12
    3c3e:	48 b8 ab aa aa aa aa 	movabs $0xaaaaaaaaaaaaaaab,%rax
    3c45:	aa aa aa 
    3c48:	4c 0f af e0          	imul   %rax,%r12
    3c4c:	49 ff c4             	inc    %r12
    3c4f:	49 c7 c5 ff ff ff ff 	mov    $0xffffffffffffffff,%r13
    3c56:	4d 0f 45 ec          	cmovne %r12,%r13
    3c5a:	b9 18 00 00 00       	mov    $0x18,%ecx
    3c5f:	4c 89 e8             	mov    %r13,%rax
    3c62:	48 f7 e1             	mul    %rcx
    3c65:	0f 80 a5 1f 00 00    	jo     5c10 <_ZN13num_perf_demo4main17h1c767c90db3777c8E+0x2210>
    3c6b:	48 89 c3             	mov    %rax,%rbx
    3c6e:	48 85 c0             	test   %rax,%rax
    3c71:	0f 84 c7 00 00 00    	je     3d3e <_ZN13num_perf_demo4main17h1c767c90db3777c8E+0x33e>
    3c77:	48 89 df             	mov    %rbx,%rdi
    3c7a:	ff 15 a0 52 23 00    	callq  *0x2352a0(%rip)        # 238f20 <malloc@GLIBC_2.2.5>
    3c80:	48 85 c0             	test   %rax,%rax
    3c83:	0f 84 32 1f 00 00    	je     5bbb <_ZN13num_perf_demo4main17h1c767c90db3777c8E+0x21bb>
    3c89:	48 89 c2             	mov    %rax,%rdx
    3c8c:	e9 b2 00 00 00       	jmpq   3d43 <_ZN13num_perf_demo4main17h1c767c90db3777c8E+0x343>
    3c91:	4d 89 f7             	mov    %r14,%r15
    3c94:	48 c7 84 24 50 01 00 	movq   $0x8,0x150(%rsp)
    3c9b:	00 08 00 00 00 
    3ca0:	c5 f9 ef c0          	vpxor  %xmm0,%xmm0,%xmm0
    3ca4:	c5 fa 7f 84 24 58 01 	vmovdqu %xmm0,0x158(%rsp)
    3cab:	00 00 
    3cad:	4d 39 e5             	cmp    %r12,%r13
    3cb0:	74 37                	je     3ce9 <_ZN13num_perf_demo4main17h1c767c90db3777c8E+0x2e9>
    3cb2:	4c 8b 35 f7 50 23 00 	mov    0x2350f7(%rip),%r14        # 238db0 <free@GLIBC_2.2.5>
    3cb9:	eb 0d                	jmp    3cc8 <_ZN13num_perf_demo4main17h1c767c90db3777c8E+0x2c8>
    3cbb:	0f 1f 44 00 00       	nopl   0x0(%rax,%rax,1)
    3cc0:	49 89 dd             	mov    %rbx,%r13
    3cc3:	49 39 dc             	cmp    %rbx,%r12
    3cc6:	74 21                	je     3ce9 <_ZN13num_perf_demo4main17h1c767c90db3777c8E+0x2e9>
    3cc8:	49 8d 5d 18          	lea    0x18(%r13),%rbx
    3ccc:	48 89 9c 24 90 00 00 	mov    %rbx,0x90(%rsp)
    3cd3:	00 
    3cd4:	49 8b 7d 00          	mov    0x0(%r13),%rdi
    3cd8:	48 85 ff             	test   %rdi,%rdi
    3cdb:	74 0c                	je     3ce9 <_ZN13num_perf_demo4main17h1c767c90db3777c8E+0x2e9>
    3cdd:	49 83 7d 08 00       	cmpq   $0x0,0x8(%r13)
    3ce2:	74 dc                	je     3cc0 <_ZN13num_perf_demo4main17h1c767c90db3777c8E+0x2c0>
    3ce4:	41 ff d6             	callq  *%r14
    3ce7:	eb d7                	jmp    3cc0 <_ZN13num_perf_demo4main17h1c767c90db3777c8E+0x2c0>
    3ce9:	48 83 7c 24 30 00    	cmpq   $0x0,0x30(%rsp)
    3cef:	74 09                	je     3cfa <_ZN13num_perf_demo4main17h1c767c90db3777c8E+0x2fa>
    3cf1:	4c 89 ff             	mov    %r15,%rdi
    3cf4:	ff 15 b6 50 23 00    	callq  *0x2350b6(%rip)        # 238db0 <free@GLIBC_2.2.5>
    3cfa:	48 8d 05 47 39 23 00 	lea    0x233947(%rip),%rax        # 237648 <__init_array_end+0x58>
    3d01:	48 89 04 24          	mov    %rax,(%rsp)
    3d05:	48 c7 44 24 08 01 00 	movq   $0x1,0x8(%rsp)
    3d0c:	00 00 
    3d0e:	48 c7 44 24 10 00 00 	movq   $0x0,0x10(%rsp)
    3d15:	00 00 
    3d17:	48 8d 05 1a c9 02 00 	lea    0x2c91a(%rip),%rax        # 30638 <_ZN4core7unicode12unicode_data2cc6BITSET17h5201257bcf8f09faE+0x3d8>
    3d1e:	48 89 44 24 20       	mov    %rax,0x20(%rsp)
    3d23:	48 c7 44 24 28 00 00 	movq   $0x0,0x28(%rsp)
    3d2a:	00 00 
    3d2c:	48 89 e7             	mov    %rsp,%rdi
    let args: Vec<String> = args().collect();
    if args.len() <= 1 {
        eprintln!("Provide integer argument.");
    3d2f:	c5 f8 77             	vzeroupper 
    3d32:	e8 19 ae 01 00       	callq  1eb50 <_ZN3std2io5stdio7_eprint17hf19d6fb036d8919dE>
        exit(1);
    3d37:	e8 c4 b1 01 00       	callq  1ef00 <_ZN3std7process4exit17h48d7a25190f60a46E>
    3d3c:	0f 0b                	ud2    
    3d3e:	ba 08 00 00 00       	mov    $0x8,%edx
    3d43:	48 8b 44 24 10       	mov    0x10(%rsp),%rax
    3d48:	48 89 42 10          	mov    %rax,0x10(%rdx)
    3d4c:	c5 f8 10 04 24       	vmovups (%rsp),%xmm0
    3d51:	c5 f8 11 02          	vmovups %xmm0,(%rdx)
    3d55:	48 89 94 24 b0 00 00 	mov    %rdx,0xb0(%rsp)
    3d5c:	00 
    3d5d:	4c 89 ac 24 b8 00 00 	mov    %r13,0xb8(%rsp)
    3d64:	00 
    3d65:	48 c7 84 24 c0 00 00 	movq   $0x1,0xc0(%rsp)
    3d6c:	00 01 00 00 00 
    3d71:	c5 fe 6f 84 24 80 00 	vmovdqu 0x80(%rsp),%ymm0
    3d78:	00 00 
    3d7a:	c5 fe 7f 04 24       	vmovdqu %ymm0,(%rsp)
    3d7f:	48 8b 4c 24 10       	mov    0x10(%rsp),%rcx
    3d84:	48 8b 44 24 18       	mov    0x18(%rsp),%rax
    3d89:	48 89 44 24 78       	mov    %rax,0x78(%rsp)
    3d8e:	48 29 c8             	sub    %rcx,%rax
    3d91:	48 89 84 24 d0 00 00 	mov    %rax,0xd0(%rsp)
    3d98:	00 
    3d99:	48 8d 41 18          	lea    0x18(%rcx),%rax
    3d9d:	48 89 84 24 10 01 00 	mov    %rax,0x110(%rsp)
    3da4:	00 
    3da5:	bf 01 00 00 00       	mov    $0x1,%edi
    3daa:	31 f6                	xor    %esi,%esi
    3dac:	49 89 d0             	mov    %rdx,%r8
    3daf:	48 89 8c 24 a8 00 00 	mov    %rcx,0xa8(%rsp)
    3db6:	00 
    3db7:	48 39 b4 24 d0 00 00 	cmp    %rsi,0xd0(%rsp)
    3dbe:	00 
    3dbf:	75 4d                	jne    3e0e <_ZN13num_perf_demo4main17h1c767c90db3777c8E+0x40e>
    3dc1:	e9 2a 02 00 00       	jmpq   3ff0 <_ZN13num_perf_demo4main17h1c767c90db3777c8E+0x5f0>
    3dc6:	66 2e 0f 1f 84 00 00 	nopw   %cs:0x0(%rax,%rax,1)
    3dcd:	00 00 00 
    3dd0:	4c 89 e2             	mov    %r12,%rdx
    3dd3:	48 8b 8c 24 a8 00 00 	mov    0xa8(%rsp),%rcx
    3dda:	00 
    3ddb:	48 8b 74 24 30       	mov    0x30(%rsp),%rsi
    3de0:	48 8b 44 24 70       	mov    0x70(%rsp),%rax
    3de5:	48 89 44 32 28       	mov    %rax,0x28(%rdx,%rsi,1)
    3dea:	c5 fa 6f 44 24 60    	vmovdqu 0x60(%rsp),%xmm0
    3df0:	c5 fa 7f 44 32 18    	vmovdqu %xmm0,0x18(%rdx,%rsi,1)
    3df6:	48 ff c7             	inc    %rdi
    3df9:	48 83 c6 18          	add    $0x18,%rsi
    3dfd:	49 89 d0             	mov    %rdx,%r8
    3e00:	48 39 b4 24 d0 00 00 	cmp    %rsi,0xd0(%rsp)
    3e07:	00 
    3e08:	0f 84 e2 01 00 00    	je     3ff0 <_ZN13num_perf_demo4main17h1c767c90db3777c8E+0x5f0>
    3e0e:	48 8b 84 24 10 01 00 	mov    0x110(%rsp),%rax
    3e15:	00 
    3e16:	4c 8d 3c 30          	lea    (%rax,%rsi,1),%r15
    3e1a:	4c 89 7c 24 10       	mov    %r15,0x10(%rsp)
    3e1f:	48 8b 1c 31          	mov    (%rcx,%rsi,1),%rbx
    3e23:	48 85 db             	test   %rbx,%rbx
    3e26:	0f 84 d6 01 00 00    	je     4002 <_ZN13num_perf_demo4main17h1c767c90db3777c8E+0x602>
    3e2c:	4c 89 84 24 d8 00 00 	mov    %r8,0xd8(%rsp)
    3e33:	00 
    3e34:	49 89 d4             	mov    %rdx,%r12
    3e37:	4c 89 6c 24 40       	mov    %r13,0x40(%rsp)
    3e3c:	48 89 7c 24 58       	mov    %rdi,0x58(%rsp)
    3e41:	4c 8b 6c 31 08       	mov    0x8(%rcx,%rsi,1),%r13
    3e46:	48 89 74 24 30       	mov    %rsi,0x30(%rsp)
    3e4b:	4c 8b 74 31 10       	mov    0x10(%rcx,%rsi,1),%r14
    3e50:	48 8d 7c 24 60       	lea    0x60(%rsp),%rdi
    3e55:	48 89 de             	mov    %rbx,%rsi
    3e58:	4c 89 f2             	mov    %r14,%rdx
    3e5b:	c5 f8 77             	vzeroupper 
    3e5e:	e8 1d 8c 00 00       	callq  ca80 <_ZN4core3str9from_utf817ha5f1d279f7594d61E>
    3e63:	48 83 7c 24 60 01    	cmpq   $0x1,0x60(%rsp)
    3e69:	0f 84 a8 1c 00 00    	je     5b17 <_ZN13num_perf_demo4main17h1c767c90db3777c8E+0x2117>
    3e6f:	48 89 5c 24 60       	mov    %rbx,0x60(%rsp)
    3e74:	4c 89 6c 24 68       	mov    %r13,0x68(%rsp)
    3e79:	4c 89 74 24 70       	mov    %r14,0x70(%rsp)
    3e7e:	48 8b 7c 24 58       	mov    0x58(%rsp),%rdi
    3e83:	4c 8b 6c 24 40       	mov    0x40(%rsp),%r13
    3e88:	4c 39 ef             	cmp    %r13,%rdi
    3e8b:	0f 85 3f ff ff ff    	jne    3dd0 <_ZN13num_perf_demo4main17h1c767c90db3777c8E+0x3d0>
    3e91:	48 8b 5c 24 78       	mov    0x78(%rsp),%rbx
    3e96:	4c 29 fb             	sub    %r15,%rbx
    3e99:	48 c1 fb 03          	sar    $0x3,%rbx
    3e9d:	48 b8 ab aa aa aa aa 	movabs $0xaaaaaaaaaaaaaaab,%rax
    3ea4:	aa aa aa 
    3ea7:	48 0f af d8          	imul   %rax,%rbx
    3eab:	48 ff c3             	inc    %rbx
    3eae:	48 c7 c0 ff ff ff ff 	mov    $0xffffffffffffffff,%rax
    3eb5:	48 0f 44 d8          	cmove  %rax,%rbx
    3eb9:	4c 01 eb             	add    %r13,%rbx
    3ebc:	0f 82 8d 1c 00 00    	jb     5b4f <_ZN13num_perf_demo4main17h1c767c90db3777c8E+0x214f>
    3ec2:	4c 89 e8             	mov    %r13,%rax
    3ec5:	4c 01 e8             	add    %r13,%rax
    3ec8:	48 39 d8             	cmp    %rbx,%rax
    3ecb:	48 0f 47 d8          	cmova  %rax,%rbx
    3ecf:	45 31 f6             	xor    %r14d,%r14d
    3ed2:	48 89 d8             	mov    %rbx,%rax
    3ed5:	b9 18 00 00 00       	mov    $0x18,%ecx
    3eda:	48 f7 e1             	mul    %rcx
    3edd:	49 89 c7             	mov    %rax,%r15
    3ee0:	0f 91 c0             	setno  %al
    3ee3:	0f 80 66 1c 00 00    	jo     5b4f <_ZN13num_perf_demo4main17h1c767c90db3777c8E+0x214f>
    3ee9:	49 89 fc             	mov    %rdi,%r12
    3eec:	41 88 c6             	mov    %al,%r14b
    3eef:	49 c1 e6 03          	shl    $0x3,%r14
    3ef3:	4d 85 ed             	test   %r13,%r13
    3ef6:	74 27                	je     3f1f <_ZN13num_perf_demo4main17h1c767c90db3777c8E+0x51f>
    3ef8:	4d 85 ff             	test   %r15,%r15
    3efb:	74 67                	je     3f64 <_ZN13num_perf_demo4main17h1c767c90db3777c8E+0x564>
    3efd:	48 8b bc 24 d8 00 00 	mov    0xd8(%rsp),%rdi
    3f04:	00 
    3f05:	4c 89 fe             	mov    %r15,%rsi
    3f08:	ff 15 3a 50 23 00    	callq  *0x23503a(%rip)        # 238f48 <realloc@GLIBC_2.2.5>
    3f0e:	48 89 c2             	mov    %rax,%rdx
    3f11:	48 85 d2             	test   %rdx,%rdx
    3f14:	0f 85 b6 00 00 00    	jne    3fd0 <_ZN13num_perf_demo4main17h1c767c90db3777c8E+0x5d0>
    3f1a:	e9 8f 1c 00 00       	jmpq   5bae <_ZN13num_perf_demo4main17h1c767c90db3777c8E+0x21ae>
    3f1f:	4d 39 fe             	cmp    %r15,%r14
    3f22:	0f 86 92 00 00 00    	jbe    3fba <_ZN13num_perf_demo4main17h1c767c90db3777c8E+0x5ba>
    3f28:	48 c7 84 24 20 01 00 	movq   $0x0,0x120(%rsp)
    3f2f:	00 00 00 00 00 
    3f34:	be 08 00 00 00       	mov    $0x8,%esi
    3f39:	48 8d bc 24 20 01 00 	lea    0x120(%rsp),%rdi
    3f40:	00 
    3f41:	4c 89 fa             	mov    %r15,%rdx
    3f44:	ff 15 66 50 23 00    	callq  *0x235066(%rip)        # 238fb0 <posix_memalign@GLIBC_2.2.5>
    3f4a:	85 c0                	test   %eax,%eax
    3f4c:	0f 85 5c 1c 00 00    	jne    5bae <_ZN13num_perf_demo4main17h1c767c90db3777c8E+0x21ae>
    3f52:	48 8b 94 24 20 01 00 	mov    0x120(%rsp),%rdx
    3f59:	00 
    3f5a:	48 85 d2             	test   %rdx,%rdx
    3f5d:	75 71                	jne    3fd0 <_ZN13num_perf_demo4main17h1c767c90db3777c8E+0x5d0>
    3f5f:	e9 4a 1c 00 00       	jmpq   5bae <_ZN13num_perf_demo4main17h1c767c90db3777c8E+0x21ae>
    3f64:	48 c7 84 24 20 01 00 	movq   $0x0,0x120(%rsp)
    3f6b:	00 00 00 00 00 
    3f70:	be 08 00 00 00       	mov    $0x8,%esi
    3f75:	48 8d bc 24 20 01 00 	lea    0x120(%rsp),%rdi
    3f7c:	00 
    3f7d:	31 d2                	xor    %edx,%edx
    3f7f:	ff 15 2b 50 23 00    	callq  *0x23502b(%rip)        # 238fb0 <posix_memalign@GLIBC_2.2.5>
    3f85:	85 c0                	test   %eax,%eax
    3f87:	0f 85 1e 1c 00 00    	jne    5bab <_ZN13num_perf_demo4main17h1c767c90db3777c8E+0x21ab>
    3f8d:	48 8b 84 24 20 01 00 	mov    0x120(%rsp),%rax
    3f94:	00 
    3f95:	41 bf 00 00 00 00    	mov    $0x0,%r15d
    3f9b:	48 85 c0             	test   %rax,%rax
    3f9e:	0f 84 0a 1c 00 00    	je     5bae <_ZN13num_perf_demo4main17h1c767c90db3777c8E+0x21ae>
    3fa4:	48 8b bc 24 d8 00 00 	mov    0xd8(%rsp),%rdi
    3fab:	00 
    3fac:	49 89 c6             	mov    %rax,%r14
    3faf:	ff 15 fb 4d 23 00    	callq  *0x234dfb(%rip)        # 238db0 <free@GLIBC_2.2.5>
    3fb5:	4c 89 f2             	mov    %r14,%rdx
    3fb8:	eb 16                	jmp    3fd0 <_ZN13num_perf_demo4main17h1c767c90db3777c8E+0x5d0>
    3fba:	4c 89 ff             	mov    %r15,%rdi
    3fbd:	ff 15 5d 4f 23 00    	callq  *0x234f5d(%rip)        # 238f20 <malloc@GLIBC_2.2.5>
    3fc3:	48 89 c2             	mov    %rax,%rdx
    3fc6:	48 85 d2             	test   %rdx,%rdx
    3fc9:	0f 84 df 1b 00 00    	je     5bae <_ZN13num_perf_demo4main17h1c767c90db3777c8E+0x21ae>
    3fcf:	90                   	nop
    3fd0:	48 89 94 24 b0 00 00 	mov    %rdx,0xb0(%rsp)
    3fd7:	00 
    3fd8:	49 89 dd             	mov    %rbx,%r13
    3fdb:	48 8b 8c 24 a8 00 00 	mov    0xa8(%rsp),%rcx
    3fe2:	00 
    3fe3:	48 8b 74 24 30       	mov    0x30(%rsp),%rsi
    3fe8:	4c 89 e7             	mov    %r12,%rdi
    3feb:	e9 f0 fd ff ff       	jmpq   3de0 <_ZN13num_perf_demo4main17h1c767c90db3777c8E+0x3e0>
    3ff0:	48 89 bc 24 c0 00 00 	mov    %rdi,0xc0(%rsp)
    3ff7:	00 
    3ff8:	4c 89 ac 24 b8 00 00 	mov    %r13,0xb8(%rsp)
    3fff:	00 
    4000:	eb 58                	jmp    405a <_ZN13num_perf_demo4main17h1c767c90db3777c8E+0x65a>
    4002:	48 89 bc 24 c0 00 00 	mov    %rdi,0xc0(%rsp)
    4009:	00 
    400a:	4c 89 ac 24 b8 00 00 	mov    %r13,0xb8(%rsp)
    4011:	00 
    4012:	4c 3b 7c 24 78       	cmp    0x78(%rsp),%r15
    4017:	4c 8b 35 92 4d 23 00 	mov    0x234d92(%rip),%r14        # 238db0 <free@GLIBC_2.2.5>
    401e:	75 1a                	jne    403a <_ZN13num_perf_demo4main17h1c767c90db3777c8E+0x63a>
    4020:	eb 38                	jmp    405a <_ZN13num_perf_demo4main17h1c767c90db3777c8E+0x65a>
    4022:	66 2e 0f 1f 84 00 00 	nopw   %cs:0x0(%rax,%rax,1)
    4029:	00 00 00 
    402c:	0f 1f 40 00          	nopl   0x0(%rax)
    4030:	49 89 df             	mov    %rbx,%r15
    4033:	48 39 5c 24 78       	cmp    %rbx,0x78(%rsp)
    4038:	74 20                	je     405a <_ZN13num_perf_demo4main17h1c767c90db3777c8E+0x65a>
    403a:	49 8d 5f 18          	lea    0x18(%r15),%rbx
    403e:	48 89 5c 24 10       	mov    %rbx,0x10(%rsp)
    4043:	49 8b 3f             	mov    (%r15),%rdi
    4046:	48 85 ff             	test   %rdi,%rdi
    4049:	74 0f                	je     405a <_ZN13num_perf_demo4main17h1c767c90db3777c8E+0x65a>
    404b:	49 83 7f 08 00       	cmpq   $0x0,0x8(%r15)
    4050:	74 de                	je     4030 <_ZN13num_perf_demo4main17h1c767c90db3777c8E+0x630>
    4052:	c5 f8 77             	vzeroupper 
    4055:	41 ff d6             	callq  *%r14
    4058:	eb d6                	jmp    4030 <_ZN13num_perf_demo4main17h1c767c90db3777c8E+0x630>
    405a:	48 83 7c 24 08 00    	cmpq   $0x0,0x8(%rsp)
    4060:	74 0d                	je     406f <_ZN13num_perf_demo4main17h1c767c90db3777c8E+0x66f>
    4062:	48 8b 3c 24          	mov    (%rsp),%rdi
    4066:	c5 f8 77             	vzeroupper 
    4069:	ff 15 41 4d 23 00    	callq  *0x234d41(%rip)        # 238db0 <free@GLIBC_2.2.5>
    406f:	c5 fa 6f 84 24 b0 00 	vmovdqu 0xb0(%rsp),%xmm0
    4076:	00 00 
    4078:	c5 f9 7f 84 24 50 01 	vmovdqa %xmm0,0x150(%rsp)
    407f:	00 00 
    4081:	4c 8b 94 24 c0 00 00 	mov    0xc0(%rsp),%r10
    4088:	00 
    4089:	4c 89 94 24 60 01 00 	mov    %r10,0x160(%rsp)
    4090:	00 
    if args.len() <= 1 {
    4091:	49 83 fa 01          	cmp    $0x1,%r10
    4095:	0f 86 5f fc ff ff    	jbe    3cfa <_ZN13num_perf_demo4main17h1c767c90db3777c8E+0x2fa>
    409b:	4c 8b 8c 24 50 01 00 	mov    0x150(%rsp),%r9
    40a2:	00 
    40a3:	49 8b 49 28          	mov    0x28(%r9),%rcx
    40a7:	48 85 c9             	test   %rcx,%rcx
    40aa:	0f 84 24 1b 00 00    	je     5bd4 <_ZN13num_perf_demo4main17h1c767c90db3777c8E+0x21d4>
    40b0:	49 8b 71 18          	mov    0x18(%r9),%rsi
    40b4:	80 3e 2b             	cmpb   $0x2b,(%rsi)
    40b7:	75 0c                	jne    40c5 <_ZN13num_perf_demo4main17h1c767c90db3777c8E+0x6c5>
    40b9:	48 ff c9             	dec    %rcx
    40bc:	0f 84 12 1b 00 00    	je     5bd4 <_ZN13num_perf_demo4main17h1c767c90db3777c8E+0x21d4>
    40c2:	48 ff c6             	inc    %rsi
    40c5:	31 ff                	xor    %edi,%edi
    40c7:	41 b8 0a 00 00 00    	mov    $0xa,%r8d
    40cd:	45 31 e4             	xor    %r12d,%r12d
    40d0:	48 39 f9             	cmp    %rdi,%rcx
    40d3:	74 33                	je     4108 <_ZN13num_perf_demo4main17h1c767c90db3777c8E+0x708>
    40d5:	48 8d 04 3e          	lea    (%rsi,%rdi,1),%rax
    40d9:	0f b6 18             	movzbl (%rax),%ebx
    40dc:	83 c3 d0             	add    $0xffffffd0,%ebx
    40df:	83 fb 09             	cmp    $0x9,%ebx
    40e2:	0f 87 dd 19 00 00    	ja     5ac5 <_ZN13num_perf_demo4main17h1c767c90db3777c8E+0x20c5>
    40e8:	4c 89 e0             	mov    %r12,%rax
    40eb:	49 f7 e0             	mul    %r8
    40ee:	b2 02                	mov    $0x2,%dl
    40f0:	0f 80 d1 19 00 00    	jo     5ac7 <_ZN13num_perf_demo4main17h1c767c90db3777c8E+0x20c7>
    40f6:	49 89 c4             	mov    %rax,%r12
    40f9:	89 d8                	mov    %ebx,%eax
    40fb:	48 ff c7             	inc    %rdi
    40fe:	49 01 c4             	add    %rax,%r12
    4101:	73 cd                	jae    40d0 <_ZN13num_perf_demo4main17h1c767c90db3777c8E+0x6d0>
    4103:	e9 bf 19 00 00       	jmpq   5ac7 <_ZN13num_perf_demo4main17h1c767c90db3777c8E+0x20c7>
    4108:	4c 89 94 24 68 01 00 	mov    %r10,0x168(%rsp)
    410f:	00 
    4110:	4c 89 8c 24 70 01 00 	mov    %r9,0x170(%rsp)
    4117:	00 
    }
    let n: usize = args[1].parse::<usize>().unwrap();
    if n <= 1 {
    4118:	49 83 fc 02          	cmp    $0x2,%r12
    411c:	0f 82 f8 1a 00 00    	jb     5c1a <_ZN13num_perf_demo4main17h1c767c90db3777c8E+0x221a>
    4122:	48 8d bc 24 c0 01 00 	lea    0x1c0(%rsp),%rdi
    4129:	00 
    412a:	c5 fb 10 05 ee 9a 02 	vmovsd 0x29aee(%rip),%xmm0        # 2dc20 <_fini+0x1c>
    4131:	00 
}

pub fn mul_test(n: usize) -> (f64, f64) {

    // Make data.
    let A: Vec<f64> = make_mat_with_data(n, 1.0);
    4132:	4c 89 e6             	mov    %r12,%rsi
    4135:	c5 f8 77             	vzeroupper 
    4138:	e8 83 d1 00 00       	callq  112c0 <_ZN13num_perf_demo18make_mat_with_data17h2c24ab5f9b5ea4fbE>
    413d:	48 8d bc 24 d8 01 00 	lea    0x1d8(%rsp),%rdi
    4144:	00 
    4145:	c5 fb 10 05 db 9a 02 	vmovsd 0x29adb(%rip),%xmm0        # 2dc28 <_fini+0x24>
    414c:	00 
    let B: Vec<f64> = make_mat_with_data(n, 3.0);
    414d:	4c 89 e6             	mov    %r12,%rsi
    4150:	e8 6b d1 00 00       	callq  112c0 <_ZN13num_perf_demo18make_mat_with_data17h2c24ab5f9b5ea4fbE>
    4155:	c5 f9 57 c0          	vxorpd %xmm0,%xmm0,%xmm0
    4159:	c5 f9 29 84 24 80 00 	vmovapd %xmm0,0x80(%rsp)
    4160:	00 00 
    4162:	48 8d b4 24 80 00 00 	lea    0x80(%rsp),%rsi
    4169:	00 
    416a:	bf 01 00 00 00       	mov    $0x1,%edi
    416f:	ff 15 b3 4d 23 00    	callq  *0x234db3(%rip)        # 238f28 <clock_gettime@GLIBC_2.2.5>
    4175:	83 f8 ff             	cmp    $0xffffffff,%eax
    4178:	0f 84 e3 1a 00 00    	je     5c61 <_ZN13num_perf_demo4main17h1c767c90db3777c8E+0x2261>
    417e:	c5 f8 28 84 24 80 00 	vmovaps 0x80(%rsp),%xmm0
    4185:	00 00 
    4187:	c5 f8 29 84 24 f0 01 	vmovaps %xmm0,0x1f0(%rsp)
    418e:	00 00 

    let timer = Instant::now();

    // Array multiplication.
    let C: Vec<f64> = mat_mul(n, A, B);
    4190:	48 8b 84 24 d0 01 00 	mov    0x1d0(%rsp),%rax
    4197:	00 
    4198:	48 89 84 24 c0 00 00 	mov    %rax,0xc0(%rsp)
    419f:	00 
    41a0:	c5 f8 10 84 24 c0 01 	vmovups 0x1c0(%rsp),%xmm0
    41a7:	00 00 
    41a9:	c5 f8 29 84 24 b0 00 	vmovaps %xmm0,0xb0(%rsp)
    41b0:	00 00 
    41b2:	48 8b 84 24 e8 01 00 	mov    0x1e8(%rsp),%rax
    41b9:	00 
    41ba:	48 89 44 24 70       	mov    %rax,0x70(%rsp)
    41bf:	c5 fa 6f 84 24 d8 01 	vmovdqu 0x1d8(%rsp),%xmm0
    41c6:	00 00 
    41c8:	c5 f9 7f 44 24 60    	vmovdqa %xmm0,0x60(%rsp)
    vec![0.0; n * n]
    41ce:	4c 89 e0             	mov    %r12,%rax
    41d1:	49 0f af c4          	imul   %r12,%rax
    41d5:	41 b9 08 00 00 00    	mov    $0x8,%r9d
    41db:	48 89 44 24 58       	mov    %rax,0x58(%rsp)
    41e0:	49 f7 e1             	mul    %r9
    41e3:	0f 80 c1 1a 00 00    	jo     5caa <_ZN13num_perf_demo4main17h1c767c90db3777c8E+0x22aa>
    41e9:	48 89 c3             	mov    %rax,%rbx
    41ec:	48 85 c0             	test   %rax,%rax
    41ef:	74 1a                	je     420b <_ZN13num_perf_demo4main17h1c767c90db3777c8E+0x80b>
    41f1:	be 01 00 00 00       	mov    $0x1,%esi
    41f6:	48 89 df             	mov    %rbx,%rdi
    41f9:	ff 15 d1 4c 23 00    	callq  *0x234cd1(%rip)        # 238ed0 <calloc@GLIBC_2.2.5>
    41ff:	48 85 c0             	test   %rax,%rax
    4202:	0f 84 b3 19 00 00    	je     5bbb <_ZN13num_perf_demo4main17h1c767c90db3777c8E+0x21bb>
    4208:	49 89 c1             	mov    %rax,%r9
    420b:	4c 89 8c 24 80 00 00 	mov    %r9,0x80(%rsp)
    4212:	00 
    4213:	48 8b 44 24 58       	mov    0x58(%rsp),%rax
    4218:	48 89 84 24 88 00 00 	mov    %rax,0x88(%rsp)
    421f:	00 
    4220:	48 89 84 24 90 00 00 	mov    %rax,0x90(%rsp)
    4227:	00 
    4228:	bf 08 00 00 00       	mov    $0x8,%edi
    422d:	4c 89 e0             	mov    %r12,%rax
    4230:	48 f7 e7             	mul    %rdi
    4233:	0f 80 7b 1a 00 00    	jo     5cb4 <_ZN13num_perf_demo4main17h1c767c90db3777c8E+0x22b4>
    4239:	48 89 c3             	mov    %rax,%rbx
    423c:	48 85 c0             	test   %rax,%rax
    423f:	4c 89 8c 24 e0 00 00 	mov    %r9,0xe0(%rsp)
    4246:	00 
    4247:	74 22                	je     426b <_ZN13num_perf_demo4main17h1c767c90db3777c8E+0x86b>
    4249:	be 01 00 00 00       	mov    $0x1,%esi
    424e:	48 89 df             	mov    %rbx,%rdi
    4251:	ff 15 79 4c 23 00    	callq  *0x234c79(%rip)        # 238ed0 <calloc@GLIBC_2.2.5>
    4257:	48 85 c0             	test   %rax,%rax
    425a:	0f 84 5b 19 00 00    	je     5bbb <_ZN13num_perf_demo4main17h1c767c90db3777c8E+0x21bb>
    4260:	48 89 c7             	mov    %rax,%rdi
    4263:	4c 8b 8c 24 e0 00 00 	mov    0xe0(%rsp),%r9
    426a:	00 
    426b:	48 89 3c 24          	mov    %rdi,(%rsp)
    426f:	4c 89 64 24 08       	mov    %r12,0x8(%rsp)
    4274:	4c 89 64 24 10       	mov    %r12,0x10(%rsp)
    4279:	48 8b 44 24 60       	mov    0x60(%rsp),%rax
    427e:	48 89 84 24 40 01 00 	mov    %rax,0x140(%rsp)
    4285:	00 
    4286:	48 8b 8c 24 b0 00 00 	mov    0xb0(%rsp),%rcx
    428d:	00 
    428e:	48 8b 84 24 c0 00 00 	mov    0xc0(%rsp),%rax
    4295:	00 
    4296:	48 89 84 24 d8 00 00 	mov    %rax,0xd8(%rsp)
    429d:	00 
    429e:	49 8d 44 24 04       	lea    0x4(%r12),%rax
    42a3:	48 89 84 24 f8 00 00 	mov    %rax,0xf8(%rsp)
    42aa:	00 
    42ab:	49 8d 44 24 ff       	lea    -0x1(%r12),%rax
    42b0:	48 89 44 24 78       	mov    %rax,0x78(%rsp)
    42b5:	49 0f af c4          	imul   %r12,%rax
    42b9:	48 89 84 24 98 01 00 	mov    %rax,0x198(%rsp)
    42c0:	00 
    42c1:	4c 89 e0             	mov    %r12,%rax
    42c4:	48 83 e0 f0          	and    $0xfffffffffffffff0,%rax
    42c8:	48 89 84 24 78 01 00 	mov    %rax,0x178(%rsp)
    42cf:	00 
    42d0:	c4 c1 f9 6e c4       	vmovq  %r12,%xmm0
    42d5:	c4 e2 7d 59 c0       	vpbroadcastq %xmm0,%ymm0
    42da:	45 89 e7             	mov    %r12d,%r15d
    42dd:	41 83 e7 07          	and    $0x7,%r15d
    42e1:	4d 89 e5             	mov    %r12,%r13
    42e4:	4d 29 fd             	sub    %r15,%r13
    42e7:	4c 89 e0             	mov    %r12,%rax
    42ea:	48 c1 e0 06          	shl    $0x6,%rax
    42ee:	48 89 84 24 a0 01 00 	mov    %rax,0x1a0(%rsp)
    42f5:	00 
    42f6:	b8 0c 00 00 00       	mov    $0xc,%eax
    42fb:	44 29 e0             	sub    %r12d,%eax
    42fe:	89 84 24 1c 01 00 00 	mov    %eax,0x11c(%rsp)
    4305:	45 89 e3             	mov    %r12d,%r11d
    4308:	41 f7 db             	neg    %r11d
    430b:	b8 04 00 00 00       	mov    $0x4,%eax
    4310:	44 29 e0             	sub    %r12d,%eax
    4313:	89 84 24 f4 00 00 00 	mov    %eax,0xf4(%rsp)
    431a:	c5 f1 ef c9          	vpxor  %xmm1,%xmm1,%xmm1
    431e:	c5 e9 57 d2          	vxorpd %xmm2,%xmm2,%xmm2
    4322:	c5 7d 6f 35 96 99 02 	vmovdqa 0x29996(%rip),%ymm14        # 2dcc0 <_fini+0xbc>
    4329:	00 
    432a:	4a 8d 04 e7          	lea    (%rdi,%r12,8),%rax
    432e:	48 89 84 24 80 01 00 	mov    %rax,0x180(%rsp)
    4335:	00 
    4336:	4e 8d 34 e5 00 00 00 	lea    0x0(,%r12,8),%r14
    433d:	00 
    433e:	48 8d 47 20          	lea    0x20(%rdi),%rax
    4342:	48 89 84 24 b8 01 00 	mov    %rax,0x1b8(%rsp)
    4349:	00 
    434a:	48 8d 47 38          	lea    0x38(%rdi),%rax
    434e:	48 89 84 24 a8 01 00 	mov    %rax,0x1a8(%rsp)
    4355:	00 
    4356:	48 8d 41 20          	lea    0x20(%rcx),%rax
    435a:	48 89 84 24 90 01 00 	mov    %rax,0x190(%rsp)
    4361:	00 
    4362:	48 89 8c 24 a8 00 00 	mov    %rcx,0xa8(%rsp)
    4369:	00 
    436a:	48 8d 41 38          	lea    0x38(%rcx),%rax
    436e:	48 89 84 24 88 01 00 	mov    %rax,0x188(%rsp)
    4375:	00 
    4376:	31 c0                	xor    %eax,%eax
    4378:	48 89 84 24 48 01 00 	mov    %rax,0x148(%rsp)
    437f:	00 
    4380:	31 c0                	xor    %eax,%eax
    4382:	48 89 44 24 30       	mov    %rax,0x30(%rsp)
    4387:	4c 89 a4 24 c8 00 00 	mov    %r12,0xc8(%rsp)
    438e:	00 
    438f:	4c 89 b4 24 e8 00 00 	mov    %r14,0xe8(%rsp)
    4396:	00 
    4397:	4c 89 bc 24 00 01 00 	mov    %r15,0x100(%rsp)
    439e:	00 
    439f:	4c 89 ac 24 08 01 00 	mov    %r13,0x108(%rsp)
    43a6:	00 
    43a7:	49 83 fc 0f          	cmp    $0xf,%r12
    43ab:	4c 8b 84 24 40 01 00 	mov    0x140(%rsp),%r8
    43b2:	00 
    43b3:	77 3e                	ja     43f3 <_ZN13num_perf_demo4main17h1c767c90db3777c8E+0x9f3>
    43b5:	eb 7d                	jmp    4434 <_ZN13num_perf_demo4main17h1c767c90db3777c8E+0xa34>
    43b7:	66 0f 1f 84 00 00 00 	nopw   0x0(%rax,%rax,1)
    43be:	00 00 
    43c0:	48 8b 44 24 30       	mov    0x30(%rsp),%rax
    43c5:	48 89 c1             	mov    %rax,%rcx
    43c8:	48 ff c1             	inc    %rcx
    43cb:	48 83 84 24 48 01 00 	addq   $0x8,0x148(%rsp)
    43d2:	00 08 
    43d4:	48 89 c8             	mov    %rcx,%rax
    43d7:	48 89 4c 24 30       	mov    %rcx,0x30(%rsp)
    43dc:	4c 39 e1             	cmp    %r12,%rcx
    43df:	0f 84 ab 0d 00 00    	je     5190 <_ZN13num_perf_demo4main17h1c767c90db3777c8E+0x1790>
    43e5:	49 83 fc 0f          	cmp    $0xf,%r12
    43e9:	4c 8b 84 24 40 01 00 	mov    0x140(%rsp),%r8
    43f0:	00 
    43f1:	76 41                	jbe    4434 <_ZN13num_perf_demo4main17h1c767c90db3777c8E+0xa34>
    43f3:	48 8b 84 24 98 01 00 	mov    0x198(%rsp),%rax
    43fa:	00 
    43fb:	48 8b 4c 24 30       	mov    0x30(%rsp),%rcx
    4400:	48 01 c8             	add    %rcx,%rax
    4403:	49 8d 0c c8          	lea    (%r8,%rcx,8),%rcx
    4407:	49 8d 04 c0          	lea    (%r8,%rax,8),%rax
    440b:	48 39 c1             	cmp    %rax,%rcx
    440e:	48 89 c2             	mov    %rax,%rdx
    4411:	48 0f 47 d1          	cmova  %rcx,%rdx
    4415:	48 0f 42 c1          	cmovb  %rcx,%rax
    4419:	48 83 c2 08          	add    $0x8,%rdx
    441d:	48 39 d7             	cmp    %rdx,%rdi
    4420:	0f 83 fa 00 00 00    	jae    4520 <_ZN13num_perf_demo4main17h1c767c90db3777c8E+0xb20>
    4426:	48 3b 84 24 80 01 00 	cmp    0x180(%rsp),%rax
    442d:	00 
    442e:	0f 83 ec 00 00 00    	jae    4520 <_ZN13num_perf_demo4main17h1c767c90db3777c8E+0xb20>
    4434:	31 c0                	xor    %eax,%eax
    4436:	48 8b 4c 24 78       	mov    0x78(%rsp),%rcx
    443b:	48 29 c1             	sub    %rax,%rcx
    443e:	4d 85 ff             	test   %r15,%r15
    4441:	74 2f                	je     4472 <_ZN13num_perf_demo4main17h1c767c90db3777c8E+0xa72>
    4443:	4c 89 e2             	mov    %r12,%rdx
    4446:	48 0f af d0          	imul   %rax,%rdx
    444a:	48 03 54 24 30       	add    0x30(%rsp),%rdx
    444f:	49 8d 14 d0          	lea    (%r8,%rdx,8),%rdx
    4453:	4c 89 fe             	mov    %r15,%rsi
    4456:	66 2e 0f 1f 84 00 00 	nopw   %cs:0x0(%rax,%rax,1)
    445d:	00 00 00 
                Bc[m] = *B.get_unchecked(m * n + j);
    4460:	48 8b 1a             	mov    (%rdx),%rbx
    4463:	48 89 1c c7          	mov    %rbx,(%rdi,%rax,8)
    4467:	48 ff c0             	inc    %rax
    446a:	4c 01 f2             	add    %r14,%rdx
    446d:	48 ff ce             	dec    %rsi
    4470:	75 ee                	jne    4460 <_ZN13num_perf_demo4main17h1c767c90db3777c8E+0xa60>
    4472:	48 83 f9 07          	cmp    $0x7,%rcx
    4476:	4c 8b 94 24 a0 01 00 	mov    0x1a0(%rsp),%r10
    447d:	00 
    447e:	0f 82 2c 02 00 00    	jb     46b0 <_ZN13num_perf_demo4main17h1c767c90db3777c8E+0xcb0>
    4484:	4c 89 c6             	mov    %r8,%rsi
    4487:	4d 89 e0             	mov    %r12,%r8
    448a:	4c 0f af c0          	imul   %rax,%r8
    448e:	4c 03 44 24 30       	add    0x30(%rsp),%r8
    4493:	48 8d 50 01          	lea    0x1(%rax),%rdx
    4497:	49 0f af d6          	imul   %r14,%rdx
    449b:	48 03 94 24 48 01 00 	add    0x148(%rsp),%rdx
    44a2:	00 
    44a3:	66 2e 0f 1f 84 00 00 	nopw   %cs:0x0(%rax,%rax,1)
    44aa:	00 00 00 
    44ad:	0f 1f 00             	nopl   (%rax)
    44b0:	4a 8b 1c c6          	mov    (%rsi,%r8,8),%rbx
    44b4:	48 89 1c c7          	mov    %rbx,(%rdi,%rax,8)
    44b8:	48 8d 1c 16          	lea    (%rsi,%rdx,1),%rbx
    44bc:	48 8b 0c 16          	mov    (%rsi,%rdx,1),%rcx
    44c0:	48 89 4c c7 08       	mov    %rcx,0x8(%rdi,%rax,8)
    44c5:	4a 8b 0c e3          	mov    (%rbx,%r12,8),%rcx
    44c9:	4c 01 f3             	add    %r14,%rbx
    44cc:	48 89 4c c7 10       	mov    %rcx,0x10(%rdi,%rax,8)
    44d1:	4a 8b 0c e3          	mov    (%rbx,%r12,8),%rcx
    44d5:	4c 01 f3             	add    %r14,%rbx
    44d8:	48 89 4c c7 18       	mov    %rcx,0x18(%rdi,%rax,8)
    44dd:	4a 8b 0c e3          	mov    (%rbx,%r12,8),%rcx
    44e1:	4c 01 f3             	add    %r14,%rbx
    44e4:	48 89 4c c7 20       	mov    %rcx,0x20(%rdi,%rax,8)
    44e9:	4a 8b 0c e3          	mov    (%rbx,%r12,8),%rcx
    44ed:	4c 01 f3             	add    %r14,%rbx
    44f0:	48 89 4c c7 28       	mov    %rcx,0x28(%rdi,%rax,8)
    44f5:	4a 8b 0c e3          	mov    (%rbx,%r12,8),%rcx
    44f9:	4c 01 f3             	add    %r14,%rbx
    44fc:	48 89 4c c7 30       	mov    %rcx,0x30(%rdi,%rax,8)
    4501:	4a 8b 0c e3          	mov    (%rbx,%r12,8),%rcx
    4505:	48 89 4c c7 38       	mov    %rcx,0x38(%rdi,%rax,8)
    450a:	48 83 c0 08          	add    $0x8,%rax
    450e:	4c 01 d6             	add    %r10,%rsi
    4511:	49 39 c4             	cmp    %rax,%r12
    4514:	75 9a                	jne    44b0 <_ZN13num_perf_demo4main17h1c767c90db3777c8E+0xab0>
    4516:	e9 95 01 00 00       	jmpq   46b0 <_ZN13num_perf_demo4main17h1c767c90db3777c8E+0xcb0>
    451b:	0f 1f 44 00 00       	nopl   0x0(%rax,%rax,1)
    4520:	48 8b 44 24 30       	mov    0x30(%rsp),%rax
    4525:	c4 e1 f9 6e e0       	vmovq  %rax,%xmm4
    452a:	c4 e2 7d 59 e4       	vpbroadcastq %xmm4,%ymm4
    452f:	31 c0                	xor    %eax,%eax
    4531:	c5 7d 7f f5          	vmovdqa %ymm14,%ymm5
    4535:	48 8b 8c 24 78 01 00 	mov    0x178(%rsp),%rcx
    453c:	00 
    453d:	0f 1f 00             	nopl   (%rax)
    4540:	c4 e2 7d 59 35 e7 96 	vpbroadcastq 0x296e7(%rip),%ymm6        # 2dc30 <_fini+0x2c>
    4547:	02 00 
    4549:	c5 d5 d4 f6          	vpaddq %ymm6,%ymm5,%ymm6
    454d:	c4 e2 7d 59 3d e2 96 	vpbroadcastq 0x296e2(%rip),%ymm7        # 2dc38 <_fini+0x34>
    4554:	02 00 
    4556:	c5 d5 d4 ff          	vpaddq %ymm7,%ymm5,%ymm7
    455a:	c4 62 7d 59 05 dd 96 	vpbroadcastq 0x296dd(%rip),%ymm8        # 2dc40 <_fini+0x3c>
    4561:	02 00 
    4563:	c4 41 55 d4 c0       	vpaddq %ymm8,%ymm5,%ymm8
    4568:	c5 b5 73 d5 20       	vpsrlq $0x20,%ymm5,%ymm9
    456d:	c5 35 f4 c8          	vpmuludq %ymm0,%ymm9,%ymm9
    4571:	c5 ad 73 d0 20       	vpsrlq $0x20,%ymm0,%ymm10
    4576:	c4 41 55 f4 da       	vpmuludq %ymm10,%ymm5,%ymm11
    457b:	c4 41 25 d4 c9       	vpaddq %ymm9,%ymm11,%ymm9
    4580:	c4 c1 35 73 f1 20    	vpsllq $0x20,%ymm9,%ymm9
    4586:	c5 55 f4 d8          	vpmuludq %ymm0,%ymm5,%ymm11
    458a:	c4 41 25 d4 c9       	vpaddq %ymm9,%ymm11,%ymm9
    458f:	c4 41 4d f4 da       	vpmuludq %ymm10,%ymm6,%ymm11
    4594:	c5 9d 73 d6 20       	vpsrlq $0x20,%ymm6,%ymm12
    4599:	c5 1d f4 e0          	vpmuludq %ymm0,%ymm12,%ymm12
    459d:	c4 41 25 d4 dc       	vpaddq %ymm12,%ymm11,%ymm11
    45a2:	c4 c1 25 73 f3 20    	vpsllq $0x20,%ymm11,%ymm11
    45a8:	c5 cd f4 f0          	vpmuludq %ymm0,%ymm6,%ymm6
    45ac:	c4 41 45 f4 e2       	vpmuludq %ymm10,%ymm7,%ymm12
    45b1:	c5 95 73 d7 20       	vpsrlq $0x20,%ymm7,%ymm13
    45b6:	c5 15 f4 e8          	vpmuludq %ymm0,%ymm13,%ymm13
    45ba:	c4 c1 4d d4 f3       	vpaddq %ymm11,%ymm6,%ymm6
    45bf:	c4 41 1d d4 dd       	vpaddq %ymm13,%ymm12,%ymm11
    45c4:	c4 c1 25 73 f3 20    	vpsllq $0x20,%ymm11,%ymm11
    45ca:	c5 c5 f4 f8          	vpmuludq %ymm0,%ymm7,%ymm7
    45ce:	c4 41 3d f4 d2       	vpmuludq %ymm10,%ymm8,%ymm10
    45d3:	c4 c1 1d 73 d0 20    	vpsrlq $0x20,%ymm8,%ymm12
    45d9:	c4 c1 45 d4 fb       	vpaddq %ymm11,%ymm7,%ymm7
    45de:	c5 1d f4 d8          	vpmuludq %ymm0,%ymm12,%ymm11
    45e2:	c4 41 2d d4 d3       	vpaddq %ymm11,%ymm10,%ymm10
    45e7:	c4 c1 2d 73 f2 20    	vpsllq $0x20,%ymm10,%ymm10
    45ed:	c5 3d f4 c0          	vpmuludq %ymm0,%ymm8,%ymm8
    45f1:	c5 35 d4 cc          	vpaddq %ymm4,%ymm9,%ymm9
    45f5:	c4 41 3d d4 c2       	vpaddq %ymm10,%ymm8,%ymm8
    45fa:	c5 cd d4 f4          	vpaddq %ymm4,%ymm6,%ymm6
    45fe:	c5 c5 d4 fc          	vpaddq %ymm4,%ymm7,%ymm7
    4602:	c4 c1 35 73 f1 03    	vpsllq $0x3,%ymm9,%ymm9
    4608:	c4 c1 f9 6e d8       	vmovq  %r8,%xmm3
    460d:	c4 e2 7d 59 db       	vpbroadcastq %xmm3,%ymm3
    4612:	c4 41 65 d4 c9       	vpaddq %ymm9,%ymm3,%ymm9
    4617:	c5 3d d4 c4          	vpaddq %ymm4,%ymm8,%ymm8
    461b:	c5 cd 73 f6 03       	vpsllq $0x3,%ymm6,%ymm6
    4620:	c5 e5 d4 f6          	vpaddq %ymm6,%ymm3,%ymm6
    4624:	c5 c5 73 f7 03       	vpsllq $0x3,%ymm7,%ymm7
    4629:	c4 c1 3d 73 f0 03    	vpsllq $0x3,%ymm8,%ymm8
    462f:	c4 41 2d 76 d2       	vpcmpeqd %ymm10,%ymm10,%ymm10
    4634:	c5 e5 d4 ff          	vpaddq %ymm7,%ymm3,%ymm7
    4638:	c4 22 ad 91 1c 0d 00 	vpgatherqq %ymm10,0x0(,%ymm9,1),%ymm11
    463f:	00 00 00 
    4642:	c4 c1 65 d4 d8       	vpaddq %ymm8,%ymm3,%ymm3
    4647:	c4 41 3d 76 c0       	vpcmpeqd %ymm8,%ymm8,%ymm8
    464c:	c4 62 bd 91 0c 35 00 	vpgatherqq %ymm8,0x0(,%ymm6,1),%ymm9
    4653:	00 00 00 
    4656:	c5 cd 76 f6          	vpcmpeqd %ymm6,%ymm6,%ymm6
    465a:	c4 62 cd 91 04 3d 00 	vpgatherqq %ymm6,0x0(,%ymm7,1),%ymm8
    4661:	00 00 00 
    4664:	c5 cd 76 f6          	vpcmpeqd %ymm6,%ymm6,%ymm6
    4668:	c4 e2 cd 91 3c 1d 00 	vpgatherqq %ymm6,0x0(,%ymm3,1),%ymm7
    466f:	00 00 00 
    4672:	c5 7e 7f 1c c7       	vmovdqu %ymm11,(%rdi,%rax,8)
    4677:	c5 7e 7f 4c c7 20    	vmovdqu %ymm9,0x20(%rdi,%rax,8)
    467d:	c5 7e 7f 44 c7 40    	vmovdqu %ymm8,0x40(%rdi,%rax,8)
    4683:	c5 fe 7f 7c c7 60    	vmovdqu %ymm7,0x60(%rdi,%rax,8)
    4689:	48 83 c0 10          	add    $0x10,%rax
    468d:	c4 e2 7d 59 1d b2 95 	vpbroadcastq 0x295b2(%rip),%ymm3        # 2dc48 <_fini+0x44>
    4694:	02 00 
    4696:	c5 d5 d4 eb          	vpaddq %ymm3,%ymm5,%ymm5
    469a:	48 39 c1             	cmp    %rax,%rcx
    469d:	0f 85 9d fe ff ff    	jne    4540 <_ZN13num_perf_demo4main17h1c767c90db3777c8E+0xb40>
    46a3:	48 89 c8             	mov    %rcx,%rax
    46a6:	4c 39 e1             	cmp    %r12,%rcx
    46a9:	0f 85 87 fd ff ff    	jne    4436 <_ZN13num_perf_demo4main17h1c767c90db3777c8E+0xa36>
    46af:	90                   	nop
    46b0:	49 83 fc 04          	cmp    $0x4,%r12
    46b4:	0f 83 b6 04 00 00    	jae    4b70 <_ZN13num_perf_demo4main17h1c767c90db3777c8E+0x1170>
    46ba:	4c 8b 94 24 a8 00 00 	mov    0xa8(%rsp),%r10
    46c1:	00 
    46c2:	48 8b 94 24 88 01 00 	mov    0x188(%rsp),%rdx
    46c9:	00 
    46ca:	45 31 c0             	xor    %r8d,%r8d
    46cd:	eb 58                	jmp    4727 <_ZN13num_perf_demo4main17h1c767c90db3777c8E+0xd27>
    46cf:	90                   	nop
    46d0:	48 8b 74 24 40       	mov    0x40(%rsp),%rsi
            C[ni + j] = (
    46d5:	48 03 74 24 30       	add    0x30(%rsp),%rsi
    46da:	48 39 74 24 58       	cmp    %rsi,0x58(%rsp)
    46df:	0f 86 92 0a 00 00    	jbe    5177 <_ZN13num_perf_demo4main17h1c767c90db3777c8E+0x1777>
    46e5:	49 ff c0             	inc    %r8
        impl crate::ops::Mul for $id {
            type Output = Self;
            #[inline]
            fn mul(self, other: Self) -> Self {
                use crate::llvm::simd_mul;
                unsafe { Simd(simd_mul(self.0, other.0)) }
    46e8:	c5 dd 59 dd          	vmulpd %ymm5,%ymm4,%ymm3
                unsafe { Simd(simd_add(self.0, other.0)) }
    46ec:	c5 e5 58 d9          	vaddpd %ymm1,%ymm3,%ymm3
            #[inline]
            pub fn sum(self) -> $elem_ty {
                #[cfg(not(target_arch = "aarch64"))]
                {
                    use crate::llvm::simd_reduce_add_ordered;
                    unsafe { simd_reduce_add_ordered(self.0, 0 as $elem_ty) }
    46f0:	c5 e3 58 e2          	vaddsd %xmm2,%xmm3,%xmm4
    46f4:	c4 e3 79 05 eb 01    	vpermilpd $0x1,%xmm3,%xmm5
    46fa:	c5 db 58 e5          	vaddsd %xmm5,%xmm4,%xmm4
    46fe:	c4 e3 7d 19 db 01    	vextractf128 $0x1,%ymm3,%xmm3
    4704:	c5 db 58 e3          	vaddsd %xmm3,%xmm4,%xmm4
    4708:	c4 e3 79 05 db 01    	vpermilpd $0x1,%xmm3,%xmm3
    470e:	c5 db 58 db          	vaddsd %xmm3,%xmm4,%xmm3
    4712:	c4 c1 7b 11 1c f1    	vmovsd %xmm3,(%r9,%rsi,8)
    4718:	4c 01 f2             	add    %r14,%rdx
    471b:	4d 01 f2             	add    %r14,%r10
    471e:	4d 39 e0             	cmp    %r12,%r8
    4721:	0f 84 99 fc ff ff    	je     43c0 <_ZN13num_perf_demo4main17h1c767c90db3777c8E+0x9c0>
            let ni = i * n;
    4727:	4c 89 c6             	mov    %r8,%rsi
    472a:	49 0f af f4          	imul   %r12,%rsi
                A[ni .. (ni + n)].simd_iter(f64s(0.0)),
    472e:	48 89 f1             	mov    %rsi,%rcx
    4731:	4c 01 e1             	add    %r12,%rcx
    4734:	0f 82 15 13 00 00    	jb     5a4f <_ZN13num_perf_demo4main17h1c767c90db3777c8E+0x204f>
    473a:	48 39 8c 24 d8 00 00 	cmp    %rcx,0xd8(%rsp)
    4741:	00 
    4742:	0f 82 ef 12 00 00    	jb     5a37 <_ZN13num_perf_demo4main17h1c767c90db3777c8E+0x2037>
    4748:	49 83 fc 04          	cmp    $0x4,%r12
    fn end(&mut self) -> Option<(Self::Vector, usize)> {
        if self.scalar_pos() < self.scalar_len() {
            let mut ret = self.default();
            let empty_amt = self.width() - (self.scalar_len() - self.scalar_pos());
            // Right-align the partial vector to ensure the load is vectorized
            if self.width() < self.scalar_len() {
    474c:	76 62                	jbe    47b0 <_ZN13num_perf_demo4main17h1c767c90db3777c8E+0xdb0>
    474e:	48 8b 8c 24 f8 00 00 	mov    0xf8(%rsp),%rcx
    4755:	00 
    4756:	48 81 f9 80 00 00 00 	cmp    $0x80,%rcx
    475d:	0f 87 04 13 00 00    	ja     5a67 <_ZN13num_perf_demo4main17h1c767c90db3777c8E+0x2067>
    4763:	48 83 f9 7c          	cmp    $0x7c,%rcx
            ///
            /// If `slice.len() < Self::lanes()`.
            #[inline]
            pub fn from_slice_unaligned(slice: &[$elem_ty]) -> Self {
                unsafe {
                    assert!(slice.len() >= $elem_count);
    4767:	0f 87 0f 13 00 00    	ja     5a7c <_ZN13num_perf_demo4main17h1c767c90db3777c8E+0x207c>
    476d:	48 8b 84 24 a8 00 00 	mov    0xa8(%rsp),%rax
    4774:	00 
    4775:	48 8d 04 f0          	lea    (%rax,%rsi,8),%rax
    4779:	48 8d 0d 40 bb 02 00 	lea    0x2bb40(%rip),%rcx        # 302c0 <_ZN4core7unicode12unicode_data2cc6BITSET17h5201257bcf8f09faE+0x60>
    4780:	c4 a1 7e 6f 5c e1 20 	vmovdqu 0x20(%rcx,%r12,8),%ymm3
    4787:	c4 a3 75 4c 64 e7 e0 	vpblendvb %ymm3,-0x20(%rdi,%r12,8),%ymm1,%ymm4
    478e:	30 
    478f:	c4 a3 75 4c 6c e0 e0 	vpblendvb %ymm3,-0x20(%rax,%r12,8),%ymm1,%ymm5
    4796:	30 
            C[ni + j] = (
    4797:	48 03 74 24 30       	add    0x30(%rsp),%rsi
    479c:	48 39 74 24 58       	cmp    %rsi,0x58(%rsp)
    47a1:	0f 87 3e ff ff ff    	ja     46e5 <_ZN13num_perf_demo4main17h1c767c90db3777c8E+0xce5>
    47a7:	e9 cb 09 00 00       	jmpq   5177 <_ZN13num_perf_demo4main17h1c767c90db3777c8E+0x1777>
    47ac:	0f 1f 40 00          	nopl   0x0(%rax)
    47b0:	48 89 74 24 40       	mov    %rsi,0x40(%rsp)
    47b5:	48 83 7c 24 78 07    	cmpq   $0x7,0x78(%rsp)
    47bb:	73 23                	jae    47e0 <_ZN13num_perf_demo4main17h1c767c90db3777c8E+0xde0>
    47bd:	c5 d9 57 e4          	vxorpd %xmm4,%xmm4,%xmm4
    47c1:	31 c9                	xor    %ecx,%ecx
    47c3:	4d 85 ff             	test   %r15,%r15
    47c6:	0f 85 83 01 00 00    	jne    494f <_ZN13num_perf_demo4main17h1c767c90db3777c8E+0xf4f>
    47cc:	e9 bd 01 00 00       	jmpq   498e <_ZN13num_perf_demo4main17h1c767c90db3777c8E+0xf8e>
    47d1:	66 2e 0f 1f 84 00 00 	nopw   %cs:0x0(%rax,%rax,1)
    47d8:	00 00 00 
    47db:	0f 1f 44 00 00       	nopl   0x0(%rax,%rax,1)
    47e0:	c5 d8 57 e4          	vxorps %xmm4,%xmm4,%xmm4
    47e4:	31 c9                	xor    %ecx,%ecx
    47e6:	66 2e 0f 1f 84 00 00 	nopw   %cs:0x0(%rax,%rax,1)
    47ed:	00 00 00 
                self,
                index: usize,
                new_value: $elem_ty,
            ) -> Self {
                use crate::llvm::simd_insert;
                Simd(simd_insert(self.0, index as u32, new_value as $ielem_ty))
    47f0:	41 8d 34 0b          	lea    (%r11,%rcx,1),%esi
    47f4:	83 c6 04             	add    $0x4,%esi
    47f7:	c5 fc 29 a4 24 80 05 	vmovaps %ymm4,0x580(%rsp)
    47fe:	00 00 
    4800:	83 e6 03             	and    $0x3,%esi
                *self.get_unchecked(offset)
    4803:	c5 fb 10 1c cf       	vmovsd (%rdi,%rcx,8),%xmm3
    4808:	c5 fb 10 64 cf 08    	vmovsd 0x8(%rdi,%rcx,8),%xmm4
    480e:	c5 fb 11 9c f4 80 05 	vmovsd %xmm3,0x580(%rsp,%rsi,8)
    4815:	00 00 
    4817:	c5 fc 28 9c 24 80 05 	vmovaps 0x580(%rsp),%ymm3
    481e:	00 00 
    4820:	c5 fc 29 9c 24 a0 05 	vmovaps %ymm3,0x5a0(%rsp)
    4827:	00 00 
    4829:	41 8d 34 0b          	lea    (%r11,%rcx,1),%esi
    482d:	83 c6 05             	add    $0x5,%esi
    4830:	83 e6 03             	and    $0x3,%esi
    4833:	c5 fb 11 a4 f4 a0 05 	vmovsd %xmm4,0x5a0(%rsp,%rsi,8)
    483a:	00 00 
    483c:	c5 fc 28 9c 24 a0 05 	vmovaps 0x5a0(%rsp),%ymm3
    4843:	00 00 
    4845:	c5 fb 10 64 cf 10    	vmovsd 0x10(%rdi,%rcx,8),%xmm4
    484b:	41 8d 34 0b          	lea    (%r11,%rcx,1),%esi
    484f:	83 c6 06             	add    $0x6,%esi
    4852:	c5 fc 29 9c 24 c0 05 	vmovaps %ymm3,0x5c0(%rsp)
    4859:	00 00 
    485b:	83 e6 03             	and    $0x3,%esi
    485e:	c5 fb 11 a4 f4 c0 05 	vmovsd %xmm4,0x5c0(%rsp,%rsi,8)
    4865:	00 00 
    4867:	c5 fc 28 9c 24 c0 05 	vmovaps 0x5c0(%rsp),%ymm3
    486e:	00 00 
    4870:	c5 fb 10 64 cf 18    	vmovsd 0x18(%rdi,%rcx,8),%xmm4
    4876:	41 8d 34 0b          	lea    (%r11,%rcx,1),%esi
    487a:	83 c6 ff             	add    $0xffffffff,%esi
    487d:	c5 fc 29 9c 24 e0 05 	vmovaps %ymm3,0x5e0(%rsp)
    4884:	00 00 
    4886:	83 e6 03             	and    $0x3,%esi
    4889:	c5 fb 11 a4 f4 e0 05 	vmovsd %xmm4,0x5e0(%rsp,%rsi,8)
    4890:	00 00 
    4892:	c5 fc 28 9c 24 e0 05 	vmovaps 0x5e0(%rsp),%ymm3
    4899:	00 00 
    489b:	c5 fb 10 64 cf 20    	vmovsd 0x20(%rdi,%rcx,8),%xmm4
    48a1:	c5 fc 29 9c 24 00 06 	vmovaps %ymm3,0x600(%rsp)
    48a8:	00 00 
    48aa:	41 8d 1c 0b          	lea    (%r11,%rcx,1),%ebx
    48ae:	83 c3 08             	add    $0x8,%ebx
    48b1:	83 e3 03             	and    $0x3,%ebx
    48b4:	c5 fb 11 a4 dc 00 06 	vmovsd %xmm4,0x600(%rsp,%rbx,8)
    48bb:	00 00 
    48bd:	c5 fc 28 9c 24 00 06 	vmovaps 0x600(%rsp),%ymm3
    48c4:	00 00 
    48c6:	c5 fb 10 64 cf 28    	vmovsd 0x28(%rdi,%rcx,8),%xmm4
    48cc:	41 8d 1c 0b          	lea    (%r11,%rcx,1),%ebx
    48d0:	83 c3 09             	add    $0x9,%ebx
    48d3:	c5 fc 29 9c 24 20 06 	vmovaps %ymm3,0x620(%rsp)
    48da:	00 00 
    48dc:	83 e3 03             	and    $0x3,%ebx
    48df:	c5 fb 11 a4 dc 20 06 	vmovsd %xmm4,0x620(%rsp,%rbx,8)
    48e6:	00 00 
    48e8:	c5 fc 28 9c 24 20 06 	vmovaps 0x620(%rsp),%ymm3
    48ef:	00 00 
    48f1:	c5 fb 10 64 cf 30    	vmovsd 0x30(%rdi,%rcx,8),%xmm4
    48f7:	41 8d 1c 0b          	lea    (%r11,%rcx,1),%ebx
    48fb:	83 c3 0a             	add    $0xa,%ebx
    48fe:	c5 fc 29 9c 24 40 06 	vmovaps %ymm3,0x640(%rsp)
    4905:	00 00 
    4907:	83 e3 03             	and    $0x3,%ebx
    490a:	c5 fb 11 a4 dc 40 06 	vmovsd %xmm4,0x640(%rsp,%rbx,8)
    4911:	00 00 
    4913:	c5 fd 28 9c 24 40 06 	vmovapd 0x640(%rsp),%ymm3
    491a:	00 00 
    491c:	c5 fb 10 64 cf 38    	vmovsd 0x38(%rdi,%rcx,8),%xmm4
    4922:	48 83 c1 08          	add    $0x8,%rcx
    4926:	c5 fd 29 9c 24 60 06 	vmovapd %ymm3,0x660(%rsp)
    492d:	00 00 
    492f:	c5 fb 11 a4 f4 60 06 	vmovsd %xmm4,0x660(%rsp,%rsi,8)
    4936:	00 00 
    4938:	c5 fd 28 a4 24 60 06 	vmovapd 0x660(%rsp),%ymm4
    493f:	00 00 
    4941:	49 39 cd             	cmp    %rcx,%r13
    4944:	0f 85 a6 fe ff ff    	jne    47f0 <_ZN13num_perf_demo4main17h1c767c90db3777c8E+0xdf0>
    494a:	4d 85 ff             	test   %r15,%r15
    494d:	74 3f                	je     498e <_ZN13num_perf_demo4main17h1c767c90db3777c8E+0xf8e>
    494f:	48 8d 34 cf          	lea    (%rdi,%rcx,8),%rsi
    4953:	03 8c 24 f4 00 00 00 	add    0xf4(%rsp),%ecx
    495a:	31 db                	xor    %ebx,%ebx
    495c:	0f 1f 40 00          	nopl   0x0(%rax)
    4960:	c5 fb 10 1c de       	vmovsd (%rsi,%rbx,8),%xmm3
    4965:	8d 04 19             	lea    (%rcx,%rbx,1),%eax
    4968:	c5 fd 29 a4 24 60 05 	vmovapd %ymm4,0x560(%rsp)
    496f:	00 00 
    4971:	83 e0 03             	and    $0x3,%eax
    4974:	c5 fb 11 9c c4 60 05 	vmovsd %xmm3,0x560(%rsp,%rax,8)
    497b:	00 00 
    497d:	c5 fd 28 a4 24 60 05 	vmovapd 0x560(%rsp),%ymm4
    4984:	00 00 
    4986:	48 ff c3             	inc    %rbx
    4989:	49 39 df             	cmp    %rbx,%r15
    498c:	75 d2                	jne    4960 <_ZN13num_perf_demo4main17h1c767c90db3777c8E+0xf60>
    498e:	48 83 7c 24 78 07    	cmpq   $0x7,0x78(%rsp)
    4994:	73 1a                	jae    49b0 <_ZN13num_perf_demo4main17h1c767c90db3777c8E+0xfb0>
    4996:	c5 d1 57 ed          	vxorpd %xmm5,%xmm5,%xmm5
    499a:	31 c9                	xor    %ecx,%ecx
    499c:	4d 85 ff             	test   %r15,%r15
    499f:	0f 85 7e 01 00 00    	jne    4b23 <_ZN13num_perf_demo4main17h1c767c90db3777c8E+0x1123>
    49a5:	e9 26 fd ff ff       	jmpq   46d0 <_ZN13num_perf_demo4main17h1c767c90db3777c8E+0xcd0>
    49aa:	66 0f 1f 44 00 00    	nopw   0x0(%rax,%rax,1)
    49b0:	c5 d0 57 ed          	vxorps %xmm5,%xmm5,%xmm5
    49b4:	31 c9                	xor    %ecx,%ecx
    49b6:	66 2e 0f 1f 84 00 00 	nopw   %cs:0x0(%rax,%rax,1)
    49bd:	00 00 00 
    49c0:	41 8d 04 0b          	lea    (%r11,%rcx,1),%eax
    49c4:	83 c0 04             	add    $0x4,%eax
    49c7:	c5 fc 29 ac 24 60 04 	vmovaps %ymm5,0x460(%rsp)
    49ce:	00 00 
    49d0:	83 e0 03             	and    $0x3,%eax
    49d3:	c5 fb 10 5c ca c8    	vmovsd -0x38(%rdx,%rcx,8),%xmm3
    49d9:	c5 fb 10 6c ca d0    	vmovsd -0x30(%rdx,%rcx,8),%xmm5
    49df:	c5 fb 11 9c c4 60 04 	vmovsd %xmm3,0x460(%rsp,%rax,8)
    49e6:	00 00 
    49e8:	c5 fc 28 9c 24 60 04 	vmovaps 0x460(%rsp),%ymm3
    49ef:	00 00 
    49f1:	c5 fc 29 9c 24 80 04 	vmovaps %ymm3,0x480(%rsp)
    49f8:	00 00 
    49fa:	41 8d 04 0b          	lea    (%r11,%rcx,1),%eax
    49fe:	83 c0 05             	add    $0x5,%eax
    4a01:	83 e0 03             	and    $0x3,%eax
    4a04:	c5 fb 11 ac c4 80 04 	vmovsd %xmm5,0x480(%rsp,%rax,8)
    4a0b:	00 00 
    4a0d:	c5 fc 28 9c 24 80 04 	vmovaps 0x480(%rsp),%ymm3
    4a14:	00 00 
    4a16:	c5 fb 10 6c ca d8    	vmovsd -0x28(%rdx,%rcx,8),%xmm5
    4a1c:	41 8d 04 0b          	lea    (%r11,%rcx,1),%eax
    4a20:	83 c0 06             	add    $0x6,%eax
    4a23:	c5 fc 29 9c 24 a0 04 	vmovaps %ymm3,0x4a0(%rsp)
    4a2a:	00 00 
    4a2c:	83 e0 03             	and    $0x3,%eax
    4a2f:	c5 fb 11 ac c4 a0 04 	vmovsd %xmm5,0x4a0(%rsp,%rax,8)
    4a36:	00 00 
    4a38:	c5 fc 28 9c 24 a0 04 	vmovaps 0x4a0(%rsp),%ymm3
    4a3f:	00 00 
    4a41:	c5 fb 10 6c ca e0    	vmovsd -0x20(%rdx,%rcx,8),%xmm5
    4a47:	41 8d 34 0b          	lea    (%r11,%rcx,1),%esi
    4a4b:	83 c6 ff             	add    $0xffffffff,%esi
    4a4e:	c5 fc 29 9c 24 c0 04 	vmovaps %ymm3,0x4c0(%rsp)
    4a55:	00 00 
    4a57:	83 e6 03             	and    $0x3,%esi
    4a5a:	c5 fb 11 ac f4 c0 04 	vmovsd %xmm5,0x4c0(%rsp,%rsi,8)
    4a61:	00 00 
    4a63:	c5 fc 28 9c 24 c0 04 	vmovaps 0x4c0(%rsp),%ymm3
    4a6a:	00 00 
    4a6c:	c5 fb 10 6c ca e8    	vmovsd -0x18(%rdx,%rcx,8),%xmm5
    4a72:	c5 fc 29 9c 24 e0 04 	vmovaps %ymm3,0x4e0(%rsp)
    4a79:	00 00 
    4a7b:	41 8d 04 0b          	lea    (%r11,%rcx,1),%eax
    4a7f:	83 c0 08             	add    $0x8,%eax
    4a82:	83 e0 03             	and    $0x3,%eax
    4a85:	c5 fb 11 ac c4 e0 04 	vmovsd %xmm5,0x4e0(%rsp,%rax,8)
    4a8c:	00 00 
    4a8e:	c5 fc 28 9c 24 e0 04 	vmovaps 0x4e0(%rsp),%ymm3
    4a95:	00 00 
    4a97:	c5 fb 10 6c ca f0    	vmovsd -0x10(%rdx,%rcx,8),%xmm5
    4a9d:	41 8d 04 0b          	lea    (%r11,%rcx,1),%eax
    4aa1:	83 c0 09             	add    $0x9,%eax
    4aa4:	c5 fc 29 9c 24 00 05 	vmovaps %ymm3,0x500(%rsp)
    4aab:	00 00 
    4aad:	83 e0 03             	and    $0x3,%eax
    4ab0:	c5 fb 11 ac c4 00 05 	vmovsd %xmm5,0x500(%rsp,%rax,8)
    4ab7:	00 00 
    4ab9:	c5 fc 28 9c 24 00 05 	vmovaps 0x500(%rsp),%ymm3
    4ac0:	00 00 
    4ac2:	c5 fb 10 6c ca f8    	vmovsd -0x8(%rdx,%rcx,8),%xmm5
    4ac8:	41 8d 04 0b          	lea    (%r11,%rcx,1),%eax
    4acc:	83 c0 0a             	add    $0xa,%eax
    4acf:	c5 fc 29 9c 24 20 05 	vmovaps %ymm3,0x520(%rsp)
    4ad6:	00 00 
    4ad8:	83 e0 03             	and    $0x3,%eax
    4adb:	c5 fb 11 ac c4 20 05 	vmovsd %xmm5,0x520(%rsp,%rax,8)
    4ae2:	00 00 
    4ae4:	c5 fd 28 9c 24 20 05 	vmovapd 0x520(%rsp),%ymm3
    4aeb:	00 00 
    4aed:	c5 fb 10 2c ca       	vmovsd (%rdx,%rcx,8),%xmm5
    4af2:	48 83 c1 08          	add    $0x8,%rcx
    4af6:	c5 fd 29 9c 24 40 05 	vmovapd %ymm3,0x540(%rsp)
    4afd:	00 00 
    4aff:	c5 fb 11 ac f4 40 05 	vmovsd %xmm5,0x540(%rsp,%rsi,8)
    4b06:	00 00 
    4b08:	c5 fd 28 ac 24 40 05 	vmovapd 0x540(%rsp),%ymm5
    4b0f:	00 00 
    4b11:	49 39 cd             	cmp    %rcx,%r13
    4b14:	0f 85 a6 fe ff ff    	jne    49c0 <_ZN13num_perf_demo4main17h1c767c90db3777c8E+0xfc0>
    4b1a:	4d 85 ff             	test   %r15,%r15
    4b1d:	0f 84 ad fb ff ff    	je     46d0 <_ZN13num_perf_demo4main17h1c767c90db3777c8E+0xcd0>
    4b23:	49 8d 34 ca          	lea    (%r10,%rcx,8),%rsi
    4b27:	03 8c 24 f4 00 00 00 	add    0xf4(%rsp),%ecx
    4b2e:	31 db                	xor    %ebx,%ebx
    4b30:	c5 fb 10 1c de       	vmovsd (%rsi,%rbx,8),%xmm3
    4b35:	8d 04 19             	lea    (%rcx,%rbx,1),%eax
    4b38:	c5 fd 29 ac 24 40 04 	vmovapd %ymm5,0x440(%rsp)
    4b3f:	00 00 
    4b41:	83 e0 03             	and    $0x3,%eax
    4b44:	c5 fb 11 9c c4 40 04 	vmovsd %xmm3,0x440(%rsp,%rax,8)
    4b4b:	00 00 
    4b4d:	c5 fd 28 ac 24 40 04 	vmovapd 0x440(%rsp),%ymm5
    4b54:	00 00 
    4b56:	48 ff c3             	inc    %rbx
    4b59:	49 39 df             	cmp    %rbx,%r15
    4b5c:	75 d2                	jne    4b30 <_ZN13num_perf_demo4main17h1c767c90db3777c8E+0x1130>
    4b5e:	e9 6d fb ff ff       	jmpq   46d0 <_ZN13num_perf_demo4main17h1c767c90db3777c8E+0xcd0>
    4b63:	66 2e 0f 1f 84 00 00 	nopw   %cs:0x0(%rax,%rax,1)
    4b6a:	00 00 00 
    4b6d:	0f 1f 00             	nopl   (%rax)
    4b70:	4c 8b 84 24 90 01 00 	mov    0x190(%rsp),%r8
    4b77:	00 
    4b78:	31 c0                	xor    %eax,%eax
    4b7a:	eb 7d                	jmp    4bf9 <_ZN13num_perf_demo4main17h1c767c90db3777c8E+0x11f9>
    4b7c:	0f 1f 40 00          	nopl   0x0(%rax)
    4b80:	4c 8b b4 24 e8 00 00 	mov    0xe8(%rsp),%r14
    4b87:	00 
    4b88:	4c 8b bc 24 00 01 00 	mov    0x100(%rsp),%r15
    4b8f:	00 
    4b90:	4c 8b ac 24 08 01 00 	mov    0x108(%rsp),%r13
    4b97:	00 
    4b98:	4c 8b 8c 24 e0 00 00 	mov    0xe0(%rsp),%r9
    4b9f:	00 
    4ba0:	48 8b 74 24 40       	mov    0x40(%rsp),%rsi
    4ba5:	4c 8b 84 24 d0 00 00 	mov    0xd0(%rsp),%r8
    4bac:	00 
    4bad:	48 03 74 24 30       	add    0x30(%rsp),%rsi
    4bb2:	48 39 74 24 58       	cmp    %rsi,0x58(%rsp)
    4bb7:	0f 86 ba 05 00 00    	jbe    5177 <_ZN13num_perf_demo4main17h1c767c90db3777c8E+0x1777>
    4bbd:	c5 db 58 da          	vaddsd %xmm2,%xmm4,%xmm3
    4bc1:	c4 e3 79 05 ec 01    	vpermilpd $0x1,%xmm4,%xmm5
    4bc7:	c5 e3 58 dd          	vaddsd %xmm5,%xmm3,%xmm3
    4bcb:	c4 e3 7d 19 e4 01    	vextractf128 $0x1,%ymm4,%xmm4
    4bd1:	c5 e3 58 dc          	vaddsd %xmm4,%xmm3,%xmm3
    4bd5:	c4 e3 79 05 e4 01    	vpermilpd $0x1,%xmm4,%xmm4
    4bdb:	c5 e3 58 dc          	vaddsd %xmm4,%xmm3,%xmm3
    4bdf:	c4 c1 7b 11 1c f1    	vmovsd %xmm3,(%r9,%rsi,8)
    4be5:	4d 01 f0             	add    %r14,%r8
    4be8:	48 8b 84 24 10 01 00 	mov    0x110(%rsp),%rax
    4bef:	00 
    4bf0:	4c 39 e0             	cmp    %r12,%rax
    4bf3:	0f 84 c7 f7 ff ff    	je     43c0 <_ZN13num_perf_demo4main17h1c767c90db3777c8E+0x9c0>
            let ni = i * n;
    4bf9:	48 89 c2             	mov    %rax,%rdx
    4bfc:	49 0f af d4          	imul   %r12,%rdx
                A[ni .. (ni + n)].simd_iter(f64s(0.0)),
    4c00:	48 89 d1             	mov    %rdx,%rcx
    4c03:	4c 01 e1             	add    %r12,%rcx
    4c06:	0f 82 48 0e 00 00    	jb     5a54 <_ZN13num_perf_demo4main17h1c767c90db3777c8E+0x2054>
    4c0c:	48 39 8c 24 d8 00 00 	cmp    %rcx,0xd8(%rsp)
    4c13:	00 
    4c14:	0f 82 1d 0e 00 00    	jb     5a37 <_ZN13num_perf_demo4main17h1c767c90db3777c8E+0x2037>
    4c1a:	48 ff c0             	inc    %rax
    4c1d:	48 89 84 24 10 01 00 	mov    %rax,0x110(%rsp)
    4c24:	00 
    4c25:	48 8b 84 24 a8 00 00 	mov    0xa8(%rsp),%rax
    4c2c:	00 
    4c2d:	48 89 54 24 40       	mov    %rdx,0x40(%rsp)
    4c32:	4c 8d 14 d0          	lea    (%rax,%rdx,8),%r10
    4c36:	bb 04 00 00 00       	mov    $0x4,%ebx
    4c3b:	c5 d9 57 e4          	vxorpd %xmm4,%xmm4,%xmm4
    4c3f:	4c 89 84 24 d0 00 00 	mov    %r8,0xd0(%rsp)
    4c46:	00 
    4c47:	4c 89 c6             	mov    %r8,%rsi
    4c4a:	45 89 de             	mov    %r11d,%r14d
    4c4d:	8b 94 24 1c 01 00 00 	mov    0x11c(%rsp),%edx
    4c54:	48 8b 84 24 b8 01 00 	mov    0x1b8(%rsp),%rax
    4c5b:	00 
    4c5c:	31 c9                	xor    %ecx,%ecx
    4c5e:	66 90                	xchg   %ax,%ax
    4c60:	4c 39 e1             	cmp    %r12,%rcx
    4c63:	0f 87 bb 0d 00 00    	ja     5a24 <_ZN13num_perf_demo4main17h1c767c90db3777c8E+0x2024>
    4c69:	49 89 d8             	mov    %rbx,%r8
    4c6c:	49 89 c7             	mov    %rax,%r15
    4c6f:	41 89 d1             	mov    %edx,%r9d
    4c72:	49 89 f5             	mov    %rsi,%r13
    4c75:	c5 fd 10 1c cf       	vmovupd (%rdi,%rcx,8),%ymm3
                unsafe { Simd(simd_mul(self.0, other.0)) }
    4c7a:	c4 c1 65 59 1c ca    	vmulpd (%r10,%rcx,8),%ymm3,%ymm3
                unsafe { Simd(simd_add(self.0, other.0)) }
    4c80:	c5 dd 58 e3          	vaddpd %ymm3,%ymm4,%ymm4
        if self.position + self.width() <= self.scalar_len() {
    4c84:	48 83 c3 04          	add    $0x4,%rbx
    4c88:	48 83 c0 20          	add    $0x20,%rax
    4c8c:	41 8d 51 08          	lea    0x8(%r9),%edx
    4c90:	41 83 c6 04          	add    $0x4,%r14d
    4c94:	48 83 c6 20          	add    $0x20,%rsi
    4c98:	4c 89 c1             	mov    %r8,%rcx
    4c9b:	4c 39 e3             	cmp    %r12,%rbx
    4c9e:	76 c0                	jbe    4c60 <_ZN13num_perf_demo4main17h1c767c90db3777c8E+0x1260>
        if self.scalar_pos() < self.scalar_len() {
    4ca0:	4c 89 c0             	mov    %r8,%rax
    4ca3:	4c 29 e0             	sub    %r12,%rax
    4ca6:	0f 83 d4 fe ff ff    	jae    4b80 <_ZN13num_perf_demo4main17h1c767c90db3777c8E+0x1180>
    4cac:	49 83 fc 04          	cmp    $0x4,%r12
    4cb0:	48 8b 74 24 40       	mov    0x40(%rsp),%rsi
            if self.width() < self.scalar_len() {
    4cb5:	76 69                	jbe    4d20 <_ZN13num_perf_demo4main17h1c767c90db3777c8E+0x1320>

            #[inline(always)]
            fn partition_mask(off: usize) -> Self {
                debug_assert!(off <= Self::WIDTH);
                debug_assert!(off * Self::Scalar::SIZE <= 64);
                Self::load(unsafe { transmute(&PART_MASK[..]) }, 64 / Self::Scalar::SIZE - off)
    4cb7:	b9 04 00 00 00       	mov    $0x4,%ecx
    4cbc:	48 29 c1             	sub    %rax,%rcx
    4cbf:	48 81 f9 81 00 00 00 	cmp    $0x81,%rcx
    4cc6:	4c 8b ac 24 08 01 00 	mov    0x108(%rsp),%r13
    4ccd:	00 
    4cce:	0f 83 93 0d 00 00    	jae    5a67 <_ZN13num_perf_demo4main17h1c767c90db3777c8E+0x2067>
    4cd4:	48 83 f9 7d          	cmp    $0x7d,%rcx
    4cd8:	4c 8b b4 24 e8 00 00 	mov    0xe8(%rsp),%r14
    4cdf:	00 
    4ce0:	4c 8b bc 24 00 01 00 	mov    0x100(%rsp),%r15
    4ce7:	00 
    4ce8:	4c 8b 8c 24 e0 00 00 	mov    0xe0(%rsp),%r9
    4cef:	00 
    4cf0:	4c 8b 84 24 d0 00 00 	mov    0xd0(%rsp),%r8
    4cf7:	00 
    4cf8:	0f 83 7e 0d 00 00    	jae    5a7c <_ZN13num_perf_demo4main17h1c767c90db3777c8E+0x207c>
    4cfe:	48 8d 05 bb b5 02 00 	lea    0x2b5bb(%rip),%rax        # 302c0 <_ZN4core7unicode12unicode_data2cc6BITSET17h5201257bcf8f09faE+0x60>
    4d05:	c5 fe 6f 1c c8       	vmovdqu (%rax,%rcx,8),%ymm3
    4d0a:	c4 a3 75 4c 6c e7 e0 	vpblendvb %ymm3,-0x20(%rdi,%r12,8),%ymm1,%ymm5
    4d11:	30 
    4d12:	c4 83 75 4c 74 e2 e0 	vpblendvb %ymm3,-0x20(%r10,%r12,8),%ymm1,%ymm6
    4d19:	30 
    4d1a:	e9 40 04 00 00       	jmpq   515f <_ZN13num_perf_demo4main17h1c767c90db3777c8E+0x175f>
    4d1f:	90                   	nop
    4d20:	44 89 e2             	mov    %r12d,%edx
    4d23:	44 29 c2             	sub    %r8d,%edx
    4d26:	4c 89 c3             	mov    %r8,%rbx
    4d29:	48 f7 d3             	not    %rbx
    4d2c:	4c 01 e3             	add    %r12,%rbx
    4d2f:	48 83 e2 07          	and    $0x7,%rdx
    4d33:	48 89 94 24 b0 01 00 	mov    %rdx,0x1b0(%rsp)
    4d3a:	00 
    4d3b:	74 55                	je     4d92 <_ZN13num_perf_demo4main17h1c767c90db3777c8E+0x1392>
    4d3d:	49 89 da             	mov    %rbx,%r10
    4d40:	c5 d0 57 ed          	vxorps %xmm5,%xmm5,%xmm5
    4d44:	44 89 c9             	mov    %r9d,%ecx
    4d47:	48 89 d3             	mov    %rdx,%rbx
    4d4a:	66 0f 1f 44 00 00    	nopw   0x0(%rax,%rax,1)
                *self.get_unchecked(offset)
    4d50:	c4 c1 7b 10 1f       	vmovsd (%r15),%xmm3
    4d55:	c5 fc 29 ac 24 a0 08 	vmovaps %ymm5,0x8a0(%rsp)
    4d5c:	00 00 
    4d5e:	89 c8                	mov    %ecx,%eax
    4d60:	83 e0 03             	and    $0x3,%eax
    4d63:	c5 fb 11 9c c4 a0 08 	vmovsd %xmm3,0x8a0(%rsp,%rax,8)
    4d6a:	00 00 
    4d6c:	c5 fd 6f ac 24 a0 08 	vmovdqa 0x8a0(%rsp),%ymm5
    4d73:	00 00 
    4d75:	49 83 c7 08          	add    $0x8,%r15
    4d79:	ff c1                	inc    %ecx
    4d7b:	48 ff cb             	dec    %rbx
    4d7e:	75 d0                	jne    4d50 <_ZN13num_perf_demo4main17h1c767c90db3777c8E+0x1350>
    4d80:	49 8d 0c 10          	lea    (%r8,%rdx,1),%rcx
    4d84:	4c 89 d3             	mov    %r10,%rbx
    4d87:	48 83 fb 07          	cmp    $0x7,%rbx
    4d8b:	73 16                	jae    4da3 <_ZN13num_perf_demo4main17h1c767c90db3777c8E+0x13a3>
    4d8d:	e9 90 01 00 00       	jmpq   4f22 <_ZN13num_perf_demo4main17h1c767c90db3777c8E+0x1522>
    4d92:	c5 d1 ef ed          	vpxor  %xmm5,%xmm5,%xmm5
    4d96:	4c 89 c1             	mov    %r8,%rcx
    4d99:	48 83 fb 07          	cmp    $0x7,%rbx
    4d9d:	0f 82 7f 01 00 00    	jb     4f22 <_ZN13num_perf_demo4main17h1c767c90db3777c8E+0x1522>
    4da3:	4c 8b 94 24 c8 00 00 	mov    0xc8(%rsp),%r10
    4daa:	00 
    4dab:	49 29 ca             	sub    %rcx,%r10
    4dae:	48 8b 84 24 a8 01 00 	mov    0x1a8(%rsp),%rax
    4db5:	00 
    4db6:	4c 8d 3c c8          	lea    (%rax,%rcx,8),%r15
    4dba:	44 01 f1             	add    %r14d,%ecx
    4dbd:	45 31 e4             	xor    %r12d,%r12d
    4dc0:	42 8d 04 21          	lea    (%rcx,%r12,1),%eax
    4dc4:	83 c0 04             	add    $0x4,%eax
    4dc7:	c5 fd 7f ac 24 a0 07 	vmovdqa %ymm5,0x7a0(%rsp)
    4dce:	00 00 
    4dd0:	83 e0 03             	and    $0x3,%eax
    4dd3:	c4 81 7b 10 5c e7 c8 	vmovsd -0x38(%r15,%r12,8),%xmm3
    4dda:	c4 81 7b 10 6c e7 d0 	vmovsd -0x30(%r15,%r12,8),%xmm5
    4de1:	c5 fb 11 9c c4 a0 07 	vmovsd %xmm3,0x7a0(%rsp,%rax,8)
    4de8:	00 00 
    4dea:	c5 fc 28 9c 24 a0 07 	vmovaps 0x7a0(%rsp),%ymm3
    4df1:	00 00 
    4df3:	c5 fc 29 9c 24 c0 07 	vmovaps %ymm3,0x7c0(%rsp)
    4dfa:	00 00 
    4dfc:	42 8d 04 21          	lea    (%rcx,%r12,1),%eax
    4e00:	83 c0 05             	add    $0x5,%eax
    4e03:	83 e0 03             	and    $0x3,%eax
    4e06:	c5 fb 11 ac c4 c0 07 	vmovsd %xmm5,0x7c0(%rsp,%rax,8)
    4e0d:	00 00 
    4e0f:	c5 fc 28 9c 24 c0 07 	vmovaps 0x7c0(%rsp),%ymm3
    4e16:	00 00 
    4e18:	c4 81 7b 10 6c e7 d8 	vmovsd -0x28(%r15,%r12,8),%xmm5
    4e1f:	42 8d 04 21          	lea    (%rcx,%r12,1),%eax
    4e23:	83 c0 06             	add    $0x6,%eax
    4e26:	c5 fc 29 9c 24 e0 07 	vmovaps %ymm3,0x7e0(%rsp)
    4e2d:	00 00 
    4e2f:	83 e0 03             	and    $0x3,%eax
    4e32:	c5 fb 11 ac c4 e0 07 	vmovsd %xmm5,0x7e0(%rsp,%rax,8)
    4e39:	00 00 
    4e3b:	c5 fc 28 9c 24 e0 07 	vmovaps 0x7e0(%rsp),%ymm3
    4e42:	00 00 
    4e44:	c4 81 7b 10 6c e7 e0 	vmovsd -0x20(%r15,%r12,8),%xmm5
    4e4b:	42 8d 04 21          	lea    (%rcx,%r12,1),%eax
    4e4f:	83 c0 ff             	add    $0xffffffff,%eax
    4e52:	c5 fc 29 9c 24 00 08 	vmovaps %ymm3,0x800(%rsp)
    4e59:	00 00 
    4e5b:	83 e0 03             	and    $0x3,%eax
    4e5e:	c5 fb 11 ac c4 00 08 	vmovsd %xmm5,0x800(%rsp,%rax,8)
    4e65:	00 00 
    4e67:	c5 fc 28 9c 24 00 08 	vmovaps 0x800(%rsp),%ymm3
    4e6e:	00 00 
    4e70:	c4 81 7b 10 6c e7 e8 	vmovsd -0x18(%r15,%r12,8),%xmm5
    4e77:	c5 fc 29 9c 24 20 08 	vmovaps %ymm3,0x820(%rsp)
    4e7e:	00 00 
    4e80:	42 8d 14 21          	lea    (%rcx,%r12,1),%edx
    4e84:	83 c2 08             	add    $0x8,%edx
    4e87:	83 e2 03             	and    $0x3,%edx
    4e8a:	c5 fb 11 ac d4 20 08 	vmovsd %xmm5,0x820(%rsp,%rdx,8)
    4e91:	00 00 
    4e93:	c5 fc 28 9c 24 20 08 	vmovaps 0x820(%rsp),%ymm3
    4e9a:	00 00 
    4e9c:	c4 81 7b 10 6c e7 f0 	vmovsd -0x10(%r15,%r12,8),%xmm5
    4ea3:	42 8d 14 21          	lea    (%rcx,%r12,1),%edx
    4ea7:	83 c2 09             	add    $0x9,%edx
    4eaa:	c5 fc 29 9c 24 40 08 	vmovaps %ymm3,0x840(%rsp)
    4eb1:	00 00 
    4eb3:	83 e2 03             	and    $0x3,%edx
    4eb6:	c5 fb 11 ac d4 40 08 	vmovsd %xmm5,0x840(%rsp,%rdx,8)
    4ebd:	00 00 
    4ebf:	c5 fc 28 9c 24 40 08 	vmovaps 0x840(%rsp),%ymm3
    4ec6:	00 00 
    4ec8:	c4 81 7b 10 6c e7 f8 	vmovsd -0x8(%r15,%r12,8),%xmm5
    4ecf:	42 8d 14 21          	lea    (%rcx,%r12,1),%edx
    4ed3:	83 c2 0a             	add    $0xa,%edx
    4ed6:	c5 fc 29 9c 24 60 08 	vmovaps %ymm3,0x860(%rsp)
    4edd:	00 00 
    4edf:	83 e2 03             	and    $0x3,%edx
    4ee2:	c5 fb 11 ac d4 60 08 	vmovsd %xmm5,0x860(%rsp,%rdx,8)
    4ee9:	00 00 
    4eeb:	c5 fd 28 9c 24 60 08 	vmovapd 0x860(%rsp),%ymm3
    4ef2:	00 00 
    4ef4:	c4 81 7b 10 2c e7    	vmovsd (%r15,%r12,8),%xmm5
    4efa:	c5 fd 29 9c 24 80 08 	vmovapd %ymm3,0x880(%rsp)
    4f01:	00 00 
    4f03:	c5 fb 11 ac c4 80 08 	vmovsd %xmm5,0x880(%rsp,%rax,8)
    4f0a:	00 00 
    4f0c:	c5 fd 6f ac 24 80 08 	vmovdqa 0x880(%rsp),%ymm5
    4f13:	00 00 
    4f15:	49 83 c4 08          	add    $0x8,%r12
    4f19:	4d 39 e2             	cmp    %r12,%r10
    4f1c:	0f 85 9e fe ff ff    	jne    4dc0 <_ZN13num_perf_demo4main17h1c767c90db3777c8E+0x13c0>
    4f22:	48 8b 94 24 b0 01 00 	mov    0x1b0(%rsp),%rdx
    4f29:	00 
    4f2a:	c5 c9 ef f6          	vpxor  %xmm6,%xmm6,%xmm6
    4f2e:	48 85 d2             	test   %rdx,%rdx
    4f31:	74 7e                	je     4fb1 <_ZN13num_perf_demo4main17h1c767c90db3777c8E+0x15b1>
    4f33:	48 89 d0             	mov    %rdx,%rax
    4f36:	4c 8b a4 24 c8 00 00 	mov    0xc8(%rsp),%r12
    4f3d:	00 
    4f3e:	4c 8b bc 24 00 01 00 	mov    0x100(%rsp),%r15
    4f45:	00 
    4f46:	66 2e 0f 1f 84 00 00 	nopw   %cs:0x0(%rax,%rax,1)
    4f4d:	00 00 00 
    4f50:	c4 c1 7b 10 5d 00    	vmovsd 0x0(%r13),%xmm3
    4f56:	c5 fd 7f b4 24 80 07 	vmovdqa %ymm6,0x780(%rsp)
    4f5d:	00 00 
    4f5f:	44 89 c9             	mov    %r9d,%ecx
    4f62:	83 e1 03             	and    $0x3,%ecx
    4f65:	c5 fb 11 9c cc 80 07 	vmovsd %xmm3,0x780(%rsp,%rcx,8)
    4f6c:	00 00 
    4f6e:	c5 fd 6f b4 24 80 07 	vmovdqa 0x780(%rsp),%ymm6
    4f75:	00 00 
    4f77:	49 83 c5 08          	add    $0x8,%r13
    4f7b:	41 ff c1             	inc    %r9d
    4f7e:	48 ff c8             	dec    %rax
    4f81:	75 cd                	jne    4f50 <_ZN13num_perf_demo4main17h1c767c90db3777c8E+0x1550>
    4f83:	49 01 d0             	add    %rdx,%r8
    4f86:	48 83 fb 07          	cmp    $0x7,%rbx
    4f8a:	4c 8b ac 24 08 01 00 	mov    0x108(%rsp),%r13
    4f91:	00 
    4f92:	73 3b                	jae    4fcf <_ZN13num_perf_demo4main17h1c767c90db3777c8E+0x15cf>
    4f94:	4c 8b b4 24 e8 00 00 	mov    0xe8(%rsp),%r14
    4f9b:	00 
    4f9c:	4c 8b 8c 24 e0 00 00 	mov    0xe0(%rsp),%r9
    4fa3:	00 
    4fa4:	4c 8b 84 24 d0 00 00 	mov    0xd0(%rsp),%r8
    4fab:	00 
    4fac:	e9 ae 01 00 00       	jmpq   515f <_ZN13num_perf_demo4main17h1c767c90db3777c8E+0x175f>
    4fb1:	4c 8b a4 24 c8 00 00 	mov    0xc8(%rsp),%r12
    4fb8:	00 
    4fb9:	4c 8b bc 24 00 01 00 	mov    0x100(%rsp),%r15
    4fc0:	00 
    4fc1:	48 83 fb 07          	cmp    $0x7,%rbx
    4fc5:	4c 8b ac 24 08 01 00 	mov    0x108(%rsp),%r13
    4fcc:	00 
    4fcd:	72 c5                	jb     4f94 <_ZN13num_perf_demo4main17h1c767c90db3777c8E+0x1594>
    4fcf:	4d 89 e1             	mov    %r12,%r9
    4fd2:	4d 29 c1             	sub    %r8,%r9
    4fd5:	45 01 c6             	add    %r8d,%r14d
    4fd8:	48 8b 84 24 d0 00 00 	mov    0xd0(%rsp),%rax
    4fdf:	00 
    4fe0:	4a 8d 34 c0          	lea    (%rax,%r8,8),%rsi
    4fe4:	49 89 c0             	mov    %rax,%r8
    4fe7:	31 c9                	xor    %ecx,%ecx
    4fe9:	0f 1f 80 00 00 00 00 	nopl   0x0(%rax)
    4ff0:	41 8d 04 0e          	lea    (%r14,%rcx,1),%eax
    4ff4:	83 c0 04             	add    $0x4,%eax
    4ff7:	c5 fd 7f b4 24 80 06 	vmovdqa %ymm6,0x680(%rsp)
    4ffe:	00 00 
    5000:	83 e0 03             	and    $0x3,%eax
    5003:	c5 fb 10 5c ce e0    	vmovsd -0x20(%rsi,%rcx,8),%xmm3
    5009:	c5 fb 10 74 ce e8    	vmovsd -0x18(%rsi,%rcx,8),%xmm6
    500f:	c5 fb 11 9c c4 80 06 	vmovsd %xmm3,0x680(%rsp,%rax,8)
    5016:	00 00 
    5018:	c5 fc 28 9c 24 80 06 	vmovaps 0x680(%rsp),%ymm3
    501f:	00 00 
    5021:	c5 fc 29 9c 24 a0 06 	vmovaps %ymm3,0x6a0(%rsp)
    5028:	00 00 
    502a:	41 8d 04 0e          	lea    (%r14,%rcx,1),%eax
    502e:	83 c0 05             	add    $0x5,%eax
    5031:	83 e0 03             	and    $0x3,%eax
    5034:	c5 fb 11 b4 c4 a0 06 	vmovsd %xmm6,0x6a0(%rsp,%rax,8)
    503b:	00 00 
    503d:	c5 fc 28 9c 24 a0 06 	vmovaps 0x6a0(%rsp),%ymm3
    5044:	00 00 
    5046:	c5 fb 10 74 ce f0    	vmovsd -0x10(%rsi,%rcx,8),%xmm6
    504c:	41 8d 04 0e          	lea    (%r14,%rcx,1),%eax
    5050:	83 c0 06             	add    $0x6,%eax
    5053:	c5 fc 29 9c 24 c0 06 	vmovaps %ymm3,0x6c0(%rsp)
    505a:	00 00 
    505c:	83 e0 03             	and    $0x3,%eax
    505f:	c5 fb 11 b4 c4 c0 06 	vmovsd %xmm6,0x6c0(%rsp,%rax,8)
    5066:	00 00 
    5068:	c5 fc 28 9c 24 c0 06 	vmovaps 0x6c0(%rsp),%ymm3
    506f:	00 00 
    5071:	c5 fb 10 74 ce f8    	vmovsd -0x8(%rsi,%rcx,8),%xmm6
    5077:	41 8d 04 0e          	lea    (%r14,%rcx,1),%eax
    507b:	83 c0 ff             	add    $0xffffffff,%eax
    507e:	c5 fc 29 9c 24 e0 06 	vmovaps %ymm3,0x6e0(%rsp)
    5085:	00 00 
    5087:	83 e0 03             	and    $0x3,%eax
    508a:	c5 fb 11 b4 c4 e0 06 	vmovsd %xmm6,0x6e0(%rsp,%rax,8)
    5091:	00 00 
    5093:	c5 fc 28 9c 24 e0 06 	vmovaps 0x6e0(%rsp),%ymm3
    509a:	00 00 
    509c:	c5 fb 10 34 ce       	vmovsd (%rsi,%rcx,8),%xmm6
    50a1:	c5 fc 29 9c 24 00 07 	vmovaps %ymm3,0x700(%rsp)
    50a8:	00 00 
    50aa:	41 8d 14 0e          	lea    (%r14,%rcx,1),%edx
    50ae:	83 c2 08             	add    $0x8,%edx
    50b1:	83 e2 03             	and    $0x3,%edx
    50b4:	c5 fb 11 b4 d4 00 07 	vmovsd %xmm6,0x700(%rsp,%rdx,8)
    50bb:	00 00 
    50bd:	c5 fc 28 9c 24 00 07 	vmovaps 0x700(%rsp),%ymm3
    50c4:	00 00 
    50c6:	c5 fb 10 74 ce 08    	vmovsd 0x8(%rsi,%rcx,8),%xmm6
    50cc:	41 8d 14 0e          	lea    (%r14,%rcx,1),%edx
    50d0:	83 c2 09             	add    $0x9,%edx
    50d3:	c5 fc 29 9c 24 20 07 	vmovaps %ymm3,0x720(%rsp)
    50da:	00 00 
    50dc:	83 e2 03             	and    $0x3,%edx
    50df:	c5 fb 11 b4 d4 20 07 	vmovsd %xmm6,0x720(%rsp,%rdx,8)
    50e6:	00 00 
    50e8:	c5 fc 28 9c 24 20 07 	vmovaps 0x720(%rsp),%ymm3
    50ef:	00 00 
    50f1:	c5 fb 10 74 ce 10    	vmovsd 0x10(%rsi,%rcx,8),%xmm6
    50f7:	41 8d 14 0e          	lea    (%r14,%rcx,1),%edx
    50fb:	83 c2 0a             	add    $0xa,%edx
    50fe:	c5 fc 29 9c 24 40 07 	vmovaps %ymm3,0x740(%rsp)
    5105:	00 00 
    5107:	83 e2 03             	and    $0x3,%edx
    510a:	c5 fb 11 b4 d4 40 07 	vmovsd %xmm6,0x740(%rsp,%rdx,8)
    5111:	00 00 
    5113:	c5 fd 6f 9c 24 40 07 	vmovdqa 0x740(%rsp),%ymm3
    511a:	00 00 
    511c:	c5 fb 10 74 ce 18    	vmovsd 0x18(%rsi,%rcx,8),%xmm6
    5122:	c5 fd 7f 9c 24 60 07 	vmovdqa %ymm3,0x760(%rsp)
    5129:	00 00 
    512b:	c5 fb 11 b4 c4 60 07 	vmovsd %xmm6,0x760(%rsp,%rax,8)
    5132:	00 00 
    5134:	c5 fd 6f b4 24 60 07 	vmovdqa 0x760(%rsp),%ymm6
    513b:	00 00 
    513d:	48 83 c1 08          	add    $0x8,%rcx
    5141:	49 39 c9             	cmp    %rcx,%r9
    5144:	0f 85 a6 fe ff ff    	jne    4ff0 <_ZN13num_perf_demo4main17h1c767c90db3777c8E+0x15f0>
    514a:	4c 8b b4 24 e8 00 00 	mov    0xe8(%rsp),%r14
    5151:	00 
    5152:	4c 8b 8c 24 e0 00 00 	mov    0xe0(%rsp),%r9
    5159:	00 
    515a:	48 8b 74 24 40       	mov    0x40(%rsp),%rsi
                unsafe { Simd(simd_mul(self.0, other.0)) }
    515f:	c5 d5 59 de          	vmulpd %ymm6,%ymm5,%ymm3
                unsafe { Simd(simd_add(self.0, other.0)) }
    5163:	c5 dd 58 e3          	vaddpd %ymm3,%ymm4,%ymm4
            C[ni + j] = (
    5167:	48 03 74 24 30       	add    0x30(%rsp),%rsi
    516c:	48 39 74 24 58       	cmp    %rsi,0x58(%rsp)
    5171:	0f 87 46 fa ff ff    	ja     4bbd <_ZN13num_perf_demo4main17h1c767c90db3777c8E+0x11bd>
    5177:	48 8d 3d 72 2c 23 00 	lea    0x232c72(%rip),%rdi        # 237df0 <__init_array_end+0x800>
    517e:	48 8b 54 24 58       	mov    0x58(%rsp),%rdx
    5183:	c5 f8 77             	vzeroupper 
    5186:	e8 95 35 00 00       	callq  8720 <_ZN4core9panicking18panic_bounds_check17h83121a2515f55ceeE>
    518b:	e9 ac eb ff ff       	jmpq   3d3c <_ZN13num_perf_demo4main17h1c767c90db3777c8E+0x33c>
    return C;
    5190:	48 8b 84 24 90 00 00 	mov    0x90(%rsp),%rax
    5197:	00 
    5198:	48 89 84 24 30 01 00 	mov    %rax,0x130(%rsp)
    519f:	00 
    51a0:	c5 f8 10 84 24 80 00 	vmovups 0x80(%rsp),%xmm0
    51a7:	00 00 
    51a9:	c5 f8 29 84 24 20 01 	vmovaps %xmm0,0x120(%rsp)
    51b0:	00 00 
    51b2:	c5 f8 77             	vzeroupper 
    51b5:	ff 15 f5 3b 23 00    	callq  *0x233bf5(%rip)        # 238db0 <free@GLIBC_2.2.5>
    51bb:	48 83 7c 24 68 00    	cmpq   $0x0,0x68(%rsp)
    51c1:	74 0e                	je     51d1 <_ZN13num_perf_demo4main17h1c767c90db3777c8E+0x17d1>
    51c3:	48 8b bc 24 40 01 00 	mov    0x140(%rsp),%rdi
    51ca:	00 
    51cb:	ff 15 df 3b 23 00    	callq  *0x233bdf(%rip)        # 238db0 <free@GLIBC_2.2.5>
    51d1:	48 83 bc 24 b8 00 00 	cmpq   $0x0,0xb8(%rsp)
    51d8:	00 00 
    51da:	74 0e                	je     51ea <_ZN13num_perf_demo4main17h1c767c90db3777c8E+0x17ea>
    51dc:	48 8b bc 24 a8 00 00 	mov    0xa8(%rsp),%rdi
    51e3:	00 
    51e4:	ff 15 c6 3b 23 00    	callq  *0x233bc6(%rip)        # 238db0 <free@GLIBC_2.2.5>

    // Sum elements.
    let sum = mat_elem_sum(n, C) / ((n * n) as f64);
    51ea:	48 8b 84 24 30 01 00 	mov    0x130(%rsp),%rax
    51f1:	00 
    51f2:	48 89 44 24 10       	mov    %rax,0x10(%rsp)
    51f7:	c5 f9 28 84 24 20 01 	vmovapd 0x120(%rsp),%xmm0
    51fe:	00 00 
    5200:	c5 f9 29 04 24       	vmovapd %xmm0,(%rsp)
    5205:	4d 85 e4             	test   %r12,%r12
    5208:	0f 84 c6 02 00 00    	je     54d4 <_ZN13num_perf_demo4main17h1c767c90db3777c8E+0x1ad4>
    520e:	4c 8b 14 24          	mov    (%rsp),%r10
    5212:	4c 8b 4c 24 10       	mov    0x10(%rsp),%r9
    5217:	49 83 fc 04          	cmp    $0x4,%r12
    521b:	0f 83 d1 02 00 00    	jae    54f2 <_ZN13num_perf_demo4main17h1c767c90db3777c8E+0x1af2>
    5221:	49 8d 4a 38          	lea    0x38(%r10),%rcx
    5225:	44 89 e2             	mov    %r12d,%edx
    5228:	f7 da                	neg    %edx
    522a:	b8 04 00 00 00       	mov    $0x4,%eax
    522f:	44 29 e0             	sub    %r12d,%eax
    5232:	89 44 24 40          	mov    %eax,0x40(%rsp)
    5236:	c5 f9 57 c0          	vxorpd %xmm0,%xmm0,%xmm0
    523a:	45 31 db             	xor    %r11d,%r11d
    523d:	c5 f1 ef c9          	vpxor  %xmm1,%xmm1,%xmm1
    5241:	4c 89 d6             	mov    %r10,%rsi
    5244:	c5 d1 ef ed          	vpxor  %xmm5,%xmm5,%xmm5
    5248:	eb 42                	jmp    528c <_ZN13num_perf_demo4main17h1c767c90db3777c8E+0x188c>
    524a:	66 0f 1f 44 00 00    	nopw   0x0(%rax,%rax,1)
    5250:	49 ff c3             	inc    %r11
    5253:	c5 ed 58 d1          	vaddpd %ymm1,%ymm2,%ymm2
    5257:	c5 eb 58 d8          	vaddsd %xmm0,%xmm2,%xmm3
    525b:	c4 e3 79 05 e2 01    	vpermilpd $0x1,%xmm2,%xmm4
    5261:	c5 e3 58 dc          	vaddsd %xmm4,%xmm3,%xmm3
    5265:	c4 e3 7d 19 d2 01    	vextractf128 $0x1,%ymm2,%xmm2
    526b:	c5 e3 58 da          	vaddsd %xmm2,%xmm3,%xmm3
    526f:	c4 e3 79 05 d2 01    	vpermilpd $0x1,%xmm2,%xmm2
    5275:	c5 e3 58 d2          	vaddsd %xmm2,%xmm3,%xmm2
    5279:	c5 d3 58 ea          	vaddsd %xmm2,%xmm5,%xmm5
    527d:	4c 01 f1             	add    %r14,%rcx
    5280:	4d 01 f2             	add    %r14,%r10
    5283:	4d 39 e3             	cmp    %r12,%r11
    5286:	0f 84 87 05 00 00    	je     5813 <_ZN13num_perf_demo4main17h1c767c90db3777c8E+0x1e13>
        sum += &mat[i * n .. i * n + n].simd_iter(f64s(0.0))
    528c:	4c 89 df             	mov    %r11,%rdi
    528f:	49 0f af fc          	imul   %r12,%rdi
    5293:	48 89 f8             	mov    %rdi,%rax
    5296:	4c 01 e0             	add    %r12,%rax
    5299:	0f 82 55 08 00 00    	jb     5af4 <_ZN13num_perf_demo4main17h1c767c90db3777c8E+0x20f4>
    529f:	49 39 c1             	cmp    %rax,%r9
    52a2:	0f 82 5c 08 00 00    	jb     5b04 <_ZN13num_perf_demo4main17h1c767c90db3777c8E+0x2104>
    52a8:	49 83 fc 04          	cmp    $0x4,%r12
            if self.width() < self.scalar_len() {
    52ac:	76 52                	jbe    5300 <_ZN13num_perf_demo4main17h1c767c90db3777c8E+0x1900>
    52ae:	48 8b 84 24 f8 00 00 	mov    0xf8(%rsp),%rax
    52b5:	00 
    52b6:	48 3d 80 00 00 00    	cmp    $0x80,%rax
    52bc:	0f 87 cf 08 00 00    	ja     5b91 <_ZN13num_perf_demo4main17h1c767c90db3777c8E+0x2191>
    52c2:	48 83 f8 7c          	cmp    $0x7c,%rax
    52c6:	0f 87 9d 08 00 00    	ja     5b69 <_ZN13num_perf_demo4main17h1c767c90db3777c8E+0x2169>
    52cc:	48 8d 04 fe          	lea    (%rsi,%rdi,8),%rax
    52d0:	4c 8b a4 24 c8 00 00 	mov    0xc8(%rsp),%r12
    52d7:	00 
    52d8:	48 8d 3d e1 af 02 00 	lea    0x2afe1(%rip),%rdi        # 302c0 <_ZN4core7unicode12unicode_data2cc6BITSET17h5201257bcf8f09faE+0x60>
    52df:	c4 a1 7e 6f 54 e7 20 	vmovdqu 0x20(%rdi,%r12,8),%ymm2
    52e6:	c4 a3 75 4c 54 e0 e0 	vpblendvb %ymm2,-0x20(%rax,%r12,8),%ymm1,%ymm2
    52ed:	20 
    52ee:	e9 5d ff ff ff       	jmpq   5250 <_ZN13num_perf_demo4main17h1c767c90db3777c8E+0x1850>
    52f3:	66 2e 0f 1f 84 00 00 	nopw   %cs:0x0(%rax,%rax,1)
    52fa:	00 00 00 
    52fd:	0f 1f 00             	nopl   (%rax)
    5300:	48 83 7c 24 78 07    	cmpq   $0x7,0x78(%rsp)
    5306:	73 18                	jae    5320 <_ZN13num_perf_demo4main17h1c767c90db3777c8E+0x1920>
    5308:	c5 e9 57 d2          	vxorpd %xmm2,%xmm2,%xmm2
    530c:	31 c0                	xor    %eax,%eax
    530e:	4d 85 ff             	test   %r15,%r15
    5311:	0f 85 75 01 00 00    	jne    548c <_ZN13num_perf_demo4main17h1c767c90db3777c8E+0x1a8c>
    5317:	e9 34 ff ff ff       	jmpq   5250 <_ZN13num_perf_demo4main17h1c767c90db3777c8E+0x1850>
    531c:	0f 1f 40 00          	nopl   0x0(%rax)
    5320:	c5 e9 57 d2          	vxorpd %xmm2,%xmm2,%xmm2
    5324:	31 c0                	xor    %eax,%eax
    5326:	66 2e 0f 1f 84 00 00 	nopw   %cs:0x0(%rax,%rax,1)
    532d:	00 00 00 
    5330:	8d 3c 02             	lea    (%rdx,%rax,1),%edi
    5333:	83 c7 04             	add    $0x4,%edi
    5336:	c5 fd 29 94 24 20 02 	vmovapd %ymm2,0x220(%rsp)
    533d:	00 00 
    533f:	83 e7 03             	and    $0x3,%edi
                *self.get_unchecked(offset)
    5342:	c5 fb 10 54 c1 c8    	vmovsd -0x38(%rcx,%rax,8),%xmm2
    5348:	c5 fb 10 5c c1 d0    	vmovsd -0x30(%rcx,%rax,8),%xmm3
    534e:	c5 fb 11 94 fc 20 02 	vmovsd %xmm2,0x220(%rsp,%rdi,8)
    5355:	00 00 
    5357:	c5 fc 28 94 24 20 02 	vmovaps 0x220(%rsp),%ymm2
    535e:	00 00 
    5360:	c5 fc 29 94 24 40 02 	vmovaps %ymm2,0x240(%rsp)
    5367:	00 00 
    5369:	8d 3c 02             	lea    (%rdx,%rax,1),%edi
    536c:	83 c7 05             	add    $0x5,%edi
    536f:	83 e7 03             	and    $0x3,%edi
    5372:	c5 fb 11 9c fc 40 02 	vmovsd %xmm3,0x240(%rsp,%rdi,8)
    5379:	00 00 
    537b:	c5 fc 28 94 24 40 02 	vmovaps 0x240(%rsp),%ymm2
    5382:	00 00 
    5384:	c5 fb 10 5c c1 d8    	vmovsd -0x28(%rcx,%rax,8),%xmm3
    538a:	8d 3c 02             	lea    (%rdx,%rax,1),%edi
    538d:	83 c7 06             	add    $0x6,%edi
    5390:	c5 fc 29 94 24 60 02 	vmovaps %ymm2,0x260(%rsp)
    5397:	00 00 
    5399:	83 e7 03             	and    $0x3,%edi
    539c:	c5 fb 11 9c fc 60 02 	vmovsd %xmm3,0x260(%rsp,%rdi,8)
    53a3:	00 00 
    53a5:	c5 fc 28 94 24 60 02 	vmovaps 0x260(%rsp),%ymm2
    53ac:	00 00 
    53ae:	c5 fb 10 5c c1 e0    	vmovsd -0x20(%rcx,%rax,8),%xmm3
    53b4:	8d 3c 02             	lea    (%rdx,%rax,1),%edi
    53b7:	83 c7 ff             	add    $0xffffffff,%edi
    53ba:	c5 fc 29 94 24 80 02 	vmovaps %ymm2,0x280(%rsp)
    53c1:	00 00 
    53c3:	83 e7 03             	and    $0x3,%edi
    53c6:	c5 fb 11 9c fc 80 02 	vmovsd %xmm3,0x280(%rsp,%rdi,8)
    53cd:	00 00 
    53cf:	c5 fc 28 94 24 80 02 	vmovaps 0x280(%rsp),%ymm2
    53d6:	00 00 
    53d8:	c5 fb 10 5c c1 e8    	vmovsd -0x18(%rcx,%rax,8),%xmm3
    53de:	c5 fc 29 94 24 a0 02 	vmovaps %ymm2,0x2a0(%rsp)
    53e5:	00 00 
    53e7:	8d 1c 02             	lea    (%rdx,%rax,1),%ebx
    53ea:	83 c3 08             	add    $0x8,%ebx
    53ed:	83 e3 03             	and    $0x3,%ebx
    53f0:	c5 fb 11 9c dc a0 02 	vmovsd %xmm3,0x2a0(%rsp,%rbx,8)
    53f7:	00 00 
    53f9:	c5 fc 28 94 24 a0 02 	vmovaps 0x2a0(%rsp),%ymm2
    5400:	00 00 
    5402:	c5 fb 10 5c c1 f0    	vmovsd -0x10(%rcx,%rax,8),%xmm3
    5408:	8d 1c 02             	lea    (%rdx,%rax,1),%ebx
    540b:	83 c3 09             	add    $0x9,%ebx
    540e:	c5 fc 29 94 24 c0 02 	vmovaps %ymm2,0x2c0(%rsp)
    5415:	00 00 
    5417:	83 e3 03             	and    $0x3,%ebx
    541a:	c5 fb 11 9c dc c0 02 	vmovsd %xmm3,0x2c0(%rsp,%rbx,8)
    5421:	00 00 
    5423:	c5 fc 28 94 24 c0 02 	vmovaps 0x2c0(%rsp),%ymm2
    542a:	00 00 
    542c:	c5 fb 10 5c c1 f8    	vmovsd -0x8(%rcx,%rax,8),%xmm3
    5432:	8d 1c 02             	lea    (%rdx,%rax,1),%ebx
    5435:	83 c3 0a             	add    $0xa,%ebx
    5438:	c5 fc 29 94 24 e0 02 	vmovaps %ymm2,0x2e0(%rsp)
    543f:	00 00 
    5441:	83 e3 03             	and    $0x3,%ebx
    5444:	c5 fb 11 9c dc e0 02 	vmovsd %xmm3,0x2e0(%rsp,%rbx,8)
    544b:	00 00 
    544d:	c5 fc 28 94 24 e0 02 	vmovaps 0x2e0(%rsp),%ymm2
    5454:	00 00 
    5456:	c5 fa 7e 1c c1       	vmovq  (%rcx,%rax,8),%xmm3
    545b:	48 83 c0 08          	add    $0x8,%rax
    545f:	c5 fc 29 94 24 00 03 	vmovaps %ymm2,0x300(%rsp)
    5466:	00 00 
    5468:	c5 f9 d6 9c fc 00 03 	vmovq  %xmm3,0x300(%rsp,%rdi,8)
    546f:	00 00 
    5471:	c5 fd 28 94 24 00 03 	vmovapd 0x300(%rsp),%ymm2
    5478:	00 00 
    547a:	49 39 c5             	cmp    %rax,%r13
    547d:	0f 85 ad fe ff ff    	jne    5330 <_ZN13num_perf_demo4main17h1c767c90db3777c8E+0x1930>
    5483:	4d 85 ff             	test   %r15,%r15
    5486:	0f 84 c4 fd ff ff    	je     5250 <_ZN13num_perf_demo4main17h1c767c90db3777c8E+0x1850>
    548c:	4d 8d 04 c2          	lea    (%r10,%rax,8),%r8
    5490:	03 44 24 40          	add    0x40(%rsp),%eax
    5494:	31 db                	xor    %ebx,%ebx
    5496:	66 2e 0f 1f 84 00 00 	nopw   %cs:0x0(%rax,%rax,1)
    549d:	00 00 00 
    54a0:	c4 c1 7a 7e 1c d8    	vmovq  (%r8,%rbx,8),%xmm3
    54a6:	8d 3c 18             	lea    (%rax,%rbx,1),%edi
    54a9:	c5 fd 29 94 24 00 02 	vmovapd %ymm2,0x200(%rsp)
    54b0:	00 00 
    54b2:	83 e7 03             	and    $0x3,%edi
    54b5:	c5 f9 d6 9c fc 00 02 	vmovq  %xmm3,0x200(%rsp,%rdi,8)
    54bc:	00 00 
    54be:	c5 fd 28 94 24 00 02 	vmovapd 0x200(%rsp),%ymm2
    54c5:	00 00 
    54c7:	48 ff c3             	inc    %rbx
    54ca:	49 39 df             	cmp    %rbx,%r15
    54cd:	75 d1                	jne    54a0 <_ZN13num_perf_demo4main17h1c767c90db3777c8E+0x1aa0>
    54cf:	e9 7c fd ff ff       	jmpq   5250 <_ZN13num_perf_demo4main17h1c767c90db3777c8E+0x1850>
    54d4:	c5 f9 57 c0          	vxorpd %xmm0,%xmm0,%xmm0
    54d8:	c5 f9 29 44 24 40    	vmovapd %xmm0,0x40(%rsp)
    54de:	45 31 e4             	xor    %r12d,%r12d
    54e1:	48 83 7c 24 08 00    	cmpq   $0x0,0x8(%rsp)
    54e7:	0f 85 34 03 00 00    	jne    5821 <_ZN13num_perf_demo4main17h1c767c90db3777c8E+0x1e21>
    54ed:	e9 3c 03 00 00       	jmpq   582e <_ZN13num_perf_demo4main17h1c767c90db3777c8E+0x1e2e>
    54f2:	4c 89 54 24 40       	mov    %r10,0x40(%rsp)
    54f7:	4d 8d 7a 20          	lea    0x20(%r10),%r15
    54fb:	41 ba 0c 00 00 00    	mov    $0xc,%r10d
    5501:	45 29 e2             	sub    %r12d,%r10d
    5504:	44 89 e0             	mov    %r12d,%eax
    5507:	f7 d8                	neg    %eax
    5509:	89 44 24 30          	mov    %eax,0x30(%rsp)
    550d:	c5 f9 57 c0          	vxorpd %xmm0,%xmm0,%xmm0
    5511:	45 31 db             	xor    %r11d,%r11d
    5514:	c5 f1 ef c9          	vpxor  %xmm1,%xmm1,%xmm1
    5518:	c5 d1 ef ed          	vpxor  %xmm5,%xmm5,%xmm5
    551c:	eb 3c                	jmp    555a <_ZN13num_perf_demo4main17h1c767c90db3777c8E+0x1b5a>
    551e:	66 90                	xchg   %ax,%ax
    5520:	49 89 f4             	mov    %rsi,%r12
    5523:	c5 eb 58 d8          	vaddsd %xmm0,%xmm2,%xmm3
    5527:	c4 e3 79 05 e2 01    	vpermilpd $0x1,%xmm2,%xmm4
    552d:	c5 e3 58 dc          	vaddsd %xmm4,%xmm3,%xmm3
    5531:	c4 e3 7d 19 d2 01    	vextractf128 $0x1,%ymm2,%xmm2
    5537:	c5 e3 58 da          	vaddsd %xmm2,%xmm3,%xmm3
    553b:	c4 e3 79 05 d2 01    	vpermilpd $0x1,%xmm2,%xmm2
    5541:	c5 e3 58 d2          	vaddsd %xmm2,%xmm3,%xmm2
    5545:	c5 d3 58 ea          	vaddsd %xmm2,%xmm5,%xmm5
    5549:	4c 03 bc 24 e8 00 00 	add    0xe8(%rsp),%r15
    5550:	00 
    5551:	4d 39 e3             	cmp    %r12,%r11
    5554:	0f 84 b9 02 00 00    	je     5813 <_ZN13num_perf_demo4main17h1c767c90db3777c8E+0x1e13>
    555a:	4c 89 df             	mov    %r11,%rdi
    555d:	49 0f af fc          	imul   %r12,%rdi
    5561:	48 89 f8             	mov    %rdi,%rax
    5564:	4c 01 e0             	add    %r12,%rax
    5567:	0f 82 87 05 00 00    	jb     5af4 <_ZN13num_perf_demo4main17h1c767c90db3777c8E+0x20f4>
    556d:	49 39 c1             	cmp    %rax,%r9
    5570:	0f 82 8e 05 00 00    	jb     5b04 <_ZN13num_perf_demo4main17h1c767c90db3777c8E+0x2104>
    5576:	49 ff c3             	inc    %r11
    5579:	4c 89 e6             	mov    %r12,%rsi
    557c:	48 8b 44 24 40       	mov    0x40(%rsp),%rax
    5581:	4c 8d 24 f8          	lea    (%rax,%rdi,8),%r12
    5585:	bb 04 00 00 00       	mov    $0x4,%ebx
    558a:	c5 e9 57 d2          	vxorpd %xmm2,%xmm2,%xmm2
    558e:	8b 44 24 30          	mov    0x30(%rsp),%eax
    5592:	41 89 c5             	mov    %eax,%r13d
    5595:	44 89 d0             	mov    %r10d,%eax
    5598:	4c 89 f9             	mov    %r15,%rcx
    559b:	31 ff                	xor    %edi,%edi
    559d:	0f 1f 00             	nopl   (%rax)
    55a0:	48 39 f7             	cmp    %rsi,%rdi
    55a3:	0f 87 f3 04 00 00    	ja     5a9c <_ZN13num_perf_demo4main17h1c767c90db3777c8E+0x209c>
    55a9:	49 89 de             	mov    %rbx,%r14
    55ac:	49 89 c8             	mov    %rcx,%r8
    55af:	89 c2                	mov    %eax,%edx
    55b1:	c4 c1 6d 58 14 fc    	vaddpd (%r12,%rdi,8),%ymm2,%ymm2
        if self.position + self.width() <= self.scalar_len() {
    55b7:	48 83 c3 04          	add    $0x4,%rbx
    55bb:	48 83 c1 20          	add    $0x20,%rcx
    55bf:	8d 42 08             	lea    0x8(%rdx),%eax
    55c2:	41 83 c5 04          	add    $0x4,%r13d
    55c6:	4c 89 f7             	mov    %r14,%rdi
    55c9:	48 39 f3             	cmp    %rsi,%rbx
    55cc:	76 d2                	jbe    55a0 <_ZN13num_perf_demo4main17h1c767c90db3777c8E+0x1ba0>
        if self.scalar_pos() < self.scalar_len() {
    55ce:	4c 89 f0             	mov    %r14,%rax
    55d1:	48 29 f0             	sub    %rsi,%rax
    55d4:	0f 83 46 ff ff ff    	jae    5520 <_ZN13num_perf_demo4main17h1c767c90db3777c8E+0x1b20>
    55da:	48 83 fe 04          	cmp    $0x4,%rsi
            if self.width() < self.scalar_len() {
    55de:	76 50                	jbe    5630 <_ZN13num_perf_demo4main17h1c767c90db3777c8E+0x1c30>
    55e0:	b9 04 00 00 00       	mov    $0x4,%ecx
    55e5:	48 29 c1             	sub    %rax,%rcx
    55e8:	48 81 f9 81 00 00 00 	cmp    $0x81,%rcx
    55ef:	0f 83 94 05 00 00    	jae    5b89 <_ZN13num_perf_demo4main17h1c767c90db3777c8E+0x2189>
    55f5:	48 83 f9 7d          	cmp    $0x7d,%rcx
    55f9:	0f 83 6a 05 00 00    	jae    5b69 <_ZN13num_perf_demo4main17h1c767c90db3777c8E+0x2169>
    55ff:	48 89 ca             	mov    %rcx,%rdx
    5602:	48 8d 05 b7 ac 02 00 	lea    0x2acb7(%rip),%rax        # 302c0 <_ZN4core7unicode12unicode_data2cc6BITSET17h5201257bcf8f09faE+0x60>
    5609:	c5 fe 6f 1c c8       	vmovdqu (%rax,%rcx,8),%ymm3
    560e:	48 8b 84 24 c8 00 00 	mov    0xc8(%rsp),%rax
    5615:	00 
    5616:	c4 c3 75 4c 5c c4 e0 	vpblendvb %ymm3,-0x20(%r12,%rax,8),%ymm1,%ymm3
    561d:	30 
    561e:	49 89 c4             	mov    %rax,%r12
    5621:	e9 e4 01 00 00       	jmpq   580a <_ZN13num_perf_demo4main17h1c767c90db3777c8E+0x1e0a>
    5626:	66 2e 0f 1f 84 00 00 	nopw   %cs:0x0(%rax,%rax,1)
    562d:	00 00 00 
    5630:	41 89 f4             	mov    %esi,%r12d
    5633:	45 29 f4             	sub    %r14d,%r12d
    5636:	4c 89 f3             	mov    %r14,%rbx
    5639:	48 f7 d3             	not    %rbx
    563c:	48 01 f3             	add    %rsi,%rbx
    563f:	c5 e1 ef db          	vpxor  %xmm3,%xmm3,%xmm3
    5643:	49 83 e4 07          	and    $0x7,%r12
    5647:	74 3a                	je     5683 <_ZN13num_perf_demo4main17h1c767c90db3777c8E+0x1c83>
    5649:	4c 89 e7             	mov    %r12,%rdi
    564c:	0f 1f 40 00          	nopl   0x0(%rax)
                *self.get_unchecked(offset)
    5650:	c4 c1 7a 7e 20       	vmovq  (%r8),%xmm4
    5655:	c5 fd 7f 9c 24 20 04 	vmovdqa %ymm3,0x420(%rsp)
    565c:	00 00 
    565e:	89 d0                	mov    %edx,%eax
    5660:	83 e0 03             	and    $0x3,%eax
    5663:	c5 f9 d6 a4 c4 20 04 	vmovq  %xmm4,0x420(%rsp,%rax,8)
    566a:	00 00 
    566c:	c5 fd 6f 9c 24 20 04 	vmovdqa 0x420(%rsp),%ymm3
    5673:	00 00 
    5675:	49 83 c0 08          	add    $0x8,%r8
    5679:	ff c2                	inc    %edx
    567b:	48 ff cf             	dec    %rdi
    567e:	75 d0                	jne    5650 <_ZN13num_perf_demo4main17h1c767c90db3777c8E+0x1c50>
    5680:	4d 01 e6             	add    %r12,%r14
    5683:	48 83 fb 07          	cmp    $0x7,%rbx
    5687:	4c 8b a4 24 c8 00 00 	mov    0xc8(%rsp),%r12
    568e:	00 
    568f:	0f 82 75 01 00 00    	jb     580a <_ZN13num_perf_demo4main17h1c767c90db3777c8E+0x1e0a>
    5695:	4c 89 e7             	mov    %r12,%rdi
    5698:	4c 29 f7             	sub    %r14,%rdi
    569b:	45 01 f5             	add    %r14d,%r13d
    569e:	4b 8d 1c f7          	lea    (%r15,%r14,8),%rbx
    56a2:	31 c9                	xor    %ecx,%ecx
    56a4:	66 2e 0f 1f 84 00 00 	nopw   %cs:0x0(%rax,%rax,1)
    56ab:	00 00 00 
    56ae:	66 90                	xchg   %ax,%ax
    56b0:	42 8d 04 29          	lea    (%rcx,%r13,1),%eax
    56b4:	83 c0 04             	add    $0x4,%eax
    56b7:	c5 fd 7f 9c 24 20 03 	vmovdqa %ymm3,0x320(%rsp)
    56be:	00 00 
    56c0:	83 e0 03             	and    $0x3,%eax
    56c3:	c5 fb 10 5c cb e0    	vmovsd -0x20(%rbx,%rcx,8),%xmm3
    56c9:	c5 fb 10 64 cb e8    	vmovsd -0x18(%rbx,%rcx,8),%xmm4
    56cf:	c5 fb 11 9c c4 20 03 	vmovsd %xmm3,0x320(%rsp,%rax,8)
    56d6:	00 00 
    56d8:	c5 fc 28 9c 24 20 03 	vmovaps 0x320(%rsp),%ymm3
    56df:	00 00 
    56e1:	c5 fc 29 9c 24 40 03 	vmovaps %ymm3,0x340(%rsp)
    56e8:	00 00 
    56ea:	42 8d 04 29          	lea    (%rcx,%r13,1),%eax
    56ee:	83 c0 05             	add    $0x5,%eax
    56f1:	83 e0 03             	and    $0x3,%eax
    56f4:	c5 fb 11 a4 c4 40 03 	vmovsd %xmm4,0x340(%rsp,%rax,8)
    56fb:	00 00 
    56fd:	c5 fc 28 9c 24 40 03 	vmovaps 0x340(%rsp),%ymm3
    5704:	00 00 
    5706:	c5 fb 10 64 cb f0    	vmovsd -0x10(%rbx,%rcx,8),%xmm4
    570c:	42 8d 04 29          	lea    (%rcx,%r13,1),%eax
    5710:	83 c0 06             	add    $0x6,%eax
    5713:	c5 fc 29 9c 24 60 03 	vmovaps %ymm3,0x360(%rsp)
    571a:	00 00 
    571c:	83 e0 03             	and    $0x3,%eax
    571f:	c5 fb 11 a4 c4 60 03 	vmovsd %xmm4,0x360(%rsp,%rax,8)
    5726:	00 00 
    5728:	c5 fc 28 9c 24 60 03 	vmovaps 0x360(%rsp),%ymm3
    572f:	00 00 
    5731:	c5 fb 10 64 cb f8    	vmovsd -0x8(%rbx,%rcx,8),%xmm4
    5737:	42 8d 14 29          	lea    (%rcx,%r13,1),%edx
    573b:	83 c2 ff             	add    $0xffffffff,%edx
    573e:	c5 fc 29 9c 24 80 03 	vmovaps %ymm3,0x380(%rsp)
    5745:	00 00 
    5747:	83 e2 03             	and    $0x3,%edx
    574a:	c5 fb 11 a4 d4 80 03 	vmovsd %xmm4,0x380(%rsp,%rdx,8)
    5751:	00 00 
    5753:	c5 fc 28 9c 24 80 03 	vmovaps 0x380(%rsp),%ymm3
    575a:	00 00 
    575c:	c5 fb 10 24 cb       	vmovsd (%rbx,%rcx,8),%xmm4
    5761:	c5 fc 29 9c 24 a0 03 	vmovaps %ymm3,0x3a0(%rsp)
    5768:	00 00 
    576a:	42 8d 04 29          	lea    (%rcx,%r13,1),%eax
    576e:	83 c0 08             	add    $0x8,%eax
    5771:	83 e0 03             	and    $0x3,%eax
    5774:	c5 fb 11 a4 c4 a0 03 	vmovsd %xmm4,0x3a0(%rsp,%rax,8)
    577b:	00 00 
    577d:	c5 fc 28 9c 24 a0 03 	vmovaps 0x3a0(%rsp),%ymm3
    5784:	00 00 
    5786:	c5 fb 10 64 cb 08    	vmovsd 0x8(%rbx,%rcx,8),%xmm4
    578c:	42 8d 04 29          	lea    (%rcx,%r13,1),%eax
    5790:	83 c0 09             	add    $0x9,%eax
    5793:	c5 fc 29 9c 24 c0 03 	vmovaps %ymm3,0x3c0(%rsp)
    579a:	00 00 
    579c:	83 e0 03             	and    $0x3,%eax
    579f:	c5 fb 11 a4 c4 c0 03 	vmovsd %xmm4,0x3c0(%rsp,%rax,8)
    57a6:	00 00 
    57a8:	c5 fc 28 9c 24 c0 03 	vmovaps 0x3c0(%rsp),%ymm3
    57af:	00 00 
    57b1:	c5 fb 10 64 cb 10    	vmovsd 0x10(%rbx,%rcx,8),%xmm4
    57b7:	42 8d 04 29          	lea    (%rcx,%r13,1),%eax
    57bb:	83 c0 0a             	add    $0xa,%eax
    57be:	c5 fc 29 9c 24 e0 03 	vmovaps %ymm3,0x3e0(%rsp)
    57c5:	00 00 
    57c7:	83 e0 03             	and    $0x3,%eax
    57ca:	c5 fb 11 a4 c4 e0 03 	vmovsd %xmm4,0x3e0(%rsp,%rax,8)
    57d1:	00 00 
    57d3:	c5 fc 28 9c 24 e0 03 	vmovaps 0x3e0(%rsp),%ymm3
    57da:	00 00 
    57dc:	c5 fa 7e 64 cb 18    	vmovq  0x18(%rbx,%rcx,8),%xmm4
    57e2:	c5 fc 29 9c 24 00 04 	vmovaps %ymm3,0x400(%rsp)
    57e9:	00 00 
    57eb:	c5 f9 d6 a4 d4 00 04 	vmovq  %xmm4,0x400(%rsp,%rdx,8)
    57f2:	00 00 
    57f4:	c5 fd 6f 9c 24 00 04 	vmovdqa 0x400(%rsp),%ymm3
    57fb:	00 00 
    57fd:	48 83 c1 08          	add    $0x8,%rcx
    5801:	48 39 cf             	cmp    %rcx,%rdi
    5804:	0f 85 a6 fe ff ff    	jne    56b0 <_ZN13num_perf_demo4main17h1c767c90db3777c8E+0x1cb0>
    580a:	c5 ed 58 d3          	vaddpd %ymm3,%ymm2,%ymm2
    580e:	e9 10 fd ff ff       	jmpq   5523 <_ZN13num_perf_demo4main17h1c767c90db3777c8E+0x1b23>
    5813:	c5 f8 29 6c 24 40    	vmovaps %xmm5,0x40(%rsp)
    5819:	48 83 7c 24 08 00    	cmpq   $0x0,0x8(%rsp)
    581f:	74 0d                	je     582e <_ZN13num_perf_demo4main17h1c767c90db3777c8E+0x1e2e>
    5821:	48 8b 3c 24          	mov    (%rsp),%rdi
    5825:	c5 f8 77             	vzeroupper 
    5828:	ff 15 82 35 23 00    	callq  *0x233582(%rip)        # 238db0 <free@GLIBC_2.2.5>
    582e:	c5 f9 57 c0          	vxorpd %xmm0,%xmm0,%xmm0
    5832:	c5 f9 29 84 24 80 00 	vmovapd %xmm0,0x80(%rsp)
    5839:	00 00 
    583b:	48 8d b4 24 80 00 00 	lea    0x80(%rsp),%rsi
    5842:	00 
    5843:	bf 01 00 00 00       	mov    $0x1,%edi
    5848:	c5 f8 77             	vzeroupper 
    584b:	ff 15 d7 36 23 00    	callq  *0x2336d7(%rip)        # 238f28 <clock_gettime@GLIBC_2.2.5>
    5851:	83 f8 ff             	cmp    $0xffffffff,%eax
    5854:	0f 84 64 04 00 00    	je     5cbe <_ZN13num_perf_demo4main17h1c767c90db3777c8E+0x22be>
    585a:	c5 f8 28 84 24 80 00 	vmovaps 0x80(%rsp),%xmm0
    5861:	00 00 
    5863:	c5 f8 29 44 24 60    	vmovaps %xmm0,0x60(%rsp)
    5869:	c5 f9 28 84 24 f0 01 	vmovapd 0x1f0(%rsp),%xmm0
    5870:	00 00 
    5872:	c5 f9 29 84 24 80 00 	vmovapd %xmm0,0x80(%rsp)
    5879:	00 00 
    587b:	48 89 e7             	mov    %rsp,%rdi
    587e:	4c 8d 7c 24 60       	lea    0x60(%rsp),%r15
    5883:	4c 8d b4 24 80 00 00 	lea    0x80(%rsp),%r14
    588a:	00 
    588b:	4c 89 fe             	mov    %r15,%rsi
    588e:	4c 89 f2             	mov    %r14,%rdx
    5891:	e8 6a 95 01 00       	callq  1ee00 <_ZN3std3sys4unix4time8Timespec12sub_timespec17h7b26ddd705c1fdd5E>
    5896:	48 83 3c 24 01       	cmpq   $0x1,(%rsp)
    589b:	0f 84 66 04 00 00    	je     5d07 <_ZN13num_perf_demo4main17h1c767c90db3777c8E+0x2307>
    58a1:	b8 00 ca 9a 3b       	mov    $0x3b9aca00,%eax
    58a6:	48 f7 64 24 08       	mulq   0x8(%rsp)
    let sum = mat_elem_sum(n, C) / ((n * n) as f64);
    58ab:	4d 0f af e4          	imul   %r12,%r12
    58af:	c4 c1 f9 6e c4       	vmovq  %r12,%xmm0
    58b4:	c5 f9 62 05 a4 84 02 	vpunpckldq 0x284a4(%rip),%xmm0,%xmm0        # 2dd60 <_fini+0x15c>
    58bb:	00 
    58bc:	c5 f9 5c 05 ac 84 02 	vsubpd 0x284ac(%rip),%xmm0,%xmm0        # 2dd70 <_fini+0x16c>
    58c3:	00 
    58c4:	8b 7c 24 10          	mov    0x10(%rsp),%edi
    58c8:	c5 f9 7c c0          	vhaddpd %xmm0,%xmm0,%xmm0
    58cc:	c5 f9 29 44 24 30    	vmovapd %xmm0,0x30(%rsp)
    58d2:	48 01 c7             	add    %rax,%rdi
    58d5:	48 83 d2 00          	adc    $0x0,%rdx

    let time_s = timer.elapsed().as_nanos() as f64 / 1.0e9;
    58d9:	48 89 d6             	mov    %rdx,%rsi
    58dc:	ff 15 fe 35 23 00    	callq  *0x2335fe(%rip)        # 238ee0 <_GLOBAL_OFFSET_TABLE_+0x1b0>
    58e2:	c5 f9 28 4c 24 30    	vmovapd 0x30(%rsp),%xmm1
    let sum = mat_elem_sum(n, C) / ((n * n) as f64);
    58e8:	c4 e3 71 0d 0d 8e 84 	vblendpd $0x2,0x2848e(%rip),%xmm1,%xmm1        # 2dd80 <_fini+0x17c>
    58ef:	02 00 02 
    58f2:	c5 f9 28 54 24 40    	vmovapd 0x40(%rsp),%xmm2
    58f8:	c5 e9 14 c0          	vunpcklpd %xmm0,%xmm2,%xmm0
    58fc:	c5 f9 5e c1          	vdivpd %xmm1,%xmm0,%xmm0
        eprintln!("Dimension argument too small.");
        exit(1);
    }

    let (sum, cpu_time_used) = mul_test(n);
    5900:	c5 f9 13 84 24 b0 00 	vmovlpd %xmm0,0xb0(%rsp)
    5907:	00 00 
    5909:	c5 f9 17 44 24 60    	vmovhpd %xmm0,0x60(%rsp)
    590f:	48 8d 84 24 b0 00 00 	lea    0xb0(%rsp),%rax
    5916:	00 

    eprintln!("Sum of product elements = {:.6}.", sum);
    5917:	48 89 84 24 80 00 00 	mov    %rax,0x80(%rsp)
    591e:	00 
    591f:	4c 8d 25 ea b5 00 00 	lea    0xb5ea(%rip),%r12        # 10f10 <_ZN4core3fmt5float52_$LT$impl$u20$core..fmt..Display$u20$for$u20$f64$GT$3fmt17hb0a21601b08973cbE>
    5926:	4c 89 a4 24 88 00 00 	mov    %r12,0x88(%rsp)
    592d:	00 
    592e:	48 8d 05 4b 1d 23 00 	lea    0x231d4b(%rip),%rax        # 237680 <__init_array_end+0x90>
    5935:	48 89 04 24          	mov    %rax,(%rsp)
    5939:	48 c7 44 24 08 02 00 	movq   $0x2,0x8(%rsp)
    5940:	00 00 
    5942:	48 8d 1d 5f 8e 02 00 	lea    0x28e5f(%rip),%rbx        # 2e7a8 <_ZN4core7unicode12unicode_data2cc19BITSET_INDEX_CHUNKS17h8a1f39cd536e9344E+0x908>
    5949:	48 89 5c 24 10       	mov    %rbx,0x10(%rsp)
    594e:	48 c7 44 24 18 01 00 	movq   $0x1,0x18(%rsp)
    5955:	00 00 
    5957:	4c 89 74 24 20       	mov    %r14,0x20(%rsp)
    595c:	48 c7 44 24 28 01 00 	movq   $0x1,0x28(%rsp)
    5963:	00 00 
    5965:	48 89 e7             	mov    %rsp,%rdi
    5968:	e8 e3 91 01 00       	callq  1eb50 <_ZN3std2io5stdio7_eprint17hf19d6fb036d8919dE>
    eprintln!("Time taken = {:.6} second.", cpu_time_used);
    596d:	4c 89 bc 24 80 00 00 	mov    %r15,0x80(%rsp)
    5974:	00 
    5975:	4c 89 a4 24 88 00 00 	mov    %r12,0x88(%rsp)
    597c:	00 
    597d:	48 8d 05 1c 1d 23 00 	lea    0x231d1c(%rip),%rax        # 2376a0 <__init_array_end+0xb0>
    5984:	48 89 04 24          	mov    %rax,(%rsp)
    5988:	48 c7 44 24 08 02 00 	movq   $0x2,0x8(%rsp)
    598f:	00 00 
    5991:	48 89 5c 24 10       	mov    %rbx,0x10(%rsp)
    5996:	48 c7 44 24 18 01 00 	movq   $0x1,0x18(%rsp)
    599d:	00 00 
    599f:	4c 89 74 24 20       	mov    %r14,0x20(%rsp)
    59a4:	48 c7 44 24 28 01 00 	movq   $0x1,0x28(%rsp)
    59ab:	00 00 
    59ad:	48 89 e7             	mov    %rsp,%rdi
    59b0:	e8 9b 91 01 00       	callq  1eb50 <_ZN3std2io5stdio7_eprint17hf19d6fb036d8919dE>
    59b5:	48 8b 84 24 68 01 00 	mov    0x168(%rsp),%rax
    59bc:	00 
    59bd:	48 c1 e0 03          	shl    $0x3,%rax
    59c1:	4c 8d 34 40          	lea    (%rax,%rax,2),%r14
    59c5:	31 db                	xor    %ebx,%ebx
    59c7:	4c 8b 3d e2 33 23 00 	mov    0x2333e2(%rip),%r15        # 238db0 <free@GLIBC_2.2.5>
    59ce:	4c 8b a4 24 70 01 00 	mov    0x170(%rsp),%r12
    59d5:	00 
    59d6:	49 83 7c 1c 08 00    	cmpq   $0x0,0x8(%r12,%rbx,1)
    59dc:	75 13                	jne    59f1 <_ZN13num_perf_demo4main17h1c767c90db3777c8E+0x1ff1>
    59de:	66 90                	xchg   %ax,%ax
    59e0:	48 83 c3 18          	add    $0x18,%rbx
    59e4:	49 39 de             	cmp    %rbx,%r14
    59e7:	74 18                	je     5a01 <_ZN13num_perf_demo4main17h1c767c90db3777c8E+0x2001>
    59e9:	49 83 7c 1c 08 00    	cmpq   $0x0,0x8(%r12,%rbx,1)
    59ef:	74 ef                	je     59e0 <_ZN13num_perf_demo4main17h1c767c90db3777c8E+0x1fe0>
    59f1:	49 8b 3c 1c          	mov    (%r12,%rbx,1),%rdi
    59f5:	41 ff d7             	callq  *%r15
    59f8:	48 83 c3 18          	add    $0x18,%rbx
    59fc:	49 39 de             	cmp    %rbx,%r14
    59ff:	75 e8                	jne    59e9 <_ZN13num_perf_demo4main17h1c767c90db3777c8E+0x1fe9>
    5a01:	48 83 bc 24 58 01 00 	cmpq   $0x0,0x158(%rsp)
    5a08:	00 00 
    5a0a:	74 09                	je     5a15 <_ZN13num_perf_demo4main17h1c767c90db3777c8E+0x2015>
    5a0c:	4c 89 e7             	mov    %r12,%rdi
    5a0f:	ff 15 9b 33 23 00    	callq  *0x23339b(%rip)        # 238db0 <free@GLIBC_2.2.5>
}
    5a15:	48 8d 65 d8          	lea    -0x28(%rbp),%rsp
    5a19:	5b                   	pop    %rbx
    5a1a:	41 5c                	pop    %r12
    5a1c:	41 5d                	pop    %r13
    5a1e:	41 5e                	pop    %r14
    5a20:	41 5f                	pop    %r15
    5a22:	5d                   	pop    %rbp
    5a23:	c3                   	retq   
    5a24:	48 89 cf             	mov    %rcx,%rdi
    5a27:	4c 89 e6             	mov    %r12,%rsi
    5a2a:	c5 f8 77             	vzeroupper 
    5a2d:	e8 3e 35 00 00       	callq  8f70 <_ZN4core5slice22slice_index_order_fail17h7bcf2f94ba9e06deE>
    5a32:	e9 05 e3 ff ff       	jmpq   3d3c <_ZN13num_perf_demo4main17h1c767c90db3777c8E+0x33c>
    5a37:	48 89 cf             	mov    %rcx,%rdi
    5a3a:	48 8b b4 24 d8 00 00 	mov    0xd8(%rsp),%rsi
    5a41:	00 
    5a42:	c5 f8 77             	vzeroupper 
    5a45:	e8 a6 34 00 00       	callq  8ef0 <_ZN4core5slice20slice_index_len_fail17h52736412c1ce1871E>
    5a4a:	e9 ed e2 ff ff       	jmpq   3d3c <_ZN13num_perf_demo4main17h1c767c90db3777c8E+0x33c>
    5a4f:	48 89 f7             	mov    %rsi,%rdi
    5a52:	eb 03                	jmp    5a57 <_ZN13num_perf_demo4main17h1c767c90db3777c8E+0x2057>
    5a54:	48 89 d7             	mov    %rdx,%rdi
    5a57:	48 89 ce             	mov    %rcx,%rsi
    5a5a:	c5 f8 77             	vzeroupper 
    5a5d:	e8 0e 35 00 00       	callq  8f70 <_ZN4core5slice22slice_index_order_fail17h7bcf2f94ba9e06deE>
    5a62:	e9 d5 e2 ff ff       	jmpq   3d3c <_ZN13num_perf_demo4main17h1c767c90db3777c8E+0x33c>
    5a67:	be 80 00 00 00       	mov    $0x80,%esi
    5a6c:	48 89 cf             	mov    %rcx,%rdi
    5a6f:	c5 f8 77             	vzeroupper 
    5a72:	e8 f9 34 00 00       	callq  8f70 <_ZN4core5slice22slice_index_order_fail17h7bcf2f94ba9e06deE>
    5a77:	e9 c0 e2 ff ff       	jmpq   3d3c <_ZN13num_perf_demo4main17h1c767c90db3777c8E+0x33c>
    5a7c:	48 8d 3d bd a8 02 00 	lea    0x2a8bd(%rip),%rdi        # 30340 <_ZN4core7unicode12unicode_data2cc6BITSET17h5201257bcf8f09faE+0xe0>
    5a83:	48 8d 15 d6 29 23 00 	lea    0x2329d6(%rip),%rdx        # 238460 <__init_array_end+0xe70>
    5a8a:	be 22 00 00 00       	mov    $0x22,%esi
    5a8f:	c5 f8 77             	vzeroupper 
    5a92:	e8 39 2c 00 00       	callq  86d0 <_ZN4core9panicking5panic17h6861470adfbddef8E>
    5a97:	e9 a0 e2 ff ff       	jmpq   3d3c <_ZN13num_perf_demo4main17h1c767c90db3777c8E+0x33c>
    5a9c:	c5 f8 77             	vzeroupper 
    5a9f:	e8 cc 34 00 00       	callq  8f70 <_ZN4core5slice22slice_index_order_fail17h7bcf2f94ba9e06deE>
    5aa4:	e9 93 e2 ff ff       	jmpq   3d3c <_ZN13num_perf_demo4main17h1c767c90db3777c8E+0x33c>
    5aa9:	4c 89 2c 24          	mov    %r13,(%rsp)
    5aad:	4c 89 7c 24 10       	mov    %r15,0x10(%rsp)
    5ab2:	48 c7 c7 ff ff ff ff 	mov    $0xffffffffffffffff,%rdi
    5ab9:	31 f6                	xor    %esi,%esi
    5abb:	e8 30 34 00 00       	callq  8ef0 <_ZN4core5slice20slice_index_len_fail17h52736412c1ce1871E>
    5ac0:	e9 77 e2 ff ff       	jmpq   3d3c <_ZN13num_perf_demo4main17h1c767c90db3777c8E+0x33c>
    5ac5:	b2 01                	mov    $0x1,%dl
    5ac7:	88 14 24             	mov    %dl,(%rsp)
    5aca:	48 8d 3d f0 af 02 00 	lea    0x2aff0(%rip),%rdi        # 30ac1 <_ZN4core7unicode12unicode_data2cc6BITSET17h5201257bcf8f09faE+0x861>
    5ad1:	48 8d 0d 50 1b 23 00 	lea    0x231b50(%rip),%rcx        # 237628 <__init_array_end+0x38>
    5ad8:	4c 8d 05 79 1b 23 00 	lea    0x231b79(%rip),%r8        # 237658 <__init_array_end+0x68>
    5adf:	48 89 e2             	mov    %rsp,%rdx
    5ae2:	be 2b 00 00 00       	mov    $0x2b,%esi
    5ae7:	c5 f8 77             	vzeroupper 
    5aea:	e8 91 54 00 00       	callq  af80 <_ZN4core6option18expect_none_failed17he0fec195c6e4c2ecE>
    5aef:	e9 48 e2 ff ff       	jmpq   3d3c <_ZN13num_perf_demo4main17h1c767c90db3777c8E+0x33c>
    5af4:	48 89 c6             	mov    %rax,%rsi
    5af7:	c5 f8 77             	vzeroupper 
    5afa:	e8 71 34 00 00       	callq  8f70 <_ZN4core5slice22slice_index_order_fail17h7bcf2f94ba9e06deE>
    5aff:	e9 38 e2 ff ff       	jmpq   3d3c <_ZN13num_perf_demo4main17h1c767c90db3777c8E+0x33c>
    5b04:	48 89 c7             	mov    %rax,%rdi
    5b07:	4c 89 ce             	mov    %r9,%rsi
    5b0a:	c5 f8 77             	vzeroupper 
    5b0d:	e8 de 33 00 00       	callq  8ef0 <_ZN4core5slice20slice_index_len_fail17h52736412c1ce1871E>
    5b12:	e9 25 e2 ff ff       	jmpq   3d3c <_ZN13num_perf_demo4main17h1c767c90db3777c8E+0x33c>
    5b17:	48 89 5c 24 60       	mov    %rbx,0x60(%rsp)
    5b1c:	4c 89 6c 24 68       	mov    %r13,0x68(%rsp)
    5b21:	4c 89 74 24 70       	mov    %r14,0x70(%rsp)
    5b26:	48 8d 3d 94 af 02 00 	lea    0x2af94(%rip),%rdi        # 30ac1 <_ZN4core7unicode12unicode_data2cc6BITSET17h5201257bcf8f09faE+0x861>
    5b2d:	48 8d 0d 0c 2c 23 00 	lea    0x232c0c(%rip),%rcx        # 238740 <__init_array_end+0x1150>
    5b34:	4c 8d 05 25 2c 23 00 	lea    0x232c25(%rip),%r8        # 238760 <__init_array_end+0x1170>
    5b3b:	48 8d 54 24 60       	lea    0x60(%rsp),%rdx
    5b40:	be 2b 00 00 00       	mov    $0x2b,%esi
    5b45:	e8 36 54 00 00       	callq  af80 <_ZN4core6option18expect_none_failed17he0fec195c6e4c2ecE>
    5b4a:	e9 ed e1 ff ff       	jmpq   3d3c <_ZN13num_perf_demo4main17h1c767c90db3777c8E+0x33c>
    5b4f:	4c 89 ac 24 c0 00 00 	mov    %r13,0xc0(%rsp)
    5b56:	00 
    5b57:	4c 89 ac 24 b8 00 00 	mov    %r13,0xb8(%rsp)
    5b5e:	00 
    5b5f:	e8 8c 0c 00 00       	callq  67f0 <_ZN5alloc7raw_vec17capacity_overflow17h9be7d3ce681ac1a6E>
    5b64:	e9 d3 e1 ff ff       	jmpq   3d3c <_ZN13num_perf_demo4main17h1c767c90db3777c8E+0x33c>
    5b69:	48 8d 3d d0 a7 02 00 	lea    0x2a7d0(%rip),%rdi        # 30340 <_ZN4core7unicode12unicode_data2cc6BITSET17h5201257bcf8f09faE+0xe0>
    5b70:	48 8d 15 e9 28 23 00 	lea    0x2328e9(%rip),%rdx        # 238460 <__init_array_end+0xe70>
    5b77:	be 22 00 00 00       	mov    $0x22,%esi
    5b7c:	c5 f8 77             	vzeroupper 
    5b7f:	e8 4c 2b 00 00       	callq  86d0 <_ZN4core9panicking5panic17h6861470adfbddef8E>
    5b84:	e9 b3 e1 ff ff       	jmpq   3d3c <_ZN13num_perf_demo4main17h1c767c90db3777c8E+0x33c>
    5b89:	48 89 8c 24 f8 00 00 	mov    %rcx,0xf8(%rsp)
    5b90:	00 
    5b91:	be 80 00 00 00       	mov    $0x80,%esi
    5b96:	48 8b bc 24 f8 00 00 	mov    0xf8(%rsp),%rdi
    5b9d:	00 
    5b9e:	c5 f8 77             	vzeroupper 
    5ba1:	e8 ca 33 00 00       	callq  8f70 <_ZN4core5slice22slice_index_order_fail17h7bcf2f94ba9e06deE>
    5ba6:	e9 91 e1 ff ff       	jmpq   3d3c <_ZN13num_perf_demo4main17h1c767c90db3777c8E+0x33c>
    5bab:	45 31 ff             	xor    %r15d,%r15d
    5bae:	4c 89 ff             	mov    %r15,%rdi
    5bb1:	4c 89 f6             	mov    %r14,%rsi
    5bb4:	e8 27 0c 00 00       	callq  67e0 <_ZN5alloc5alloc18handle_alloc_error17hf7bb8682f6c8b1d7E>
    5bb9:	0f 0b                	ud2    
    5bbb:	be 08 00 00 00       	mov    $0x8,%esi
    5bc0:	48 89 df             	mov    %rbx,%rdi
    5bc3:	e8 18 0c 00 00       	callq  67e0 <_ZN5alloc5alloc18handle_alloc_error17hf7bb8682f6c8b1d7E>
    5bc8:	0f 0b                	ud2    
    5bca:	e8 21 0c 00 00       	callq  67f0 <_ZN5alloc7raw_vec17capacity_overflow17h9be7d3ce681ac1a6E>
    5bcf:	e9 68 e1 ff ff       	jmpq   3d3c <_ZN13num_perf_demo4main17h1c767c90db3777c8E+0x33c>
    5bd4:	31 d2                	xor    %edx,%edx
    5bd6:	e9 ec fe ff ff       	jmpq   5ac7 <_ZN13num_perf_demo4main17h1c767c90db3777c8E+0x20c7>
    5bdb:	4c 89 3c 24          	mov    %r15,(%rsp)
    5bdf:	48 89 5c 24 08       	mov    %rbx,0x8(%rsp)
    5be4:	4c 89 74 24 10       	mov    %r14,0x10(%rsp)
    5be9:	48 8d 3d d1 ae 02 00 	lea    0x2aed1(%rip),%rdi        # 30ac1 <_ZN4core7unicode12unicode_data2cc6BITSET17h5201257bcf8f09faE+0x861>
    5bf0:	48 8d 0d 49 2b 23 00 	lea    0x232b49(%rip),%rcx        # 238740 <__init_array_end+0x1150>
    5bf7:	4c 8d 05 62 2b 23 00 	lea    0x232b62(%rip),%r8        # 238760 <__init_array_end+0x1170>
    5bfe:	48 89 e2             	mov    %rsp,%rdx
    5c01:	be 2b 00 00 00       	mov    $0x2b,%esi
    5c06:	e8 75 53 00 00       	callq  af80 <_ZN4core6option18expect_none_failed17he0fec195c6e4c2ecE>
    5c0b:	e9 2c e1 ff ff       	jmpq   3d3c <_ZN13num_perf_demo4main17h1c767c90db3777c8E+0x33c>
    5c10:	e8 db dd ff ff       	callq  39f0 <_ZN5alloc7raw_vec19RawVec$LT$T$C$A$GT$11allocate_in28_$u7b$$u7b$closure$u7d$$u7d$17h25c729f8bfb3329bE>
    5c15:	e9 22 e1 ff ff       	jmpq   3d3c <_ZN13num_perf_demo4main17h1c767c90db3777c8E+0x33c>
    5c1a:	48 8d 05 4f 1a 23 00 	lea    0x231a4f(%rip),%rax        # 237670 <__init_array_end+0x80>
    5c21:	48 89 04 24          	mov    %rax,(%rsp)
    5c25:	48 c7 44 24 08 01 00 	movq   $0x1,0x8(%rsp)
    5c2c:	00 00 
    5c2e:	48 c7 44 24 10 00 00 	movq   $0x0,0x10(%rsp)
    5c35:	00 00 
    5c37:	48 8d 05 fa a9 02 00 	lea    0x2a9fa(%rip),%rax        # 30638 <_ZN4core7unicode12unicode_data2cc6BITSET17h5201257bcf8f09faE+0x3d8>
    5c3e:	48 89 44 24 20       	mov    %rax,0x20(%rsp)
    5c43:	48 c7 44 24 28 00 00 	movq   $0x0,0x28(%rsp)
    5c4a:	00 00 
    5c4c:	48 89 e7             	mov    %rsp,%rdi
        eprintln!("Dimension argument too small.");
    5c4f:	c5 f8 77             	vzeroupper 
    5c52:	e8 f9 8e 01 00       	callq  1eb50 <_ZN3std2io5stdio7_eprint17hf19d6fb036d8919dE>
        exit(1);
    5c57:	e8 a4 92 01 00       	callq  1ef00 <_ZN3std7process4exit17h48d7a25190f60a46E>
    5c5c:	e9 db e0 ff ff       	jmpq   3d3c <_ZN13num_perf_demo4main17h1c767c90db3777c8E+0x33c>
    5c61:	ff 15 61 31 23 00    	callq  *0x233161(%rip)        # 238dc8 <__errno_location@GLIBC_2.2.5>
    5c67:	8b 00                	mov    (%rax),%eax
    5c69:	c6 04 24 00          	movb   $0x0,(%rsp)
    5c6d:	0f b7 4c 24 60       	movzwl 0x60(%rsp),%ecx
    5c72:	66 89 4c 24 01       	mov    %cx,0x1(%rsp)
    5c77:	8a 4c 24 62          	mov    0x62(%rsp),%cl
    5c7b:	88 4c 24 03          	mov    %cl,0x3(%rsp)
    5c7f:	89 44 24 04          	mov    %eax,0x4(%rsp)
    5c83:	48 8d 3d 37 ae 02 00 	lea    0x2ae37(%rip),%rdi        # 30ac1 <_ZN4core7unicode12unicode_data2cc6BITSET17h5201257bcf8f09faE+0x861>
    5c8a:	48 8d 0d 57 2c 23 00 	lea    0x232c57(%rip),%rcx        # 2388e8 <__init_array_end+0x12f8>
    5c91:	4c 8d 05 70 2c 23 00 	lea    0x232c70(%rip),%r8        # 238908 <__init_array_end+0x1318>
    5c98:	48 89 e2             	mov    %rsp,%rdx
    5c9b:	be 2b 00 00 00       	mov    $0x2b,%esi
    5ca0:	e8 db 52 00 00       	callq  af80 <_ZN4core6option18expect_none_failed17he0fec195c6e4c2ecE>
    5ca5:	e9 92 e0 ff ff       	jmpq   3d3c <_ZN13num_perf_demo4main17h1c767c90db3777c8E+0x33c>
    5caa:	e8 41 dd ff ff       	callq  39f0 <_ZN5alloc7raw_vec19RawVec$LT$T$C$A$GT$11allocate_in28_$u7b$$u7b$closure$u7d$$u7d$17h25c729f8bfb3329bE>
    5caf:	e9 88 e0 ff ff       	jmpq   3d3c <_ZN13num_perf_demo4main17h1c767c90db3777c8E+0x33c>
    5cb4:	e8 37 dd ff ff       	callq  39f0 <_ZN5alloc7raw_vec19RawVec$LT$T$C$A$GT$11allocate_in28_$u7b$$u7b$closure$u7d$$u7d$17h25c729f8bfb3329bE>
    5cb9:	e9 7e e0 ff ff       	jmpq   3d3c <_ZN13num_perf_demo4main17h1c767c90db3777c8E+0x33c>
    5cbe:	ff 15 04 31 23 00    	callq  *0x233104(%rip)        # 238dc8 <__errno_location@GLIBC_2.2.5>
    5cc4:	8b 00                	mov    (%rax),%eax
    5cc6:	c6 04 24 00          	movb   $0x0,(%rsp)
    5cca:	0f b7 4c 24 60       	movzwl 0x60(%rsp),%ecx
    5ccf:	66 89 4c 24 01       	mov    %cx,0x1(%rsp)
    5cd4:	8a 4c 24 62          	mov    0x62(%rsp),%cl
    5cd8:	88 4c 24 03          	mov    %cl,0x3(%rsp)
    5cdc:	89 44 24 04          	mov    %eax,0x4(%rsp)
    5ce0:	48 8d 3d da ad 02 00 	lea    0x2adda(%rip),%rdi        # 30ac1 <_ZN4core7unicode12unicode_data2cc6BITSET17h5201257bcf8f09faE+0x861>
    5ce7:	48 8d 0d fa 2b 23 00 	lea    0x232bfa(%rip),%rcx        # 2388e8 <__init_array_end+0x12f8>
    5cee:	4c 8d 05 13 2c 23 00 	lea    0x232c13(%rip),%r8        # 238908 <__init_array_end+0x1318>
    5cf5:	48 89 e2             	mov    %rsp,%rdx
    5cf8:	be 2b 00 00 00       	mov    $0x2b,%esi
    5cfd:	e8 7e 52 00 00       	callq  af80 <_ZN4core6option18expect_none_failed17he0fec195c6e4c2ecE>
    5d02:	e9 35 e0 ff ff       	jmpq   3d3c <_ZN13num_perf_demo4main17h1c767c90db3777c8E+0x33c>
    5d07:	48 8d 3d eb b0 02 00 	lea    0x2b0eb(%rip),%rdi        # 30df9 <_ZN4core7unicode12unicode_data2cc6BITSET17h5201257bcf8f09faE+0xb99>
    5d0e:	48 8d 15 0b 2c 23 00 	lea    0x232c0b(%rip),%rdx        # 238920 <__init_array_end+0x1330>
    5d15:	be 23 00 00 00       	mov    $0x23,%esi
    5d1a:	e8 f1 51 00 00       	callq  af10 <_ZN4core6option13expect_failed17h76ad4c74f3ea7214E>
    5d1f:	e9 18 e0 ff ff       	jmpq   3d3c <_ZN13num_perf_demo4main17h1c767c90db3777c8E+0x33c>
    5d24:	49 89 c6             	mov    %rax,%r14
    5d27:	48 89 e7             	mov    %rsp,%rdi
    5d2a:	e8 81 61 01 00       	callq  1beb0 <_ZN4core3ptr13drop_in_place17h0756a94afff92eb4E>
    5d2f:	e9 3f 01 00 00       	jmpq   5e73 <_ZN13num_perf_demo4main17h1c767c90db3777c8E+0x2473>
    5d34:	49 89 c6             	mov    %rax,%r14
    5d37:	e9 fa 00 00 00       	jmpq   5e36 <_ZN13num_perf_demo4main17h1c767c90db3777c8E+0x2436>
    5d3c:	49 89 c6             	mov    %rax,%r14
    5d3f:	e9 ff 00 00 00       	jmpq   5e43 <_ZN13num_perf_demo4main17h1c767c90db3777c8E+0x2443>
    5d44:	49 89 c6             	mov    %rax,%r14
    5d47:	48 89 e7             	mov    %rsp,%rdi
    5d4a:	e8 61 61 01 00       	callq  1beb0 <_ZN4core3ptr13drop_in_place17h0756a94afff92eb4E>
    5d4f:	eb 03                	jmp    5d54 <_ZN13num_perf_demo4main17h1c767c90db3777c8E+0x2354>
    5d51:	49 89 c6             	mov    %rax,%r14
    5d54:	48 8d bc 24 d8 01 00 	lea    0x1d8(%rsp),%rdi
    5d5b:	00 

    (sum, time_s)
    5d5c:	e8 cf b6 00 00       	callq  11430 <_ZN4core3ptr13drop_in_place17h7baf46020a2d468bE>
    5d61:	e9 fb 00 00 00       	jmpq   5e61 <_ZN13num_perf_demo4main17h1c767c90db3777c8E+0x2461>
    5d66:	49 89 c6             	mov    %rax,%r14
    5d69:	48 89 e7             	mov    %rsp,%rdi
    5d6c:	e8 5f db ff ff       	callq  38d0 <_ZN4core3ptr13drop_in_place17h7e5e7d91ff58eb22E>
    5d71:	eb 0b                	jmp    5d7e <_ZN13num_perf_demo4main17h1c767c90db3777c8E+0x237e>
    5d73:	49 89 c6             	mov    %rax,%r14
    5d76:	48 89 e7             	mov    %rsp,%rdi
    5d79:	e8 32 2f 01 00       	callq  18cb0 <_ZN4core3ptr13drop_in_place17h5563ae43ca5ac214E>
    5d7e:	48 8d bc 24 80 00 00 	lea    0x80(%rsp),%rdi
    5d85:	00 
    5d86:	e8 65 db ff ff       	callq  38f0 <_ZN4core3ptr13drop_in_place17hd8f3c2072f099e1bE>
    5d8b:	4c 89 f7             	mov    %r14,%rdi
    5d8e:	e8 9d d9 ff ff       	callq  3730 <_Unwind_Resume@plt>
    5d93:	0f 0b                	ud2    
    5d95:	49 89 c6             	mov    %rax,%r14
    5d98:	eb 70                	jmp    5e0a <_ZN13num_perf_demo4main17h1c767c90db3777c8E+0x240a>
    5d9a:	49 89 c6             	mov    %rax,%r14
    5d9d:	48 89 e7             	mov    %rsp,%rdi
}
    5da0:	e8 8b b6 00 00       	callq  11430 <_ZN4core3ptr13drop_in_place17h7baf46020a2d468bE>
    5da5:	e9 c9 00 00 00       	jmpq   5e73 <_ZN13num_perf_demo4main17h1c767c90db3777c8E+0x2473>
    5daa:	49 89 c6             	mov    %rax,%r14
    5dad:	48 8d 7c 24 60       	lea    0x60(%rsp),%rdi
    5db2:	e8 19 db ff ff       	callq  38d0 <_ZN4core3ptr13drop_in_place17h7e5e7d91ff58eb22E>
    5db7:	eb 27                	jmp    5de0 <_ZN13num_perf_demo4main17h1c767c90db3777c8E+0x23e0>
    5db9:	49 89 c6             	mov    %rax,%r14
    5dbc:	48 8d 7c 24 60       	lea    0x60(%rsp),%rdi
    5dc1:	e8 ea 2e 01 00       	callq  18cb0 <_ZN4core3ptr13drop_in_place17h5563ae43ca5ac214E>
    5dc6:	48 8b 44 24 58       	mov    0x58(%rsp),%rax
    5dcb:	48 89 84 24 c0 00 00 	mov    %rax,0xc0(%rsp)
    5dd2:	00 
    5dd3:	48 8b 44 24 40       	mov    0x40(%rsp),%rax
    5dd8:	48 89 84 24 b8 00 00 	mov    %rax,0xb8(%rsp)
    5ddf:	00 
    5de0:	48 89 e7             	mov    %rsp,%rdi
    5de3:	e8 08 db ff ff       	callq  38f0 <_ZN4core3ptr13drop_in_place17hd8f3c2072f099e1bE>
    5de8:	48 8d bc 24 b0 00 00 	lea    0xb0(%rsp),%rdi
    5def:	00 
    5df0:	e8 6b db ff ff       	callq  3960 <_ZN4core3ptr13drop_in_place17hebcdfb075ba20e6cE>
    5df5:	4c 89 f7             	mov    %r14,%rdi
    5df8:	e8 33 d9 ff ff       	callq  3730 <_Unwind_Resume@plt>
    5dfd:	0f 0b                	ud2    
    5dff:	49 89 c6             	mov    %rax,%r14
    5e02:	48 89 e7             	mov    %rsp,%rdi
    5e05:	e8 06 78 01 00       	callq  1d610 <_ZN4core3ptr13drop_in_place17hd9662a405d88168dE>
    5e0a:	48 8d bc 24 80 00 00 	lea    0x80(%rsp),%rdi
    5e11:	00 
    5e12:	e8 79 77 01 00       	callq  1d590 <_ZN4core3ptr13drop_in_place17h3299cdb2d88644f0E>
    5e17:	48 8d 7c 24 60       	lea    0x60(%rsp),%rdi
    5e1c:	e8 2f 17 01 00       	callq  17550 <_ZN4core3ptr13drop_in_place17hdc1814fe4f8f9b15E>
    5e21:	4c 89 f7             	mov    %r14,%rdi
    5e24:	e8 07 d9 ff ff       	callq  3730 <_Unwind_Resume@plt>
    5e29:	0f 0b                	ud2    
    5e2b:	49 89 c6             	mov    %rax,%r14
    5e2e:	48 89 e7             	mov    %rsp,%rdi
}
    5e31:	e8 fa b5 00 00       	callq  11430 <_ZN4core3ptr13drop_in_place17h7baf46020a2d468bE>
    5e36:	48 8d bc 24 80 00 00 	lea    0x80(%rsp),%rdi
    5e3d:	00 
    5e3e:	e8 ed b5 00 00       	callq  11430 <_ZN4core3ptr13drop_in_place17h7baf46020a2d468bE>
    5e43:	48 8d 7c 24 60       	lea    0x60(%rsp),%rdi
    5e48:	e8 e3 b5 00 00       	callq  11430 <_ZN4core3ptr13drop_in_place17h7baf46020a2d468bE>
    5e4d:	48 8d bc 24 b0 00 00 	lea    0xb0(%rsp),%rdi
    5e54:	00 
    5e55:	e8 d6 b5 00 00       	callq  11430 <_ZN4core3ptr13drop_in_place17h7baf46020a2d468bE>
    5e5a:	eb 17                	jmp    5e73 <_ZN13num_perf_demo4main17h1c767c90db3777c8E+0x2473>
    5e5c:	eb 12                	jmp    5e70 <_ZN13num_perf_demo4main17h1c767c90db3777c8E+0x2470>
    5e5e:	49 89 c6             	mov    %rax,%r14
    5e61:	48 8d bc 24 c0 01 00 	lea    0x1c0(%rsp),%rdi
    5e68:	00 
    5e69:	e8 c2 b5 00 00       	callq  11430 <_ZN4core3ptr13drop_in_place17h7baf46020a2d468bE>
    5e6e:	eb 03                	jmp    5e73 <_ZN13num_perf_demo4main17h1c767c90db3777c8E+0x2473>
    5e70:	49 89 c6             	mov    %rax,%r14
    5e73:	48 8d bc 24 50 01 00 	lea    0x150(%rsp),%rdi
    5e7a:	00 
    5e7b:	e8 e0 da ff ff       	callq  3960 <_ZN4core3ptr13drop_in_place17hebcdfb075ba20e6cE>
    5e80:	4c 89 f7             	mov    %r14,%rdi
    5e83:	e8 a8 d8 ff ff       	callq  3730 <_Unwind_Resume@plt>
    5e88:	0f 0b                	ud2    
    5e8a:	66 0f 1f 44 00 00    	nopw   0x0(%rax,%rax,1)

0000000000005e90 <main>:
    5e90:	55                   	push   %rbp
    5e91:	48 89 e5             	mov    %rsp,%rbp
    5e94:	41 57                	push   %r15
    5e96:	41 56                	push   %r14
    5e98:	41 55                	push   %r13
    5e9a:	41 54                	push   %r12
    5e9c:	53                   	push   %rbx
    5e9d:	48 83 e4 e0          	and    $0xffffffffffffffe0,%rsp
    5ea1:	48 81 ec 80 01 00 00 	sub    $0x180,%rsp
    5ea8:	8a 05 42 c4 02 00    	mov    0x2c442(%rip),%al        # 322f0 <__rustc_debug_gdb_scripts_section__>
    5eae:	48 8d 05 4b db ff ff 	lea    -0x24b5(%rip),%rax        # 3a00 <_ZN13num_perf_demo4main17h1c767c90db3777c8E>
    5eb5:	48 89 84 24 a8 00 00 	mov    %rax,0xa8(%rsp)
    5ebc:	00 
    5ebd:	48 8d 84 24 a8 00 00 	lea    0xa8(%rsp),%rax
    5ec4:	00 
    5ec5:	48 89 84 24 b0 00 00 	mov    %rax,0xb0(%rsp)
    5ecc:	00 
    5ecd:	48 8d 05 24 17 23 00 	lea    0x231724(%rip),%rax        # 2375f8 <__init_array_end+0x8>
    5ed4:	48 89 84 24 b8 00 00 	mov    %rax,0xb8(%rsp)
    5edb:	00 
    5edc:	be 01 00 00 00       	mov    $0x1,%esi
    5ee1:	bf 0d 00 00 00       	mov    $0xd,%edi
    5ee6:	ff 15 ec 2f 23 00    	callq  *0x232fec(%rip)        # 238ed8 <signal@GLIBC_2.2.5>
    5eec:	48 83 f8 ff          	cmp    $0xffffffffffffffff,%rax
    5ef0:	0f 84 1d 04 00 00    	je     6313 <main+0x483>
    5ef6:	bf 1e 00 00 00       	mov    $0x1e,%edi
    5efb:	ff 15 8f 30 23 00    	callq  *0x23308f(%rip)        # 238f90 <sysconf@GLIBC_2.2.5>
    5f01:	48 89 05 b8 32 23 00 	mov    %rax,0x2332b8(%rip)        # 2391c0 <_ZN3std3sys4unix6thread5guard9PAGE_SIZE17h3a4c25a44e74b197E>
    5f08:	48 85 c0             	test   %rax,%rax
    5f0b:	0f 84 1c 04 00 00    	je     632d <main+0x49d>
    5f11:	c5 f8 57 c0          	vxorps %xmm0,%xmm0,%xmm0
    5f15:	c5 fc 11 84 24 d8 00 	vmovups %ymm0,0xd8(%rsp)
    5f1c:	00 00 
    5f1e:	c5 fc 29 84 24 c0 00 	vmovaps %ymm0,0xc0(%rsp)
    5f25:	00 00 
    5f27:	48 8d bc 24 c0 00 00 	lea    0xc0(%rsp),%rdi
    5f2e:	00 
    5f2f:	c5 f8 77             	vzeroupper 
    5f32:	ff 15 80 2f 23 00    	callq  *0x232f80(%rip)        # 238eb8 <pthread_attr_init@GLIBC_2.2.5>
    5f38:	89 44 24 50          	mov    %eax,0x50(%rsp)
    5f3c:	85 c0                	test   %eax,%eax
    5f3e:	0f 85 03 04 00 00    	jne    6347 <main+0x4b7>
    5f44:	ff 15 2e 30 23 00    	callq  *0x23302e(%rip)        # 238f78 <pthread_self@GLIBC_2.2.5>
    5f4a:	48 8d b4 24 c0 00 00 	lea    0xc0(%rsp),%rsi
    5f51:	00 
    5f52:	48 89 c7             	mov    %rax,%rdi
    5f55:	ff 15 75 2e 23 00    	callq  *0x232e75(%rip)        # 238dd0 <pthread_getattr_np@GLIBC_2.2.5>
    5f5b:	85 c0                	test   %eax,%eax
    5f5d:	74 07                	je     5f66 <main+0xd6>
    5f5f:	bb 01 00 00 00       	mov    $0x1,%ebx
    5f64:	eb 49                	jmp    5faf <main+0x11f>
    5f66:	48 c7 84 24 88 00 00 	movq   $0x0,0x88(%rsp)
    5f6d:	00 00 00 00 00 
    5f72:	48 c7 44 24 50 00 00 	movq   $0x0,0x50(%rsp)
    5f79:	00 00 
    5f7b:	48 8d bc 24 c0 00 00 	lea    0xc0(%rsp),%rdi
    5f82:	00 
    5f83:	48 8d b4 24 88 00 00 	lea    0x88(%rsp),%rsi
    5f8a:	00 
    5f8b:	48 8d 54 24 50       	lea    0x50(%rsp),%rdx
    5f90:	ff 15 02 2f 23 00    	callq  *0x232f02(%rip)        # 238e98 <pthread_attr_getstack@GLIBC_2.2.5>
    5f96:	89 84 24 84 00 00 00 	mov    %eax,0x84(%rsp)
    5f9d:	85 c0                	test   %eax,%eax
    5f9f:	0f 85 8d 05 00 00    	jne    6532 <main+0x6a2>
    5fa5:	4c 8b b4 24 88 00 00 	mov    0x88(%rsp),%r14
    5fac:	00 
    5fad:	31 db                	xor    %ebx,%ebx
    5faf:	48 8d bc 24 c0 00 00 	lea    0xc0(%rsp),%rdi
    5fb6:	00 
    5fb7:	ff 15 db 2f 23 00    	callq  *0x232fdb(%rip)        # 238f98 <pthread_attr_destroy@GLIBC_2.2.5>
    5fbd:	89 44 24 50          	mov    %eax,0x50(%rsp)
    5fc1:	85 c0                	test   %eax,%eax
    5fc3:	0f 85 fd 03 00 00    	jne    63c6 <main+0x536>
    5fc9:	48 85 db             	test   %rbx,%rbx
    5fcc:	74 0c                	je     5fda <main+0x14a>
    5fce:	31 c0                	xor    %eax,%eax
    5fd0:	48 89 84 24 90 00 00 	mov    %rax,0x90(%rsp)
    5fd7:	00 
    5fd8:	eb 4e                	jmp    6028 <main+0x198>
    5fda:	48 8b 0d df 31 23 00 	mov    0x2331df(%rip),%rcx        # 2391c0 <_ZN3std3sys4unix6thread5guard9PAGE_SIZE17h3a4c25a44e74b197E>
    5fe1:	48 85 c9             	test   %rcx,%rcx
    5fe4:	0f 84 ca 05 00 00    	je     65b4 <main+0x724>
    5fea:	4c 89 f0             	mov    %r14,%rax
    5fed:	48 09 c8             	or     %rcx,%rax
    5ff0:	48 c1 e8 20          	shr    $0x20,%rax
    5ff4:	74 0a                	je     6000 <main+0x170>
    5ff6:	4c 89 f0             	mov    %r14,%rax
    5ff9:	31 d2                	xor    %edx,%edx
    5ffb:	48 f7 f1             	div    %rcx
    5ffe:	eb 07                	jmp    6007 <main+0x177>
    6000:	44 89 f0             	mov    %r14d,%eax
    6003:	31 d2                	xor    %edx,%edx
    6005:	f7 f1                	div    %ecx
    6007:	4e 8d 3c 31          	lea    (%rcx,%r14,1),%r15
    600b:	49 29 d7             	sub    %rdx,%r15
    600e:	48 85 d2             	test   %rdx,%rdx
    6011:	4d 0f 44 fe          	cmove  %r14,%r15
    6015:	4d 89 fc             	mov    %r15,%r12
    6018:	49 29 cc             	sub    %rcx,%r12
    601b:	b8 01 00 00 00       	mov    $0x1,%eax
    6020:	48 89 84 24 90 00 00 	mov    %rax,0x90(%rsp)
    6027:	00 
    6028:	c5 f8 57 c0          	vxorps %xmm0,%xmm0,%xmm0
    602c:	c5 fc 11 84 24 38 01 	vmovups %ymm0,0x138(%rsp)
    6033:	00 00 
    6035:	c5 fc 11 84 24 28 01 	vmovups %ymm0,0x128(%rsp)
    603c:	00 00 
    603e:	c5 fc 11 84 24 08 01 	vmovups %ymm0,0x108(%rsp)
    6045:	00 00 
    6047:	c5 fc 11 84 24 e8 00 	vmovups %ymm0,0xe8(%rsp)
    604e:	00 00 
    6050:	c5 fc 11 84 24 c8 00 	vmovups %ymm0,0xc8(%rsp)
    6057:	00 00 
    6059:	c7 84 24 48 01 00 00 	movl   $0x8000004,0x148(%rsp)
    6060:	04 00 00 08 
    6064:	48 8d 05 35 9d 01 00 	lea    0x19d35(%rip),%rax        # 1fda0 <_ZN3std3sys4unix14stack_overflow3imp14signal_handler17h6d817a4444c19957E>
    606b:	48 89 84 24 c0 00 00 	mov    %rax,0xc0(%rsp)
    6072:	00 
    6073:	4c 8b 2d 76 2d 23 00 	mov    0x232d76(%rip),%r13        # 238df0 <sigaction@GLIBC_2.2.5>
    607a:	45 31 f6             	xor    %r14d,%r14d
    607d:	48 8d 9c 24 c0 00 00 	lea    0xc0(%rsp),%rbx
    6084:	00 
    6085:	bf 0b 00 00 00       	mov    $0xb,%edi
    608a:	48 89 de             	mov    %rbx,%rsi
    608d:	31 d2                	xor    %edx,%edx
    608f:	c5 f8 77             	vzeroupper 
    6092:	41 ff d5             	callq  *%r13
    6095:	bf 07 00 00 00       	mov    $0x7,%edi
    609a:	48 89 de             	mov    %rbx,%rsi
    609d:	31 d2                	xor    %edx,%edx
    609f:	41 ff d5             	callq  *%r13
    60a2:	c5 f8 57 c0          	vxorps %xmm0,%xmm0,%xmm0
    60a6:	c5 f8 29 44 24 20    	vmovaps %xmm0,0x20(%rsp)
    60ac:	48 c7 44 24 30 00 00 	movq   $0x0,0x30(%rsp)
    60b3:	00 00 
    60b5:	48 8d 74 24 20       	lea    0x20(%rsp),%rsi
    60ba:	31 ff                	xor    %edi,%edi
    60bc:	ff 15 fe 2e 23 00    	callq  *0x232efe(%rip)        # 238fc0 <sigaltstack@GLIBC_2.2.5>
    60c2:	f6 44 24 28 02       	testb  $0x2,0x28(%rsp)
    60c7:	74 55                	je     611e <main+0x28e>
    60c9:	be 00 20 00 00       	mov    $0x2000,%esi
    60ce:	bf 00 00 00 00       	mov    $0x0,%edi
    60d3:	ba 03 00 00 00       	mov    $0x3,%edx
    60d8:	b9 22 00 00 00       	mov    $0x22,%ecx
    60dd:	41 b8 ff ff ff ff    	mov    $0xffffffff,%r8d
    60e3:	45 31 c9             	xor    %r9d,%r9d
    60e6:	ff 15 5c 2d 23 00    	callq  *0x232d5c(%rip)        # 238e48 <mmap@GLIBC_2.2.5>
    60ec:	48 83 f8 ff          	cmp    $0xffffffffffffffff,%rax
    60f0:	0f 84 c6 03 00 00    	je     64bc <main+0x62c>
    60f6:	48 89 44 24 20       	mov    %rax,0x20(%rsp)
    60fb:	c7 44 24 28 00 00 00 	movl   $0x0,0x28(%rsp)
    6102:	00 
    6103:	48 c7 44 24 30 00 20 	movq   $0x2000,0x30(%rsp)
    610a:	00 00 
    610c:	48 8d 7c 24 20       	lea    0x20(%rsp),%rdi
    6111:	31 f6                	xor    %esi,%esi
    6113:	ff 15 a7 2e 23 00    	callq  *0x232ea7(%rip)        # 238fc0 <sigaltstack@GLIBC_2.2.5>
    6119:	4c 8b 74 24 20       	mov    0x20(%rsp),%r14
    611e:	4c 89 35 8b 30 23 00 	mov    %r14,0x23308b(%rip)        # 2391b0 <_ZN3std3sys4unix14stack_overflow3imp13MAIN_ALTSTACK17h264a7759a758f34eE>
    6125:	bf 04 00 00 00       	mov    $0x4,%edi
    612a:	ff 15 f0 2d 23 00    	callq  *0x232df0(%rip)        # 238f20 <malloc@GLIBC_2.2.5>
    6130:	48 85 c0             	test   %rax,%rax
    6133:	0f 84 0c 03 00 00    	je     6445 <main+0x5b5>
    6139:	c7 00 6d 61 69 6e    	movl   $0x6e69616d,(%rax)
    613f:	48 89 84 24 c0 00 00 	mov    %rax,0xc0(%rsp)
    6146:	00 
    6147:	c5 f8 28 05 41 7c 02 	vmovaps 0x27c41(%rip),%xmm0        # 2dd90 <_fini+0x18c>
    614e:	00 
    614f:	c5 f8 11 84 24 c8 00 	vmovups %xmm0,0xc8(%rsp)
    6156:	00 00 
    6158:	48 8d bc 24 c0 00 00 	lea    0xc0(%rsp),%rdi
    615f:	00 
    6160:	e8 bb 0b 01 00       	callq  16d20 <_ZN3std6thread6Thread3new17h4aa6d776ccf79e9dE>
    6165:	49 89 c6             	mov    %rax,%r14
    6168:	48 89 44 24 60       	mov    %rax,0x60(%rsp)
    616d:	64 48 83 3c 25 60 ff 	cmpq   $0x1,%fs:0xffffffffffffff60
    6174:	ff ff 01 
    6177:	75 20                	jne    6199 <main+0x309>
    6179:	64 48 8b 04 25 00 00 	mov    %fs:0x0,%rax
    6180:	00 00 
    6182:	48 8d 80 68 ff ff ff 	lea    -0x98(%rax),%rax
    6189:	48 8b 08             	mov    (%rax),%rcx
    618c:	48 ff c1             	inc    %rcx
    618f:	48 85 c9             	test   %rcx,%rcx
    6192:	7f 22                	jg     61b6 <main+0x326>
    6194:	e9 bd 02 00 00       	jmpq   6456 <main+0x5c6>
    6199:	e8 b2 08 01 00       	callq  16a50 <_ZN3std6thread5local4fast12Key$LT$T$GT$14try_initialize17h181e6352b875e74bE>
    619e:	48 85 c0             	test   %rax,%rax
    61a1:	0f 84 2f 03 00 00    	je     64d6 <main+0x646>
    61a7:	48 8b 08             	mov    (%rax),%rcx
    61aa:	48 ff c1             	inc    %rcx
    61ad:	48 85 c9             	test   %rcx,%rcx
    61b0:	0f 8e a0 02 00 00    	jle    6456 <main+0x5c6>
    61b6:	48 83 78 08 02       	cmpq   $0x2,0x8(%rax)
    61bb:	0f 85 bb 02 00 00    	jne    647c <main+0x5ec>
    61c1:	48 8b 84 24 90 00 00 	mov    0x90(%rsp),%rax
    61c8:	00 
    61c9:	48 89 44 24 20       	mov    %rax,0x20(%rsp)
    61ce:	4c 89 64 24 28       	mov    %r12,0x28(%rsp)
    61d3:	4c 89 7c 24 30       	mov    %r15,0x30(%rsp)
    61d8:	4c 89 74 24 38       	mov    %r14,0x38(%rsp)
    61dd:	64 48 83 3c 25 60 ff 	cmpq   $0x1,%fs:0xffffffffffffff60
    61e4:	ff ff 01 
    61e7:	75 12                	jne    61fb <main+0x36b>
    61e9:	64 48 8b 04 25 00 00 	mov    %fs:0x0,%rax
    61f0:	00 00 
    61f2:	48 8d 98 68 ff ff ff 	lea    -0x98(%rax),%rbx
    61f9:	eb 11                	jmp    620c <main+0x37c>
    61fb:	e8 50 08 01 00       	callq  16a50 <_ZN3std6thread5local4fast12Key$LT$T$GT$14try_initialize17h181e6352b875e74bE>
    6200:	48 89 c3             	mov    %rax,%rbx
    6203:	48 85 c0             	test   %rax,%rax
    6206:	0f 84 f0 02 00 00    	je     64fc <main+0x66c>
    620c:	48 8b 44 24 30       	mov    0x30(%rsp),%rax
    6211:	48 89 84 24 d0 00 00 	mov    %rax,0xd0(%rsp)
    6218:	00 
    6219:	c5 f8 10 44 24 20    	vmovups 0x20(%rsp),%xmm0
    621f:	c5 f8 29 84 24 c0 00 	vmovaps %xmm0,0xc0(%rsp)
    6226:	00 00 
    6228:	4c 89 b4 24 d8 00 00 	mov    %r14,0xd8(%rsp)
    622f:	00 
    6230:	48 83 3b 00          	cmpq   $0x0,(%rbx)
    6234:	0f 85 5c 02 00 00    	jne    6496 <main+0x606>
    623a:	48 c7 03 ff ff ff ff 	movq   $0xffffffffffffffff,(%rbx)
    6241:	4c 8d 73 08          	lea    0x8(%rbx),%r14
    6245:	48 83 7b 08 02       	cmpq   $0x2,0x8(%rbx)
    624a:	74 13                	je     625f <main+0x3cf>
    624c:	48 8b 43 20          	mov    0x20(%rbx),%rax
    6250:	f0 48 ff 08          	lock decq (%rax)
    6254:	75 09                	jne    625f <main+0x3cf>
    6256:	48 8d 7b 20          	lea    0x20(%rbx),%rdi
    625a:	e8 11 10 01 00       	callq  17270 <_ZN5alloc4sync12Arc$LT$T$GT$9drop_slow17h671cd2375e6e21b7E>
    625f:	c5 fc 10 84 24 c0 00 	vmovups 0xc0(%rsp),%ymm0
    6266:	00 00 
    6268:	c4 c1 7c 11 06       	vmovups %ymm0,(%r14)
    626d:	48 ff 03             	incq   (%rbx)
    6270:	48 8b bc 24 b0 00 00 	mov    0xb0(%rsp),%rdi
    6277:	00 
    6278:	48 8b b4 24 b8 00 00 	mov    0xb8(%rsp),%rsi
    627f:	00 
    6280:	c5 f8 77             	vzeroupper 
    6283:	e8 28 9e 01 00       	callq  200b0 <_ZN3std10sys_common9backtrace28__rust_begin_short_backtrace17hcbc62328ecb87c1cE>
    6288:	89 84 24 c4 00 00 00 	mov    %eax,0xc4(%rsp)
    628f:	31 c0                	xor    %eax,%eax
    6291:	89 84 24 c0 00 00 00 	mov    %eax,0xc0(%rsp)
    6298:	48 8b 05 09 2f 23 00 	mov    0x232f09(%rip),%rax        # 2391a8 <_ZN3std10sys_common7cleanup7CLEANUP17he74d084b7257e166E>
    629f:	48 83 f8 03          	cmp    $0x3,%rax
    62a3:	74 19                	je     62be <main+0x42e>
    62a5:	c6 44 24 60 01       	movb   $0x1,0x60(%rsp)
    62aa:	48 8d 44 24 60       	lea    0x60(%rsp),%rax
    62af:	48 89 44 24 20       	mov    %rax,0x20(%rsp)
    62b4:	48 8d 7c 24 20       	lea    0x20(%rsp),%rdi
    62b9:	e8 a2 8c 01 00       	callq  1ef60 <_ZN3std4sync4once4Once10call_inner17hfabbd1bc15485aefE>
    62be:	8b 84 24 c0 00 00 00 	mov    0xc0(%rsp),%eax
    62c5:	4c 8b bc 24 c8 00 00 	mov    0xc8(%rsp),%r15
    62cc:	00 
    62cd:	4c 8b a4 24 d0 00 00 	mov    0xd0(%rsp),%r12
    62d4:	00 
    62d5:	bb 65 00 00 00       	mov    $0x65,%ebx
    62da:	83 f8 01             	cmp    $0x1,%eax
    62dd:	74 07                	je     62e6 <main+0x456>
    62df:	8b 9c 24 c4 00 00 00 	mov    0xc4(%rsp),%ebx
    62e6:	85 c0                	test   %eax,%eax
    62e8:	74 18                	je     6302 <main+0x472>
    62ea:	4c 89 ff             	mov    %r15,%rdi
    62ed:	41 ff 14 24          	callq  *(%r12)
    62f1:	49 83 7c 24 08 00    	cmpq   $0x0,0x8(%r12)
    62f7:	74 09                	je     6302 <main+0x472>
    62f9:	4c 89 ff             	mov    %r15,%rdi
    62fc:	ff 15 ae 2a 23 00    	callq  *0x232aae(%rip)        # 238db0 <free@GLIBC_2.2.5>
    6302:	89 d8                	mov    %ebx,%eax
    6304:	48 8d 65 d8          	lea    -0x28(%rbp),%rsp
    6308:	5b                   	pop    %rbx
    6309:	41 5c                	pop    %r12
    630b:	41 5d                	pop    %r13
    630d:	41 5e                	pop    %r14
    630f:	41 5f                	pop    %r15
    6311:	5d                   	pop    %rbp
    6312:	c3                   	retq   
    6313:	48 8d 3d ac ac 02 00 	lea    0x2acac(%rip),%rdi        # 30fc6 <_ZN4core7unicode12unicode_data2cc6BITSET17h5201257bcf8f09faE+0xd66>
    631a:	48 8d 15 07 27 23 00 	lea    0x232707(%rip),%rdx        # 238a28 <__init_array_end+0x1438>
    6321:	be 47 00 00 00       	mov    $0x47,%esi
    6326:	e8 f5 11 01 00       	callq  17520 <_ZN3std9panicking11begin_panic17hc5f3eabb2c219d56E>
    632b:	0f 0b                	ud2    
    632d:	48 8d 3d 0c 7a 02 00 	lea    0x27a0c(%rip),%rdi        # 2dd40 <_fini+0x13c>
    6334:	48 8d 15 4d 27 23 00 	lea    0x23274d(%rip),%rdx        # 238a88 <__init_array_end+0x1498>
    633b:	be 20 00 00 00       	mov    $0x20,%esi
    6340:	e8 db 11 01 00       	callq  17520 <_ZN3std9panicking11begin_panic17hc5f3eabb2c219d56E>
    6345:	0f 0b                	ud2    
    6347:	48 8d 44 24 50       	lea    0x50(%rsp),%rax
    634c:	48 89 44 24 58       	mov    %rax,0x58(%rsp)
    6351:	48 8d 05 48 9a 02 00 	lea    0x29a48(%rip),%rax        # 2fda0 <_ZN4core7unicode12unicode_data15grapheme_extend6BITSET17h68ce7f61ccfa32feE+0x9f8>
    6358:	48 89 44 24 18       	mov    %rax,0x18(%rsp)
    635d:	48 8d 44 24 58       	lea    0x58(%rsp),%rax
    6362:	48 89 44 24 60       	mov    %rax,0x60(%rsp)
    6367:	48 8d 05 52 12 01 00 	lea    0x11252(%rip),%rax        # 175c0 <_ZN42_$LT$$RF$T$u20$as$u20$core..fmt..Debug$GT$3fmt17h60ee9c74ee2aa888E>
    636e:	48 89 44 24 68       	mov    %rax,0x68(%rsp)
    6373:	48 8d 4c 24 18       	lea    0x18(%rsp),%rcx
    6378:	48 89 4c 24 70       	mov    %rcx,0x70(%rsp)
    637d:	48 89 44 24 78       	mov    %rax,0x78(%rsp)
    6382:	48 8d 05 97 1c 23 00 	lea    0x231c97(%rip),%rax        # 238020 <__init_array_end+0xa30>
    6389:	48 89 44 24 20       	mov    %rax,0x20(%rsp)
    638e:	48 c7 44 24 28 03 00 	movq   $0x3,0x28(%rsp)
    6395:	00 00 
    6397:	48 c7 44 24 30 00 00 	movq   $0x0,0x30(%rsp)
    639e:	00 00 
    63a0:	48 8d 44 24 60       	lea    0x60(%rsp),%rax
    63a5:	48 89 44 24 40       	mov    %rax,0x40(%rsp)
    63aa:	48 c7 44 24 48 02 00 	movq   $0x2,0x48(%rsp)
    63b1:	00 00 
    63b3:	48 8d 35 86 26 23 00 	lea    0x232686(%rip),%rsi        # 238a40 <__init_array_end+0x1450>
    63ba:	48 8d 7c 24 20       	lea    0x20(%rsp),%rdi
    63bf:	e8 0c 14 01 00       	callq  177d0 <_ZN3std9panicking15begin_panic_fmt17h7fd3ef9bf535b4d1E>
    63c4:	0f 0b                	ud2    
    63c6:	48 8d 44 24 50       	lea    0x50(%rsp),%rax
    63cb:	48 89 44 24 58       	mov    %rax,0x58(%rsp)
    63d0:	48 8d 05 c9 99 02 00 	lea    0x299c9(%rip),%rax        # 2fda0 <_ZN4core7unicode12unicode_data15grapheme_extend6BITSET17h68ce7f61ccfa32feE+0x9f8>
    63d7:	48 89 44 24 18       	mov    %rax,0x18(%rsp)
    63dc:	48 8d 44 24 58       	lea    0x58(%rsp),%rax
    63e1:	48 89 44 24 60       	mov    %rax,0x60(%rsp)
    63e6:	48 8d 05 d3 11 01 00 	lea    0x111d3(%rip),%rax        # 175c0 <_ZN42_$LT$$RF$T$u20$as$u20$core..fmt..Debug$GT$3fmt17h60ee9c74ee2aa888E>
    63ed:	48 89 44 24 68       	mov    %rax,0x68(%rsp)
    63f2:	48 8d 4c 24 18       	lea    0x18(%rsp),%rcx
    63f7:	48 89 4c 24 70       	mov    %rcx,0x70(%rsp)
    63fc:	48 89 44 24 78       	mov    %rax,0x78(%rsp)
    6401:	48 8d 05 18 1c 23 00 	lea    0x231c18(%rip),%rax        # 238020 <__init_array_end+0xa30>
    6408:	48 89 44 24 20       	mov    %rax,0x20(%rsp)
    640d:	48 c7 44 24 28 03 00 	movq   $0x3,0x28(%rsp)
    6414:	00 00 
    6416:	48 c7 44 24 30 00 00 	movq   $0x0,0x30(%rsp)
    641d:	00 00 
    641f:	48 8d 44 24 60       	lea    0x60(%rsp),%rax
    6424:	48 89 44 24 40       	mov    %rax,0x40(%rsp)
    6429:	48 c7 44 24 48 02 00 	movq   $0x2,0x48(%rsp)
    6430:	00 00 
    6432:	48 8d 35 37 26 23 00 	lea    0x232637(%rip),%rsi        # 238a70 <__init_array_end+0x1480>
    6439:	48 8d 7c 24 20       	lea    0x20(%rsp),%rdi
    643e:	e8 8d 13 01 00       	callq  177d0 <_ZN3std9panicking15begin_panic_fmt17h7fd3ef9bf535b4d1E>
    6443:	0f 0b                	ud2    
    6445:	bf 04 00 00 00       	mov    $0x4,%edi
    644a:	be 01 00 00 00       	mov    $0x1,%esi
    644f:	e8 8c 03 00 00       	callq  67e0 <_ZN5alloc5alloc18handle_alloc_error17hf7bb8682f6c8b1d7E>
    6454:	0f 0b                	ud2    
    6456:	48 8d 3d a7 a0 02 00 	lea    0x2a0a7(%rip),%rdi        # 30504 <_ZN4core7unicode12unicode_data2cc6BITSET17h5201257bcf8f09faE+0x2a4>
    645d:	48 8d 0d cc 1a 23 00 	lea    0x231acc(%rip),%rcx        # 237f30 <__init_array_end+0x940>
    6464:	4c 8d 05 e5 1a 23 00 	lea    0x231ae5(%rip),%r8        # 237f50 <__init_array_end+0x960>
    646b:	48 8d 54 24 18       	lea    0x18(%rsp),%rdx
    6470:	be 18 00 00 00       	mov    $0x18,%esi
    6475:	e8 06 4b 00 00       	callq  af80 <_ZN4core6option18expect_none_failed17he0fec195c6e4c2ecE>
    647a:	eb 7e                	jmp    64fa <main+0x66a>
    647c:	48 8d 3d df aa 02 00 	lea    0x2aadf(%rip),%rdi        # 30f62 <_ZN4core7unicode12unicode_data2cc6BITSET17h5201257bcf8f09faE+0xd02>
    6483:	48 8d 15 56 25 23 00 	lea    0x232556(%rip),%rdx        # 2389e0 <__init_array_end+0x13f0>
    648a:	be 26 00 00 00       	mov    $0x26,%esi
    648f:	e8 8c 10 01 00       	callq  17520 <_ZN3std9panicking11begin_panic17hc5f3eabb2c219d56E>
    6494:	eb 64                	jmp    64fa <main+0x66a>
    6496:	48 8d 3d 23 7a 02 00 	lea    0x27a23(%rip),%rdi        # 2dec0 <_ZN4core7unicode12unicode_data2cc19BITSET_INDEX_CHUNKS17h8a1f39cd536e9344E+0x20>
    649d:	48 8d 0d c4 1a 23 00 	lea    0x231ac4(%rip),%rcx        # 237f68 <__init_array_end+0x978>
    64a4:	4c 8d 05 dd 1a 23 00 	lea    0x231add(%rip),%r8        # 237f88 <__init_array_end+0x998>
    64ab:	48 8d 54 24 18       	lea    0x18(%rsp),%rdx
    64b0:	be 10 00 00 00       	mov    $0x10,%esi
    64b5:	e8 c6 4a 00 00       	callq  af80 <_ZN4core6option18expect_none_failed17he0fec195c6e4c2ecE>
    64ba:	eb 3e                	jmp    64fa <main+0x66a>
    64bc:	48 8d 3d 86 ab 02 00 	lea    0x2ab86(%rip),%rdi        # 31049 <str.0+0x39>
    64c3:	48 8d 15 ee 25 23 00 	lea    0x2325ee(%rip),%rdx        # 238ab8 <__init_array_end+0x14c8>
    64ca:	be 27 00 00 00       	mov    $0x27,%esi
    64cf:	e8 4c 10 01 00       	callq  17520 <_ZN3std9panicking11begin_panic17hc5f3eabb2c219d56E>
    64d4:	0f 0b                	ud2    
    64d6:	48 8d 3d e3 a3 02 00 	lea    0x2a3e3(%rip),%rdi        # 308c0 <_ZN4core7unicode12unicode_data2cc6BITSET17h5201257bcf8f09faE+0x660>
    64dd:	48 8d 0d 94 1f 23 00 	lea    0x231f94(%rip),%rcx        # 238478 <__init_array_end+0xe88>
    64e4:	4c 8d 05 ad 1f 23 00 	lea    0x231fad(%rip),%r8        # 238498 <__init_array_end+0xea8>
    64eb:	48 8d 54 24 18       	lea    0x18(%rsp),%rdx
    64f0:	be 46 00 00 00       	mov    $0x46,%esi
    64f5:	e8 86 4a 00 00       	callq  af80 <_ZN4core6option18expect_none_failed17he0fec195c6e4c2ecE>
    64fa:	0f 0b                	ud2    
    64fc:	f0 49 ff 0e          	lock decq (%r14)
    6500:	75 0a                	jne    650c <main+0x67c>
    6502:	48 8d 7c 24 38       	lea    0x38(%rsp),%rdi
    6507:	e8 64 0d 01 00       	callq  17270 <_ZN5alloc4sync12Arc$LT$T$GT$9drop_slow17h671cd2375e6e21b7E>
    650c:	48 8d 3d ad a3 02 00 	lea    0x2a3ad(%rip),%rdi        # 308c0 <_ZN4core7unicode12unicode_data2cc6BITSET17h5201257bcf8f09faE+0x660>
    6513:	48 8d 0d 5e 1f 23 00 	lea    0x231f5e(%rip),%rcx        # 238478 <__init_array_end+0xe88>
    651a:	4c 8d 05 77 1f 23 00 	lea    0x231f77(%rip),%r8        # 238498 <__init_array_end+0xea8>
    6521:	48 8d 54 24 18       	lea    0x18(%rsp),%rdx
    6526:	be 46 00 00 00       	mov    $0x46,%esi
    652b:	e8 50 4a 00 00       	callq  af80 <_ZN4core6option18expect_none_failed17he0fec195c6e4c2ecE>
    6530:	0f 0b                	ud2    
    6532:	48 8d 84 24 84 00 00 	lea    0x84(%rsp),%rax
    6539:	00 
    653a:	48 89 44 24 58       	mov    %rax,0x58(%rsp)
    653f:	48 8d 05 5a 98 02 00 	lea    0x2985a(%rip),%rax        # 2fda0 <_ZN4core7unicode12unicode_data15grapheme_extend6BITSET17h68ce7f61ccfa32feE+0x9f8>
    6546:	48 89 44 24 18       	mov    %rax,0x18(%rsp)
    654b:	48 8d 44 24 58       	lea    0x58(%rsp),%rax
    6550:	48 89 44 24 60       	mov    %rax,0x60(%rsp)
    6555:	48 8d 05 64 10 01 00 	lea    0x11064(%rip),%rax        # 175c0 <_ZN42_$LT$$RF$T$u20$as$u20$core..fmt..Debug$GT$3fmt17h60ee9c74ee2aa888E>
    655c:	48 89 44 24 68       	mov    %rax,0x68(%rsp)
    6561:	48 8d 4c 24 18       	lea    0x18(%rsp),%rcx
    6566:	48 89 4c 24 70       	mov    %rcx,0x70(%rsp)
    656b:	48 89 44 24 78       	mov    %rax,0x78(%rsp)
    6570:	48 8d 05 a9 1a 23 00 	lea    0x231aa9(%rip),%rax        # 238020 <__init_array_end+0xa30>
    6577:	48 89 44 24 20       	mov    %rax,0x20(%rsp)
    657c:	48 c7 44 24 28 03 00 	movq   $0x3,0x28(%rsp)
    6583:	00 00 
    6585:	48 c7 44 24 30 00 00 	movq   $0x0,0x30(%rsp)
    658c:	00 00 
    658e:	48 8d 44 24 60       	lea    0x60(%rsp),%rax
    6593:	48 89 44 24 40       	mov    %rax,0x40(%rsp)
    6598:	48 c7 44 24 48 02 00 	movq   $0x2,0x48(%rsp)
    659f:	00 00 
    65a1:	48 8d 35 b0 24 23 00 	lea    0x2324b0(%rip),%rsi        # 238a58 <__init_array_end+0x1468>
    65a8:	48 8d 7c 24 20       	lea    0x20(%rsp),%rdi
    65ad:	e8 1e 12 01 00       	callq  177d0 <_ZN3std9panicking15begin_panic_fmt17h7fd3ef9bf535b4d1E>
    65b2:	0f 0b                	ud2    
    65b4:	48 8d 3d 55 aa 02 00 	lea    0x2aa55(%rip),%rdi        # 31010 <str.0>
    65bb:	48 8d 15 de 24 23 00 	lea    0x2324de(%rip),%rdx        # 238aa0 <__init_array_end+0x14b0>
    65c2:	be 39 00 00 00       	mov    $0x39,%esi
    65c7:	e8 04 21 00 00       	callq  86d0 <_ZN4core9panicking5panic17h6861470adfbddef8E>
    65cc:	0f 0b                	ud2    
    65ce:	49 89 c6             	mov    %rax,%r14
    65d1:	48 8d bc 24 c0 00 00 	lea    0xc0(%rsp),%rdi
    65d8:	00 
    65d9:	e8 02 0d 01 00       	callq  172e0 <_ZN4core3ptr13drop_in_place17h18d5975e844cd51eE>
    65de:	4c 89 f7             	mov    %r14,%rdi
    65e1:	e8 4a d1 ff ff       	callq  3730 <_Unwind_Resume@plt>
    65e6:	0f 0b                	ud2    
    65e8:	49 89 c6             	mov    %rax,%r14
    65eb:	48 8d bc 24 c0 00 00 	lea    0xc0(%rsp),%rdi
    65f2:	00 
    65f3:	e8 58 9a 01 00       	callq  20050 <_ZN4core3ptr13drop_in_place17h900fcba381d9a228E>
    65f8:	4c 89 f7             	mov    %r14,%rdi
    65fb:	e8 30 d1 ff ff       	callq  3730 <_Unwind_Resume@plt>
    6600:	0f 0b                	ud2    
    6602:	49 89 c6             	mov    %rax,%r14
    6605:	48 8d 7c 24 20       	lea    0x20(%rsp),%rdi
    660a:	e8 31 96 01 00       	callq  1fc40 <_ZN4core3ptr13drop_in_place17h0b0c9c9dbcb8881cE>
    660f:	4c 89 f7             	mov    %r14,%rdi
    6612:	e8 19 d1 ff ff       	callq  3730 <_Unwind_Resume@plt>
    6617:	0f 0b                	ud2    
    6619:	49 89 c6             	mov    %rax,%r14
    661c:	48 8d 7c 24 60       	lea    0x60(%rsp),%rdi
    6621:	e8 5a 6e 01 00       	callq  1d480 <_ZN4core3ptr13drop_in_place17hda96a1da1fd89bf6E>
    6626:	4c 89 f7             	mov    %r14,%rdi
    6629:	e8 02 d1 ff ff       	callq  3730 <_Unwind_Resume@plt>
    662e:	0f 0b                	ud2    
    6630:	49 89 c6             	mov    %rax,%r14
    6633:	4c 89 ff             	mov    %r15,%rdi
    6636:	4c 89 e6             	mov    %r12,%rsi
    6639:	e8 d2 20 01 00       	callq  18710 <_ZN5alloc5alloc8box_free17h3741427eaa5804e6E>
    663e:	4c 89 f7             	mov    %r14,%rdi
    6641:	e8 ea d0 ff ff       	callq  3730 <_Unwind_Resume@plt>
    6646:	0f 0b                	ud2    
    6648:	c5 fa 6f 40 40       	vmovdqu 0x40(%rax),%xmm0
    664d:	c5 f9 7f 84 24 90 00 	vmovdqa %xmm0,0x90(%rsp)
    6654:	00 00 
    6656:	48 89 c7             	mov    %rax,%rdi
    6659:	ff 15 51 27 23 00    	callq  *0x232751(%rip)        # 238db0 <free@GLIBC_2.2.5>
    665f:	64 48 83 3c 25 a0 ff 	cmpq   $0x1,%fs:0xffffffffffffffa0
    6666:	ff ff 01 
    6669:	75 0e                	jne    6679 <main+0x7e9>
    666b:	64 48 8b 04 25 a8 ff 	mov    %fs:0xffffffffffffffa8,%rax
    6672:	ff ff 
    6674:	48 ff c8             	dec    %rax
    6677:	eb 1b                	jmp    6694 <main+0x804>
    6679:	b8 01 00 00 00       	mov    $0x1,%eax
    667e:	c4 e1 f9 6e c0       	vmovq  %rax,%xmm0
    6683:	64 c5 f9 7f 04 25 a0 	vmovdqa %xmm0,%fs:0xffffffffffffffa0
    668a:	ff ff ff 
    668d:	48 c7 c0 ff ff ff ff 	mov    $0xffffffffffffffff,%rax
    6694:	64 48 89 04 25 a8 ff 	mov    %rax,%fs:0xffffffffffffffa8
    669b:	ff ff 
    669d:	c5 f8 28 84 24 90 00 	vmovaps 0x90(%rsp),%xmm0
    66a4:	00 00 
    66a6:	c5 f8 11 84 24 c8 00 	vmovups %xmm0,0xc8(%rsp)
    66ad:	00 00 
    66af:	b8 01 00 00 00       	mov    $0x1,%eax
    66b4:	89 84 24 c0 00 00 00 	mov    %eax,0xc0(%rsp)
    66bb:	48 8b 05 e6 2a 23 00 	mov    0x232ae6(%rip),%rax        # 2391a8 <_ZN3std10sys_common7cleanup7CLEANUP17he74d084b7257e166E>
    66c2:	48 83 f8 03          	cmp    $0x3,%rax
    66c6:	0f 85 d9 fb ff ff    	jne    62a5 <main+0x415>
    66cc:	e9 ed fb ff ff       	jmpq   62be <main+0x42e>
    66d1:	66 2e 0f 1f 84 00 00 	nopw   %cs:0x0(%rax,%rax,1)
    66d8:	00 00 00 
    66db:	0f 1f 44 00 00       	nopl   0x0(%rax,%rax,1)

00000000000066e0 <__rust_alloc>:
    66e0:	50                   	push   %rax
    66e1:	48 89 fa             	mov    %rdi,%rdx
    66e4:	48 83 fe 10          	cmp    $0x10,%rsi
    66e8:	77 0f                	ja     66f9 <__rust_alloc+0x19>
    66ea:	48 39 d6             	cmp    %rdx,%rsi
    66ed:	77 0a                	ja     66f9 <__rust_alloc+0x19>
    66ef:	48 89 d7             	mov    %rdx,%rdi
    66f2:	58                   	pop    %rax
    66f3:	ff 25 27 28 23 00    	jmpq   *0x232827(%rip)        # 238f20 <malloc@GLIBC_2.2.5>
    66f9:	48 c7 04 24 00 00 00 	movq   $0x0,(%rsp)
    6700:	00 
    6701:	48 83 fe 08          	cmp    $0x8,%rsi
    6705:	b8 08 00 00 00       	mov    $0x8,%eax
    670a:	48 0f 47 c6          	cmova  %rsi,%rax
    670e:	48 89 e7             	mov    %rsp,%rdi
    6711:	48 89 c6             	mov    %rax,%rsi
    6714:	ff 15 96 28 23 00    	callq  *0x232896(%rip)        # 238fb0 <posix_memalign@GLIBC_2.2.5>
    671a:	85 c0                	test   %eax,%eax
    671c:	75 06                	jne    6724 <__rust_alloc+0x44>
    671e:	48 8b 04 24          	mov    (%rsp),%rax
    6722:	59                   	pop    %rcx
    6723:	c3                   	retq   
    6724:	31 c0                	xor    %eax,%eax
    6726:	59                   	pop    %rcx
    6727:	c3                   	retq   
    6728:	0f 1f 84 00 00 00 00 	nopl   0x0(%rax,%rax,1)
    672f:	00 

0000000000006730 <__rust_dealloc>:
    6730:	ff 25 7a 26 23 00    	jmpq   *0x23267a(%rip)        # 238db0 <free@GLIBC_2.2.5>
    6736:	66 2e 0f 1f 84 00 00 	nopw   %cs:0x0(%rax,%rax,1)
    673d:	00 00 00 

0000000000006740 <__rust_realloc>:
    6740:	41 57                	push   %r15
    6742:	41 56                	push   %r14
    6744:	41 54                	push   %r12
    6746:	53                   	push   %rbx
    6747:	50                   	push   %rax
    6748:	48 89 cb             	mov    %rcx,%rbx
    674b:	49 89 f7             	mov    %rsi,%r15
    674e:	49 89 fe             	mov    %rdi,%r14
    6751:	48 83 fa 10          	cmp    $0x10,%rdx
    6755:	77 1c                	ja     6773 <__rust_realloc+0x33>
    6757:	48 39 da             	cmp    %rbx,%rdx
    675a:	77 17                	ja     6773 <__rust_realloc+0x33>
    675c:	4c 89 f7             	mov    %r14,%rdi
    675f:	48 89 de             	mov    %rbx,%rsi
    6762:	48 83 c4 08          	add    $0x8,%rsp
    6766:	5b                   	pop    %rbx
    6767:	41 5c                	pop    %r12
    6769:	41 5e                	pop    %r14
    676b:	41 5f                	pop    %r15
    676d:	ff 25 d5 27 23 00    	jmpq   *0x2327d5(%rip)        # 238f48 <realloc@GLIBC_2.2.5>
    6773:	48 c7 04 24 00 00 00 	movq   $0x0,(%rsp)
    677a:	00 
    677b:	48 83 fa 08          	cmp    $0x8,%rdx
    677f:	be 08 00 00 00       	mov    $0x8,%esi
    6784:	48 0f 47 f2          	cmova  %rdx,%rsi
    6788:	48 89 e7             	mov    %rsp,%rdi
    678b:	48 89 da             	mov    %rbx,%rdx
    678e:	ff 15 1c 28 23 00    	callq  *0x23281c(%rip)        # 238fb0 <posix_memalign@GLIBC_2.2.5>
    6794:	89 c1                	mov    %eax,%ecx
    6796:	31 c0                	xor    %eax,%eax
    6798:	85 c9                	test   %ecx,%ecx
    679a:	75 2b                	jne    67c7 <__rust_realloc+0x87>
    679c:	4c 8b 24 24          	mov    (%rsp),%r12
    67a0:	4d 85 e4             	test   %r12,%r12
    67a3:	74 22                	je     67c7 <__rust_realloc+0x87>
    67a5:	49 39 df             	cmp    %rbx,%r15
    67a8:	4c 0f 47 fb          	cmova  %rbx,%r15
    67ac:	4c 89 e7             	mov    %r12,%rdi
    67af:	4c 89 f6             	mov    %r14,%rsi
    67b2:	4c 89 fa             	mov    %r15,%rdx
    67b5:	ff 15 35 27 23 00    	callq  *0x232735(%rip)        # 238ef0 <memcpy@GLIBC_2.14>
    67bb:	4c 89 f7             	mov    %r14,%rdi
    67be:	ff 15 ec 25 23 00    	callq  *0x2325ec(%rip)        # 238db0 <free@GLIBC_2.2.5>
    67c4:	4c 89 e0             	mov    %r12,%rax
    67c7:	48 83 c4 08          	add    $0x8,%rsp
    67cb:	5b                   	pop    %rbx
    67cc:	41 5c                	pop    %r12
    67ce:	41 5e                	pop    %r14
    67d0:	41 5f                	pop    %r15
    67d2:	c3                   	retq   
    67d3:	66 2e 0f 1f 84 00 00 	nopw   %cs:0x0(%rax,%rax,1)
    67da:	00 00 00 
    67dd:	0f 1f 00             	nopl   (%rax)

00000000000067e0 <_ZN5alloc5alloc18handle_alloc_error17hf7bb8682f6c8b1d7E>:
    67e0:	50                   	push   %rax
    67e1:	e8 4a 95 01 00       	callq  1fd30 <rust_oom>
    67e6:	0f 0b                	ud2    
    67e8:	0f 1f 84 00 00 00 00 	nopl   0x0(%rax,%rax,1)
    67ef:	00 

00000000000067f0 <_ZN5alloc7raw_vec17capacity_overflow17h9be7d3ce681ac1a6E>:
    67f0:	50                   	push   %rax
    67f1:	48 8d 3d fe 7f 02 00 	lea    0x27ffe(%rip),%rdi        # 2e7f6 <_ZN4core7unicode12unicode_data2cc19BITSET_INDEX_CHUNKS17h8a1f39cd536e9344E+0x956>
    67f8:	48 8d 15 c1 0e 23 00 	lea    0x230ec1(%rip),%rdx        # 2376c0 <__init_array_end+0xd0>
    67ff:	be 11 00 00 00       	mov    $0x11,%esi
    6804:	e8 c7 1e 00 00       	callq  86d0 <_ZN4core9panicking5panic17h6861470adfbddef8E>
    6809:	0f 0b                	ud2    
    680b:	0f 1f 44 00 00       	nopl   0x0(%rax,%rax,1)

0000000000006810 <_ZN50_$LT$$BP$mut$u20$T$u20$as$u20$core..fmt..Debug$GT$3fmt17h0c22205dba98029aE>:
    6810:	55                   	push   %rbp
    6811:	53                   	push   %rbx
    6812:	48 81 ec 98 00 00 00 	sub    $0x98,%rsp
    6819:	48 89 f3             	mov    %rsi,%rbx
    681c:	48 8b 07             	mov    (%rdi),%rax
    681f:	f3 0f 6f 0e          	movdqu (%rsi),%xmm1
    6823:	8b 6e 30             	mov    0x30(%rsi),%ebp
    6826:	89 e9                	mov    %ebp,%ecx
    6828:	40 f6 c5 04          	test   $0x4,%bpl
    682c:	74 1d                	je     684b <_ZN50_$LT$$BP$mut$u20$T$u20$as$u20$core..fmt..Debug$GT$3fmt17h0c22205dba98029aE+0x3b>
    682e:	66 48 0f 7e ca       	movq   %xmm1,%rdx
    6833:	89 e9                	mov    %ebp,%ecx
    6835:	83 c9 08             	or     $0x8,%ecx
    6838:	89 4b 30             	mov    %ecx,0x30(%rbx)
    683b:	48 83 fa 01          	cmp    $0x1,%rdx
    683f:	74 0a                	je     684b <_ZN50_$LT$$BP$mut$u20$T$u20$as$u20$core..fmt..Debug$GT$3fmt17h0c22205dba98029aE+0x3b>
    6841:	0f 28 05 58 75 02 00 	movaps 0x27558(%rip),%xmm0        # 2dda0 <_fini+0x19c>
    6848:	0f 11 03             	movups %xmm0,(%rbx)
    684b:	83 c9 04             	or     $0x4,%ecx
    684e:	89 4b 30             	mov    %ecx,0x30(%rbx)
    6851:	4c 8d 84 24 98 00 00 	lea    0x98(%rsp),%r8
    6858:	00 
    6859:	45 31 c9             	xor    %r9d,%r9d
    685c:	48 89 c1             	mov    %rax,%rcx
    685f:	90                   	nop
    6860:	48 c1 e9 04          	shr    $0x4,%rcx
    6864:	24 0f                	and    $0xf,%al
    6866:	8d 50 30             	lea    0x30(%rax),%edx
    6869:	8d 70 57             	lea    0x57(%rax),%esi
    686c:	3c 0a                	cmp    $0xa,%al
    686e:	0f b6 c2             	movzbl %dl,%eax
    6871:	40 0f b6 d6          	movzbl %sil,%edx
    6875:	0f 42 d0             	cmovb  %eax,%edx
    6878:	41 88 50 ff          	mov    %dl,-0x1(%r8)
    687c:	49 83 c0 ff          	add    $0xffffffffffffffff,%r8
    6880:	49 83 c1 01          	add    $0x1,%r9
    6884:	48 89 c8             	mov    %rcx,%rax
    6887:	48 85 c9             	test   %rcx,%rcx
    688a:	75 d4                	jne    6860 <_ZN50_$LT$$BP$mut$u20$T$u20$as$u20$core..fmt..Debug$GT$3fmt17h0c22205dba98029aE+0x50>
    688c:	66 0f 7f 0c 24       	movdqa %xmm1,(%rsp)
    6891:	bf 80 00 00 00       	mov    $0x80,%edi
    6896:	4c 29 cf             	sub    %r9,%rdi
    6899:	48 81 ff 81 00 00 00 	cmp    $0x81,%rdi
    68a0:	73 2d                	jae    68cf <_ZN50_$LT$$BP$mut$u20$T$u20$as$u20$core..fmt..Debug$GT$3fmt17h0c22205dba98029aE+0xbf>
    68a2:	48 8d 15 48 9b 02 00 	lea    0x29b48(%rip),%rdx        # 303f1 <_ZN4core7unicode12unicode_data2cc6BITSET17h5201257bcf8f09faE+0x191>
    68a9:	b9 02 00 00 00       	mov    $0x2,%ecx
    68ae:	48 89 df             	mov    %rbx,%rdi
    68b1:	be 01 00 00 00       	mov    $0x1,%esi
    68b6:	e8 55 20 00 00       	callq  8910 <_ZN4core3fmt9Formatter12pad_integral17hc55c32e78eb96054E>
    68bb:	0f 28 04 24          	movaps (%rsp),%xmm0
    68bf:	0f 11 03             	movups %xmm0,(%rbx)
    68c2:	89 6b 30             	mov    %ebp,0x30(%rbx)
    68c5:	48 81 c4 98 00 00 00 	add    $0x98,%rsp
    68cc:	5b                   	pop    %rbx
    68cd:	5d                   	pop    %rbp
    68ce:	c3                   	retq   
    68cf:	be 80 00 00 00       	mov    $0x80,%esi
    68d4:	e8 97 26 00 00       	callq  8f70 <_ZN4core5slice22slice_index_order_fail17h7bcf2f94ba9e06deE>
    68d9:	0f 0b                	ud2    
    68db:	0f 1f 44 00 00       	nopl   0x0(%rax,%rax,1)

00000000000068e0 <_ZN9backtrace9symbolize6Symbol4name17h05b3ddd11e7b9af9E>:
    68e0:	41 57                	push   %r15
    68e2:	41 56                	push   %r14
    68e4:	53                   	push   %rbx
    68e5:	48 81 ec 00 01 00 00 	sub    $0x100,%rsp
    68ec:	48 89 fb             	mov    %rdi,%rbx
    68ef:	8b 06                	mov    (%rsi),%eax
    68f1:	48 85 c0             	test   %rax,%rax
    68f4:	0f 84 fe 00 00 00    	je     69f8 <_ZN9backtrace9symbolize6Symbol4name17h05b3ddd11e7b9af9E+0x118>
    68fa:	48 83 f8 01          	cmp    $0x1,%rax
    68fe:	0f 84 0e 01 00 00    	je     6a12 <_ZN9backtrace9symbolize6Symbol4name17h05b3ddd11e7b9af9E+0x132>
    6904:	4c 8b 76 18          	mov    0x18(%rsi),%r14
    6908:	4d 85 f6             	test   %r14,%r14
    690b:	0f 84 f4 00 00 00    	je     6a05 <_ZN9backtrace9symbolize6Symbol4name17h05b3ddd11e7b9af9E+0x125>
    6911:	4c 89 f7             	mov    %r14,%rdi
    6914:	ff 15 1e 25 23 00    	callq  *0x23251e(%rip)        # 238e38 <strlen@GLIBC_2.2.5>
    691a:	49 89 c7             	mov    %rax,%r15
    691d:	48 89 e7             	mov    %rsp,%rdi
    6920:	4c 89 f6             	mov    %r14,%rsi
    6923:	48 89 c2             	mov    %rax,%rdx
    6926:	e8 55 61 00 00       	callq  ca80 <_ZN4core3str9from_utf817ha5f1d279f7594d61E>
    692b:	48 83 3c 24 01       	cmpq   $0x1,(%rsp)
    6930:	b8 03 00 00 00       	mov    $0x3,%eax
    6935:	74 51                	je     6988 <_ZN9backtrace9symbolize6Symbol4name17h05b3ddd11e7b9af9E+0xa8>
    6937:	48 8b 74 24 08       	mov    0x8(%rsp),%rsi
    693c:	48 85 f6             	test   %rsi,%rsi
    693f:	74 47                	je     6988 <_ZN9backtrace9symbolize6Symbol4name17h05b3ddd11e7b9af9E+0xa8>
    6941:	48 8b 54 24 10       	mov    0x10(%rsp),%rdx
    6946:	48 89 e7             	mov    %rsp,%rdi
    6949:	e8 72 f1 00 00       	callq  15ac0 <_ZN14rustc_demangle12try_demangle17hf842abb1db86492cE>
    694e:	48 8b 0c 24          	mov    (%rsp),%rcx
    6952:	b8 03 00 00 00       	mov    $0x3,%eax
    6957:	48 83 f9 03          	cmp    $0x3,%rcx
    695b:	74 2b                	je     6988 <_ZN9backtrace9symbolize6Symbol4name17h05b3ddd11e7b9af9E+0xa8>
    695d:	48 8b 44 24 38       	mov    0x38(%rsp),%rax
    6962:	48 89 44 24 70       	mov    %rax,0x70(%rsp)
    6967:	0f 10 44 24 08       	movups 0x8(%rsp),%xmm0
    696c:	0f 10 4c 24 18       	movups 0x18(%rsp),%xmm1
    6971:	0f 10 54 24 28       	movups 0x28(%rsp),%xmm2
    6976:	0f 29 54 24 60       	movaps %xmm2,0x60(%rsp)
    697b:	0f 29 4c 24 50       	movaps %xmm1,0x50(%rsp)
    6980:	0f 29 44 24 40       	movaps %xmm0,0x40(%rsp)
    6985:	48 89 c8             	mov    %rcx,%rax
    6988:	48 8b 4c 24 70       	mov    0x70(%rsp),%rcx
    698d:	48 89 8c 24 b0 00 00 	mov    %rcx,0xb0(%rsp)
    6994:	00 
    6995:	0f 28 44 24 40       	movaps 0x40(%rsp),%xmm0
    699a:	0f 28 4c 24 50       	movaps 0x50(%rsp),%xmm1
    699f:	0f 28 54 24 60       	movaps 0x60(%rsp),%xmm2
    69a4:	0f 29 94 24 a0 00 00 	movaps %xmm2,0xa0(%rsp)
    69ab:	00 
    69ac:	0f 29 8c 24 90 00 00 	movaps %xmm1,0x90(%rsp)
    69b3:	00 
    69b4:	0f 29 84 24 80 00 00 	movaps %xmm0,0x80(%rsp)
    69bb:	00 
    69bc:	4c 89 33             	mov    %r14,(%rbx)
    69bf:	4c 89 7b 08          	mov    %r15,0x8(%rbx)
    69c3:	48 89 43 10          	mov    %rax,0x10(%rbx)
    69c7:	0f 28 84 24 80 00 00 	movaps 0x80(%rsp),%xmm0
    69ce:	00 
    69cf:	0f 28 8c 24 90 00 00 	movaps 0x90(%rsp),%xmm1
    69d6:	00 
    69d7:	0f 28 94 24 a0 00 00 	movaps 0xa0(%rsp),%xmm2
    69de:	00 
    69df:	0f 11 43 18          	movups %xmm0,0x18(%rbx)
    69e3:	0f 11 4b 28          	movups %xmm1,0x28(%rbx)
    69e7:	0f 11 53 38          	movups %xmm2,0x38(%rbx)
    69eb:	48 8b 84 24 b0 00 00 	mov    0xb0(%rsp),%rax
    69f2:	00 
    69f3:	e9 11 01 00 00       	jmpq   6b09 <_ZN9backtrace9symbolize6Symbol4name17h05b3ddd11e7b9af9E+0x229>
    69f8:	4c 8b 76 10          	mov    0x10(%rsi),%r14
    69fc:	4d 85 f6             	test   %r14,%r14
    69ff:	0f 85 0c ff ff ff    	jne    6911 <_ZN9backtrace9symbolize6Symbol4name17h05b3ddd11e7b9af9E+0x31>
    6a05:	48 c7 43 10 04 00 00 	movq   $0x4,0x10(%rbx)
    6a0c:	00 
    6a0d:	e9 fb 00 00 00       	jmpq   6b0d <_ZN9backtrace9symbolize6Symbol4name17h05b3ddd11e7b9af9E+0x22d>
    6a12:	4c 8b 76 18          	mov    0x18(%rsi),%r14
    6a16:	4d 85 f6             	test   %r14,%r14
    6a19:	0f 84 fb 00 00 00    	je     6b1a <_ZN9backtrace9symbolize6Symbol4name17h05b3ddd11e7b9af9E+0x23a>
    6a1f:	4c 89 f7             	mov    %r14,%rdi
    6a22:	ff 15 10 24 23 00    	callq  *0x232410(%rip)        # 238e38 <strlen@GLIBC_2.2.5>
    6a28:	49 89 c7             	mov    %rax,%r15
    6a2b:	48 89 e7             	mov    %rsp,%rdi
    6a2e:	4c 89 f6             	mov    %r14,%rsi
    6a31:	48 89 c2             	mov    %rax,%rdx
    6a34:	e8 47 60 00 00       	callq  ca80 <_ZN4core3str9from_utf817ha5f1d279f7594d61E>
    6a39:	48 83 3c 24 01       	cmpq   $0x1,(%rsp)
    6a3e:	b8 03 00 00 00       	mov    $0x3,%eax
    6a43:	74 51                	je     6a96 <_ZN9backtrace9symbolize6Symbol4name17h05b3ddd11e7b9af9E+0x1b6>
    6a45:	48 8b 74 24 08       	mov    0x8(%rsp),%rsi
    6a4a:	48 85 f6             	test   %rsi,%rsi
    6a4d:	74 47                	je     6a96 <_ZN9backtrace9symbolize6Symbol4name17h05b3ddd11e7b9af9E+0x1b6>
    6a4f:	48 8b 54 24 10       	mov    0x10(%rsp),%rdx
    6a54:	48 89 e7             	mov    %rsp,%rdi
    6a57:	e8 64 f0 00 00       	callq  15ac0 <_ZN14rustc_demangle12try_demangle17hf842abb1db86492cE>
    6a5c:	48 8b 0c 24          	mov    (%rsp),%rcx
    6a60:	b8 03 00 00 00       	mov    $0x3,%eax
    6a65:	48 83 f9 03          	cmp    $0x3,%rcx
    6a69:	74 2b                	je     6a96 <_ZN9backtrace9symbolize6Symbol4name17h05b3ddd11e7b9af9E+0x1b6>
    6a6b:	48 8b 44 24 38       	mov    0x38(%rsp),%rax
    6a70:	48 89 44 24 70       	mov    %rax,0x70(%rsp)
    6a75:	0f 10 44 24 08       	movups 0x8(%rsp),%xmm0
    6a7a:	0f 10 4c 24 18       	movups 0x18(%rsp),%xmm1
    6a7f:	0f 10 54 24 28       	movups 0x28(%rsp),%xmm2
    6a84:	0f 29 54 24 60       	movaps %xmm2,0x60(%rsp)
    6a89:	0f 29 4c 24 50       	movaps %xmm1,0x50(%rsp)
    6a8e:	0f 29 44 24 40       	movaps %xmm0,0x40(%rsp)
    6a93:	48 89 c8             	mov    %rcx,%rax
    6a96:	48 8b 4c 24 70       	mov    0x70(%rsp),%rcx
    6a9b:	48 89 8c 24 b0 00 00 	mov    %rcx,0xb0(%rsp)
    6aa2:	00 
    6aa3:	0f 28 44 24 40       	movaps 0x40(%rsp),%xmm0
    6aa8:	0f 28 4c 24 50       	movaps 0x50(%rsp),%xmm1
    6aad:	0f 28 54 24 60       	movaps 0x60(%rsp),%xmm2
    6ab2:	0f 29 84 24 c0 00 00 	movaps %xmm0,0xc0(%rsp)
    6ab9:	00 
    6aba:	0f 29 8c 24 d0 00 00 	movaps %xmm1,0xd0(%rsp)
    6ac1:	00 
    6ac2:	0f 29 94 24 e0 00 00 	movaps %xmm2,0xe0(%rsp)
    6ac9:	00 
    6aca:	48 89 8c 24 f0 00 00 	mov    %rcx,0xf0(%rsp)
    6ad1:	00 
    6ad2:	4c 89 33             	mov    %r14,(%rbx)
    6ad5:	4c 89 7b 08          	mov    %r15,0x8(%rbx)
    6ad9:	48 89 43 10          	mov    %rax,0x10(%rbx)
    6add:	0f 28 84 24 c0 00 00 	movaps 0xc0(%rsp),%xmm0
    6ae4:	00 
    6ae5:	0f 28 8c 24 d0 00 00 	movaps 0xd0(%rsp),%xmm1
    6aec:	00 
    6aed:	0f 28 94 24 e0 00 00 	movaps 0xe0(%rsp),%xmm2
    6af4:	00 
    6af5:	0f 11 43 18          	movups %xmm0,0x18(%rbx)
    6af9:	0f 11 4b 28          	movups %xmm1,0x28(%rbx)
    6afd:	0f 11 53 38          	movups %xmm2,0x38(%rbx)
    6b01:	48 8b 84 24 f0 00 00 	mov    0xf0(%rsp),%rax
    6b08:	00 
    6b09:	48 89 43 48          	mov    %rax,0x48(%rbx)
    6b0d:	48 81 c4 00 01 00 00 	add    $0x100,%rsp
    6b14:	5b                   	pop    %rbx
    6b15:	41 5e                	pop    %r14
    6b17:	41 5f                	pop    %r15
    6b19:	c3                   	retq   
    6b1a:	4c 8b 76 20          	mov    0x20(%rsi),%r14
    6b1e:	4d 85 f6             	test   %r14,%r14
    6b21:	0f 85 ea fd ff ff    	jne    6911 <_ZN9backtrace9symbolize6Symbol4name17h05b3ddd11e7b9af9E+0x31>
    6b27:	e9 d9 fe ff ff       	jmpq   6a05 <_ZN9backtrace9symbolize6Symbol4name17h05b3ddd11e7b9af9E+0x125>
    6b2c:	0f 1f 40 00          	nopl   0x0(%rax)

0000000000006b30 <_ZN9backtrace5print17BacktraceFrameFmt9print_raw17h69930da516f47357E>:
    6b30:	55                   	push   %rbp
    6b31:	41 57                	push   %r15
    6b33:	41 56                	push   %r14
    6b35:	41 55                	push   %r13
    6b37:	41 54                	push   %r12
    6b39:	53                   	push   %rbx
    6b3a:	48 81 ec 58 01 00 00 	sub    $0x158,%rsp
    6b41:	45 89 ce             	mov    %r9d,%r14d
    6b44:	45 89 c4             	mov    %r8d,%r12d
    6b47:	48 89 fb             	mov    %rdi,%rbx
    6b4a:	0f 10 02             	movups (%rdx),%xmm0
    6b4d:	0f 29 84 24 30 01 00 	movaps %xmm0,0x130(%rsp)
    6b54:	00 
    6b55:	48 8b 6a 10          	mov    0x10(%rdx),%rbp
    6b59:	0f 10 42 28          	movups 0x28(%rdx),%xmm0
    6b5d:	0f 29 84 24 00 01 00 	movaps %xmm0,0x100(%rsp)
    6b64:	00 
    6b65:	0f 10 42 38          	movups 0x38(%rdx),%xmm0
    6b69:	0f 29 84 24 10 01 00 	movaps %xmm0,0x110(%rsp)
    6b70:	00 
    6b71:	48 8b 42 48          	mov    0x48(%rdx),%rax
    6b75:	48 89 84 24 20 01 00 	mov    %rax,0x120(%rsp)
    6b7c:	00 
    6b7d:	0f 10 42 18          	movups 0x18(%rdx),%xmm0
    6b81:	0f 29 84 24 f0 00 00 	movaps %xmm0,0xf0(%rsp)
    6b88:	00 
    6b89:	4c 8b 39             	mov    (%rcx),%r15
    6b8c:	f3 0f 6f 41 08       	movdqu 0x8(%rcx),%xmm0
    6b91:	66 0f 7f 84 24 40 01 	movdqa %xmm0,0x140(%rsp)
    6b98:	00 00 
    6b9a:	48 89 b4 24 e8 00 00 	mov    %rsi,0xe8(%rsp)
    6ba1:	00 
    6ba2:	48 8b 07             	mov    (%rdi),%rax
    6ba5:	48 85 f6             	test   %rsi,%rsi
    6ba8:	75 12                	jne    6bbc <_ZN9backtrace5print17BacktraceFrameFmt9print_raw17h69930da516f47357E+0x8c>
    6baa:	80 78 20 00          	cmpb   $0x0,0x20(%rax)
    6bae:	75 0c                	jne    6bbc <_ZN9backtrace5print17BacktraceFrameFmt9print_raw17h69930da516f47357E+0x8c>
    6bb0:	48 83 43 08 01       	addq   $0x1,0x8(%rbx)
    6bb5:	31 c0                	xor    %eax,%eax
    6bb7:	e9 1f 04 00 00       	jmpq   6fdb <_ZN9backtrace5print17BacktraceFrameFmt9print_raw17h69930da516f47357E+0x4ab>
    6bbc:	48 83 7b 08 00       	cmpq   $0x0,0x8(%rbx)
    6bc1:	48 8b 08             	mov    (%rax),%rcx
    6bc4:	0f 84 d7 00 00 00    	je     6ca1 <_ZN9backtrace5print17BacktraceFrameFmt9print_raw17h69930da516f47357E+0x171>
    6bca:	48 8b 79 20          	mov    0x20(%rcx),%rdi
    6bce:	48 8b 71 28          	mov    0x28(%rcx),%rsi
    6bd2:	48 8d 05 ff 0a 23 00 	lea    0x230aff(%rip),%rax        # 2376d8 <__init_array_end+0xe8>
    6bd9:	48 89 04 24          	mov    %rax,(%rsp)
    6bdd:	48 c7 44 24 08 01 00 	movq   $0x1,0x8(%rsp)
    6be4:	00 00 
    6be6:	48 c7 44 24 10 00 00 	movq   $0x0,0x10(%rsp)
    6bed:	00 00 
    6bef:	48 8d 05 42 9a 02 00 	lea    0x29a42(%rip),%rax        # 30638 <_ZN4core7unicode12unicode_data2cc6BITSET17h5201257bcf8f09faE+0x3d8>
    6bf6:	48 89 44 24 20       	mov    %rax,0x20(%rsp)
    6bfb:	48 c7 44 24 28 00 00 	movq   $0x0,0x28(%rsp)
    6c02:	00 00 
    6c04:	48 89 e2             	mov    %rsp,%rdx
    6c07:	e8 44 31 00 00       	callq  9d50 <_ZN4core3fmt5write17h0db54a985afb558eE>
    6c0c:	84 c0                	test   %al,%al
    6c0e:	0f 85 c5 03 00 00    	jne    6fd9 <_ZN9backtrace5print17BacktraceFrameFmt9print_raw17h69930da516f47357E+0x4a9>
    6c14:	48 8b 03             	mov    (%rbx),%rax
    6c17:	80 78 20 01          	cmpb   $0x1,0x20(%rax)
    6c1b:	0f 85 83 01 00 00    	jne    6da4 <_ZN9backtrace5print17BacktraceFrameFmt9print_raw17h69930da516f47357E+0x274>
    6c21:	48 8b 00             	mov    (%rax),%rax
    6c24:	48 8d 0d d5 24 01 00 	lea    0x124d5(%rip),%rcx        # 19100 <_ZN44_$LT$$RF$T$u20$as$u20$core..fmt..Display$GT$3fmt17h9716022a15e5b13cE>
    6c2b:	66 48 0f 6e c1       	movq   %rcx,%xmm0
    6c30:	48 8d 0d f1 16 23 00 	lea    0x2316f1(%rip),%rcx        # 238328 <__init_array_end+0xd38>
    6c37:	66 48 0f 6e c9       	movq   %rcx,%xmm1
    6c3c:	66 0f 6c c8          	punpcklqdq %xmm0,%xmm1
    6c40:	66 0f 7f 4c 24 60    	movdqa %xmm1,0x60(%rsp)
    6c46:	48 8d 15 b3 33 00 00 	lea    0x33b3(%rip),%rdx        # a000 <_ZN4core3fmt10ArgumentV110show_usize17h2a88cb8749ea423eE>
    6c4d:	66 48 0f 6e c2       	movq   %rdx,%xmm0
    6c52:	48 8d 15 ff 6f 02 00 	lea    0x26fff(%rip),%rdx        # 2dc58 <_fini+0x54>
    6c59:	66 48 0f 6e ca       	movq   %rdx,%xmm1
    6c5e:	66 0f 6c c8          	punpcklqdq %xmm0,%xmm1
    6c62:	66 0f 7f 4c 24 70    	movdqa %xmm1,0x70(%rsp)
    6c68:	48 8b 78 20          	mov    0x20(%rax),%rdi
    6c6c:	48 8b 70 28          	mov    0x28(%rax),%rsi
    6c70:	48 89 0c 24          	mov    %rcx,(%rsp)
    6c74:	48 c7 44 24 08 01 00 	movq   $0x1,0x8(%rsp)
    6c7b:	00 00 
    6c7d:	48 8d 05 dc 7b 02 00 	lea    0x27bdc(%rip),%rax        # 2e860 <_ZN4core7unicode12unicode_data2cc19BITSET_INDEX_CHUNKS17h8a1f39cd536e9344E+0x9c0>
    6c84:	48 89 44 24 10       	mov    %rax,0x10(%rsp)
    6c89:	48 c7 44 24 18 01 00 	movq   $0x1,0x18(%rsp)
    6c90:	00 00 
    6c92:	48 8d 44 24 60       	lea    0x60(%rsp),%rax
    6c97:	48 89 44 24 20       	mov    %rax,0x20(%rsp)
    6c9c:	e9 ea 00 00 00       	jmpq   6d8b <_ZN9backtrace5print17BacktraceFrameFmt9print_raw17h69930da516f47357E+0x25b>
    6ca1:	48 83 c0 08          	add    $0x8,%rax
    6ca5:	48 89 44 24 60       	mov    %rax,0x60(%rsp)
    6caa:	48 8d 05 ef 1a 00 00 	lea    0x1aef(%rip),%rax        # 87a0 <_ZN4core3fmt3num3imp52_$LT$impl$u20$core..fmt..Display$u20$for$u20$u64$GT$3fmt17h29103e8b1c853837E>
    6cb1:	48 89 44 24 68       	mov    %rax,0x68(%rsp)
    6cb6:	48 8b 79 20          	mov    0x20(%rcx),%rdi
    6cba:	48 8b 71 28          	mov    0x28(%rcx),%rsi
    6cbe:	48 8d 05 a3 0f 23 00 	lea    0x230fa3(%rip),%rax        # 237c68 <__init_array_end+0x678>
    6cc5:	48 89 04 24          	mov    %rax,(%rsp)
    6cc9:	48 c7 44 24 08 02 00 	movq   $0x2,0x8(%rsp)
    6cd0:	00 00 
    6cd2:	48 8d 05 4f 7b 02 00 	lea    0x27b4f(%rip),%rax        # 2e828 <_ZN4core7unicode12unicode_data2cc19BITSET_INDEX_CHUNKS17h8a1f39cd536e9344E+0x988>
    6cd9:	48 89 44 24 10       	mov    %rax,0x10(%rsp)
    6cde:	48 c7 44 24 18 01 00 	movq   $0x1,0x18(%rsp)
    6ce5:	00 00 
    6ce7:	4c 8d 6c 24 60       	lea    0x60(%rsp),%r13
    6cec:	4c 89 6c 24 20       	mov    %r13,0x20(%rsp)
    6cf1:	48 c7 44 24 28 01 00 	movq   $0x1,0x28(%rsp)
    6cf8:	00 00 
    6cfa:	48 89 e2             	mov    %rsp,%rdx
    6cfd:	e8 4e 30 00 00       	callq  9d50 <_ZN4core3fmt5write17h0db54a985afb558eE>
    6d02:	84 c0                	test   %al,%al
    6d04:	0f 85 cf 02 00 00    	jne    6fd9 <_ZN9backtrace5print17BacktraceFrameFmt9print_raw17h69930da516f47357E+0x4a9>
    6d0a:	48 8b 03             	mov    (%rbx),%rax
    6d0d:	80 78 20 01          	cmpb   $0x1,0x20(%rax)
    6d11:	0f 85 8d 00 00 00    	jne    6da4 <_ZN9backtrace5print17BacktraceFrameFmt9print_raw17h69930da516f47357E+0x274>
    6d17:	48 8b 00             	mov    (%rax),%rax
    6d1a:	48 8d 8c 24 e8 00 00 	lea    0xe8(%rsp),%rcx
    6d21:	00 
    6d22:	48 89 4c 24 60       	mov    %rcx,0x60(%rsp)
    6d27:	48 8d 0d 22 6f 02 00 	lea    0x26f22(%rip),%rcx        # 2dc50 <_fini+0x4c>
    6d2e:	66 48 0f 6e c1       	movq   %rcx,%xmm0
    6d33:	48 8d 0d d6 fa ff ff 	lea    -0x52a(%rip),%rcx        # 6810 <_ZN50_$LT$$BP$mut$u20$T$u20$as$u20$core..fmt..Debug$GT$3fmt17h0c22205dba98029aE>
    6d3a:	66 48 0f 6e c9       	movq   %rcx,%xmm1
    6d3f:	66 0f 6c c8          	punpcklqdq %xmm0,%xmm1
    6d43:	f3 0f 7f 4c 24 68    	movdqu %xmm1,0x68(%rsp)
    6d49:	48 8d 0d b0 32 00 00 	lea    0x32b0(%rip),%rcx        # a000 <_ZN4core3fmt10ArgumentV110show_usize17h2a88cb8749ea423eE>
    6d50:	48 89 4c 24 78       	mov    %rcx,0x78(%rsp)
    6d55:	48 8b 78 20          	mov    0x20(%rax),%rdi
    6d59:	48 8b 70 28          	mov    0x28(%rax),%rsi
    6d5d:	48 8d 05 84 09 23 00 	lea    0x230984(%rip),%rax        # 2376e8 <__init_array_end+0xf8>
    6d64:	48 89 04 24          	mov    %rax,(%rsp)
    6d68:	48 c7 44 24 08 02 00 	movq   $0x2,0x8(%rsp)
    6d6f:	00 00 
    6d71:	48 8d 05 e8 7a 02 00 	lea    0x27ae8(%rip),%rax        # 2e860 <_ZN4core7unicode12unicode_data2cc19BITSET_INDEX_CHUNKS17h8a1f39cd536e9344E+0x9c0>
    6d78:	48 89 44 24 10       	mov    %rax,0x10(%rsp)
    6d7d:	48 c7 44 24 18 01 00 	movq   $0x1,0x18(%rsp)
    6d84:	00 00 
    6d86:	4c 89 6c 24 20       	mov    %r13,0x20(%rsp)
    6d8b:	48 c7 44 24 28 02 00 	movq   $0x2,0x28(%rsp)
    6d92:	00 00 
    6d94:	48 89 e2             	mov    %rsp,%rdx
    6d97:	e8 b4 2f 00 00       	callq  9d50 <_ZN4core3fmt5write17h0db54a985afb558eE>
    6d9c:	84 c0                	test   %al,%al
    6d9e:	0f 85 35 02 00 00    	jne    6fd9 <_ZN9backtrace5print17BacktraceFrameFmt9print_raw17h69930da516f47357E+0x4a9>
    6da4:	0f 28 84 24 30 01 00 	movaps 0x130(%rsp),%xmm0
    6dab:	00 
    6dac:	0f 29 84 24 a0 00 00 	movaps %xmm0,0xa0(%rsp)
    6db3:	00 
    6db4:	48 8b 84 24 20 01 00 	mov    0x120(%rsp),%rax
    6dbb:	00 
    6dbc:	48 89 84 24 90 00 00 	mov    %rax,0x90(%rsp)
    6dc3:	00 
    6dc4:	66 0f 6f 84 24 f0 00 	movdqa 0xf0(%rsp),%xmm0
    6dcb:	00 00 
    6dcd:	66 0f 6f 8c 24 00 01 	movdqa 0x100(%rsp),%xmm1
    6dd4:	00 00 
    6dd6:	0f 28 94 24 10 01 00 	movaps 0x110(%rsp),%xmm2
    6ddd:	00 
    6dde:	0f 29 94 24 80 00 00 	movaps %xmm2,0x80(%rsp)
    6de5:	00 
    6de6:	66 0f 7f 4c 24 70    	movdqa %xmm1,0x70(%rsp)
    6dec:	66 0f 7f 44 24 60    	movdqa %xmm0,0x60(%rsp)
    6df2:	48 8b 03             	mov    (%rbx),%rax
    6df5:	48 83 fd 04          	cmp    $0x4,%rbp
    6df9:	0f 84 b4 00 00 00    	je     6eb3 <_ZN9backtrace5print17BacktraceFrameFmt9print_raw17h69930da516f47357E+0x383>
    6dff:	0f b6 48 20          	movzbl 0x20(%rax),%ecx
    6e03:	48 83 f9 01          	cmp    $0x1,%rcx
    6e07:	0f 84 f8 00 00 00    	je     6f05 <_ZN9backtrace5print17BacktraceFrameFmt9print_raw17h69930da516f47357E+0x3d5>
    6e0d:	48 85 c9             	test   %rcx,%rcx
    6e10:	0f 85 9d 00 00 00    	jne    6eb3 <_ZN9backtrace5print17BacktraceFrameFmt9print_raw17h69930da516f47357E+0x383>
    6e16:	0f 28 84 24 a0 00 00 	movaps 0xa0(%rsp),%xmm0
    6e1d:	00 
    6e1e:	0f 29 04 24          	movaps %xmm0,(%rsp)
    6e22:	48 89 6c 24 10       	mov    %rbp,0x10(%rsp)
    6e27:	66 0f 6f 44 24 60    	movdqa 0x60(%rsp),%xmm0
    6e2d:	66 0f 6f 4c 24 70    	movdqa 0x70(%rsp),%xmm1
    6e33:	0f 28 94 24 80 00 00 	movaps 0x80(%rsp),%xmm2
    6e3a:	00 
    6e3b:	f3 0f 7f 44 24 18    	movdqu %xmm0,0x18(%rsp)
    6e41:	f3 0f 7f 4c 24 28    	movdqu %xmm1,0x28(%rsp)
    6e47:	0f 11 54 24 38       	movups %xmm2,0x38(%rsp)
    6e4c:	48 8b 8c 24 90 00 00 	mov    0x90(%rsp),%rcx
    6e53:	00 
    6e54:	48 89 4c 24 48       	mov    %rcx,0x48(%rsp)
    6e59:	48 8b 00             	mov    (%rax),%rax
    6e5c:	48 89 e1             	mov    %rsp,%rcx
    6e5f:	48 89 4c 24 50       	mov    %rcx,0x50(%rsp)
    6e64:	48 8d 0d 55 03 00 00 	lea    0x355(%rip),%rcx        # 71c0 <_ZN71_$LT$backtrace..symbolize..SymbolName$u20$as$u20$core..fmt..Display$GT$3fmt17h17077a10756a9dedE>
    6e6b:	48 89 4c 24 58       	mov    %rcx,0x58(%rsp)
    6e70:	48 8b 78 20          	mov    0x20(%rax),%rdi
    6e74:	48 8b 70 28          	mov    0x28(%rax),%rsi
    6e78:	48 8d 05 a9 14 23 00 	lea    0x2314a9(%rip),%rax        # 238328 <__init_array_end+0xd38>
    6e7f:	48 89 84 24 b0 00 00 	mov    %rax,0xb0(%rsp)
    6e86:	00 
    6e87:	48 c7 84 24 b8 00 00 	movq   $0x1,0xb8(%rsp)
    6e8e:	00 01 00 00 00 
    6e93:	48 8d 05 fe 79 02 00 	lea    0x279fe(%rip),%rax        # 2e898 <_ZN4core7unicode12unicode_data2cc19BITSET_INDEX_CHUNKS17h8a1f39cd536e9344E+0x9f8>
    6e9a:	48 89 84 24 c0 00 00 	mov    %rax,0xc0(%rsp)
    6ea1:	00 
    6ea2:	48 c7 84 24 c8 00 00 	movq   $0x1,0xc8(%rsp)
    6ea9:	00 01 00 00 00 
    6eae:	e9 db 00 00 00       	jmpq   6f8e <_ZN9backtrace5print17BacktraceFrameFmt9print_raw17h69930da516f47357E+0x45e>
    6eb3:	48 8b 00             	mov    (%rax),%rax
    6eb6:	48 8b 78 20          	mov    0x20(%rax),%rdi
    6eba:	48 8b 70 28          	mov    0x28(%rax),%rsi
    6ebe:	48 8d 05 43 08 23 00 	lea    0x230843(%rip),%rax        # 237708 <__init_array_end+0x118>
    6ec5:	48 89 04 24          	mov    %rax,(%rsp)
    6ec9:	48 c7 44 24 08 01 00 	movq   $0x1,0x8(%rsp)
    6ed0:	00 00 
    6ed2:	48 c7 44 24 10 00 00 	movq   $0x0,0x10(%rsp)
    6ed9:	00 00 
    6edb:	48 8d 05 56 97 02 00 	lea    0x29756(%rip),%rax        # 30638 <_ZN4core7unicode12unicode_data2cc6BITSET17h5201257bcf8f09faE+0x3d8>
    6ee2:	48 89 44 24 20       	mov    %rax,0x20(%rsp)
    6ee7:	48 c7 44 24 28 00 00 	movq   $0x0,0x28(%rsp)
    6eee:	00 00 
    6ef0:	48 89 e2             	mov    %rsp,%rdx
    6ef3:	e8 58 2e 00 00       	callq  9d50 <_ZN4core3fmt5write17h0db54a985afb558eE>
    6ef8:	84 c0                	test   %al,%al
    6efa:	0f 84 b8 00 00 00    	je     6fb8 <_ZN9backtrace5print17BacktraceFrameFmt9print_raw17h69930da516f47357E+0x488>
    6f00:	e9 d4 00 00 00       	jmpq   6fd9 <_ZN9backtrace5print17BacktraceFrameFmt9print_raw17h69930da516f47357E+0x4a9>
    6f05:	0f 28 84 24 a0 00 00 	movaps 0xa0(%rsp),%xmm0
    6f0c:	00 
    6f0d:	0f 29 04 24          	movaps %xmm0,(%rsp)
    6f11:	48 89 6c 24 10       	mov    %rbp,0x10(%rsp)
    6f16:	66 0f 6f 44 24 60    	movdqa 0x60(%rsp),%xmm0
    6f1c:	66 0f 6f 4c 24 70    	movdqa 0x70(%rsp),%xmm1
    6f22:	0f 28 94 24 80 00 00 	movaps 0x80(%rsp),%xmm2
    6f29:	00 
    6f2a:	f3 0f 7f 44 24 18    	movdqu %xmm0,0x18(%rsp)
    6f30:	f3 0f 7f 4c 24 28    	movdqu %xmm1,0x28(%rsp)
    6f36:	0f 11 54 24 38       	movups %xmm2,0x38(%rsp)
    6f3b:	48 8b 8c 24 90 00 00 	mov    0x90(%rsp),%rcx
    6f42:	00 
    6f43:	48 89 4c 24 48       	mov    %rcx,0x48(%rsp)
    6f48:	48 8b 00             	mov    (%rax),%rax
    6f4b:	48 89 e1             	mov    %rsp,%rcx
    6f4e:	48 89 4c 24 50       	mov    %rcx,0x50(%rsp)
    6f53:	48 8d 0d 66 02 00 00 	lea    0x266(%rip),%rcx        # 71c0 <_ZN71_$LT$backtrace..symbolize..SymbolName$u20$as$u20$core..fmt..Display$GT$3fmt17h17077a10756a9dedE>
    6f5a:	48 89 4c 24 58       	mov    %rcx,0x58(%rsp)
    6f5f:	48 8b 78 20          	mov    0x20(%rax),%rdi
    6f63:	48 8b 70 28          	mov    0x28(%rax),%rsi
    6f67:	48 8d 05 ba 13 23 00 	lea    0x2313ba(%rip),%rax        # 238328 <__init_array_end+0xd38>
    6f6e:	48 89 84 24 b0 00 00 	mov    %rax,0xb0(%rsp)
    6f75:	00 
    6f76:	48 c7 84 24 b8 00 00 	movq   $0x1,0xb8(%rsp)
    6f7d:	00 01 00 00 00 
    6f82:	48 c7 84 24 c0 00 00 	movq   $0x0,0xc0(%rsp)
    6f89:	00 00 00 00 00 
    6f8e:	48 8d 44 24 50       	lea    0x50(%rsp),%rax
    6f93:	48 89 84 24 d0 00 00 	mov    %rax,0xd0(%rsp)
    6f9a:	00 
    6f9b:	48 c7 84 24 d8 00 00 	movq   $0x1,0xd8(%rsp)
    6fa2:	00 01 00 00 00 
    6fa7:	48 8d 94 24 b0 00 00 	lea    0xb0(%rsp),%rdx
    6fae:	00 
    6faf:	e8 9c 2d 00 00       	callq  9d50 <_ZN4core3fmt5write17h0db54a985afb558eE>
    6fb4:	84 c0                	test   %al,%al
    6fb6:	75 21                	jne    6fd9 <_ZN9backtrace5print17BacktraceFrameFmt9print_raw17h69930da516f47357E+0x4a9>
    6fb8:	48 8b 03             	mov    (%rbx),%rax
    6fbb:	48 8b 00             	mov    (%rax),%rax
    6fbe:	48 8b 78 20          	mov    0x20(%rax),%rdi
    6fc2:	48 8b 40 28          	mov    0x28(%rax),%rax
    6fc6:	48 8d 35 f8 96 02 00 	lea    0x296f8(%rip),%rsi        # 306c5 <_ZN4core7unicode12unicode_data2cc6BITSET17h5201257bcf8f09faE+0x465>
    6fcd:	ba 01 00 00 00       	mov    $0x1,%edx
    6fd2:	ff 50 18             	callq  *0x18(%rax)
    6fd5:	84 c0                	test   %al,%al
    6fd7:	74 14                	je     6fed <_ZN9backtrace5print17BacktraceFrameFmt9print_raw17h69930da516f47357E+0x4bd>
    6fd9:	b0 01                	mov    $0x1,%al
    6fdb:	48 81 c4 58 01 00 00 	add    $0x158,%rsp
    6fe2:	5b                   	pop    %rbx
    6fe3:	41 5c                	pop    %r12
    6fe5:	41 5d                	pop    %r13
    6fe7:	41 5e                	pop    %r14
    6fe9:	41 5f                	pop    %r15
    6feb:	5d                   	pop    %rbp
    6fec:	c3                   	retq   
    6fed:	66 0f 6f 84 24 40 01 	movdqa 0x140(%rsp),%xmm0
    6ff4:	00 00 
    6ff6:	66 0f 7f 44 24 50    	movdqa %xmm0,0x50(%rsp)
    6ffc:	41 83 fc 01          	cmp    $0x1,%r12d
    7000:	0f 85 aa fb ff ff    	jne    6bb0 <_ZN9backtrace5print17BacktraceFrameFmt9print_raw17h69930da516f47357E+0x80>
    7006:	49 83 ff 02          	cmp    $0x2,%r15
    700a:	0f 84 a0 fb ff ff    	je     6bb0 <_ZN9backtrace5print17BacktraceFrameFmt9print_raw17h69930da516f47357E+0x80>
    7010:	66 0f 6f 44 24 50    	movdqa 0x50(%rsp),%xmm0
    7016:	66 0f 7f 84 24 b0 00 	movdqa %xmm0,0xb0(%rsp)
    701d:	00 00 
    701f:	44 89 b4 24 a0 00 00 	mov    %r14d,0xa0(%rsp)
    7026:	00 
    7027:	48 8b 03             	mov    (%rbx),%rax
    702a:	80 78 20 01          	cmpb   $0x1,0x20(%rax)
    702e:	0f 85 97 00 00 00    	jne    70cb <_ZN9backtrace5print17BacktraceFrameFmt9print_raw17h69930da516f47357E+0x59b>
    7034:	48 8b 00             	mov    (%rax),%rax
    7037:	48 8d 0d c2 20 01 00 	lea    0x120c2(%rip),%rcx        # 19100 <_ZN44_$LT$$RF$T$u20$as$u20$core..fmt..Display$GT$3fmt17h9716022a15e5b13cE>
    703e:	66 48 0f 6e c1       	movq   %rcx,%xmm0
    7043:	48 8d 0d de 12 23 00 	lea    0x2312de(%rip),%rcx        # 238328 <__init_array_end+0xd38>
    704a:	66 48 0f 6e c9       	movq   %rcx,%xmm1
    704f:	66 0f 6c c8          	punpcklqdq %xmm0,%xmm1
    7053:	66 0f 7f 4c 24 60    	movdqa %xmm1,0x60(%rsp)
    7059:	48 8d 15 a0 2f 00 00 	lea    0x2fa0(%rip),%rdx        # a000 <_ZN4core3fmt10ArgumentV110show_usize17h2a88cb8749ea423eE>
    7060:	66 48 0f 6e c2       	movq   %rdx,%xmm0
    7065:	48 8d 15 e4 6b 02 00 	lea    0x26be4(%rip),%rdx        # 2dc50 <_fini+0x4c>
    706c:	66 48 0f 6e ca       	movq   %rdx,%xmm1
    7071:	66 0f 6c c8          	punpcklqdq %xmm0,%xmm1
    7075:	66 0f 7f 4c 24 70    	movdqa %xmm1,0x70(%rsp)
    707b:	48 8b 78 20          	mov    0x20(%rax),%rdi
    707f:	48 8b 70 28          	mov    0x28(%rax),%rsi
    7083:	48 89 0c 24          	mov    %rcx,(%rsp)
    7087:	48 c7 44 24 08 01 00 	movq   $0x1,0x8(%rsp)
    708e:	00 00 
    7090:	48 8d 05 c9 77 02 00 	lea    0x277c9(%rip),%rax        # 2e860 <_ZN4core7unicode12unicode_data2cc19BITSET_INDEX_CHUNKS17h8a1f39cd536e9344E+0x9c0>
    7097:	48 89 44 24 10       	mov    %rax,0x10(%rsp)
    709c:	48 c7 44 24 18 01 00 	movq   $0x1,0x18(%rsp)
    70a3:	00 00 
    70a5:	48 8d 44 24 60       	lea    0x60(%rsp),%rax
    70aa:	48 89 44 24 20       	mov    %rax,0x20(%rsp)
    70af:	48 c7 44 24 28 02 00 	movq   $0x2,0x28(%rsp)
    70b6:	00 00 
    70b8:	48 89 e2             	mov    %rsp,%rdx
    70bb:	e8 90 2c 00 00       	callq  9d50 <_ZN4core3fmt5write17h0db54a985afb558eE>
    70c0:	84 c0                	test   %al,%al
    70c2:	0f 85 11 ff ff ff    	jne    6fd9 <_ZN9backtrace5print17BacktraceFrameFmt9print_raw17h69930da516f47357E+0x4a9>
    70c8:	48 8b 03             	mov    (%rbx),%rax
    70cb:	48 8b 00             	mov    (%rax),%rax
    70ce:	48 8b 78 20          	mov    0x20(%rax),%rdi
    70d2:	48 8b 70 28          	mov    0x28(%rax),%rsi
    70d6:	48 8d 05 3b 06 23 00 	lea    0x23063b(%rip),%rax        # 237718 <__init_array_end+0x128>
    70dd:	48 89 04 24          	mov    %rax,(%rsp)
    70e1:	48 c7 44 24 08 01 00 	movq   $0x1,0x8(%rsp)
    70e8:	00 00 
    70ea:	48 c7 44 24 10 00 00 	movq   $0x0,0x10(%rsp)
    70f1:	00 00 
    70f3:	48 8d 05 3e 95 02 00 	lea    0x2953e(%rip),%rax        # 30638 <_ZN4core7unicode12unicode_data2cc6BITSET17h5201257bcf8f09faE+0x3d8>
    70fa:	48 89 44 24 20       	mov    %rax,0x20(%rsp)
    70ff:	48 c7 44 24 28 00 00 	movq   $0x0,0x28(%rsp)
    7106:	00 00 
    7108:	48 89 e2             	mov    %rsp,%rdx
    710b:	e8 40 2c 00 00       	callq  9d50 <_ZN4core3fmt5write17h0db54a985afb558eE>
    7110:	84 c0                	test   %al,%al
    7112:	0f 85 c1 fe ff ff    	jne    6fd9 <_ZN9backtrace5print17BacktraceFrameFmt9print_raw17h69930da516f47357E+0x4a9>
    7118:	48 8b 03             	mov    (%rbx),%rax
    711b:	48 8b 78 10          	mov    0x10(%rax),%rdi
    711f:	48 8b 48 18          	mov    0x18(%rax),%rcx
    7123:	48 8b 30             	mov    (%rax),%rsi
    7126:	48 89 34 24          	mov    %rsi,(%rsp)
    712a:	48 8d 54 24 08       	lea    0x8(%rsp),%rdx
    712f:	4c 89 7c 24 08       	mov    %r15,0x8(%rsp)
    7134:	66 0f 6f 84 24 b0 00 	movdqa 0xb0(%rsp),%xmm0
    713b:	00 00 
    713d:	f3 0f 7f 44 24 10    	movdqu %xmm0,0x10(%rsp)
    7143:	ff 51 18             	callq  *0x18(%rcx)
    7146:	84 c0                	test   %al,%al
    7148:	0f 85 8b fe ff ff    	jne    6fd9 <_ZN9backtrace5print17BacktraceFrameFmt9print_raw17h69930da516f47357E+0x4a9>
    714e:	48 8b 03             	mov    (%rbx),%rax
    7151:	48 8b 00             	mov    (%rax),%rax
    7154:	48 8d 8c 24 a0 00 00 	lea    0xa0(%rsp),%rcx
    715b:	00 
    715c:	48 89 4c 24 60       	mov    %rcx,0x60(%rsp)
    7161:	48 8d 0d b8 3e 00 00 	lea    0x3eb8(%rip),%rcx        # b020 <_ZN4core3fmt3num3imp52_$LT$impl$u20$core..fmt..Display$u20$for$u20$u32$GT$3fmt17h0d5c971f484cf42aE>
    7168:	48 89 4c 24 68       	mov    %rcx,0x68(%rsp)
    716d:	48 8b 78 20          	mov    0x20(%rax),%rdi
    7171:	48 8b 70 28          	mov    0x28(%rax),%rsi
    7175:	48 8d 05 ac 05 23 00 	lea    0x2305ac(%rip),%rax        # 237728 <__init_array_end+0x138>
    717c:	48 89 04 24          	mov    %rax,(%rsp)
    7180:	48 c7 44 24 08 02 00 	movq   $0x2,0x8(%rsp)
    7187:	00 00 
    7189:	48 c7 44 24 10 00 00 	movq   $0x0,0x10(%rsp)
    7190:	00 00 
    7192:	48 8d 44 24 60       	lea    0x60(%rsp),%rax
    7197:	48 89 44 24 20       	mov    %rax,0x20(%rsp)
    719c:	48 c7 44 24 28 01 00 	movq   $0x1,0x28(%rsp)
    71a3:	00 00 
    71a5:	48 89 e2             	mov    %rsp,%rdx
    71a8:	e8 a3 2b 00 00       	callq  9d50 <_ZN4core3fmt5write17h0db54a985afb558eE>
    71ad:	84 c0                	test   %al,%al
    71af:	0f 84 fb f9 ff ff    	je     6bb0 <_ZN9backtrace5print17BacktraceFrameFmt9print_raw17h69930da516f47357E+0x80>
    71b5:	e9 1f fe ff ff       	jmpq   6fd9 <_ZN9backtrace5print17BacktraceFrameFmt9print_raw17h69930da516f47357E+0x4a9>
    71ba:	66 0f 1f 44 00 00    	nopw   0x0(%rax,%rax,1)

00000000000071c0 <_ZN71_$LT$backtrace..symbolize..SymbolName$u20$as$u20$core..fmt..Display$GT$3fmt17h17077a10756a9dedE>:
    71c0:	55                   	push   %rbp
    71c1:	41 57                	push   %r15
    71c3:	41 56                	push   %r14
    71c5:	41 55                	push   %r13
    71c7:	41 54                	push   %r12
    71c9:	53                   	push   %rbx
    71ca:	48 81 ec 98 00 00 00 	sub    $0x98,%rsp
    71d1:	48 89 74 24 28       	mov    %rsi,0x28(%rsp)
    71d6:	48 8b 47 10          	mov    0x10(%rdi),%rax
    71da:	48 83 f8 02          	cmp    $0x2,%rax
    71de:	0f 84 97 00 00 00    	je     727b <_ZN71_$LT$backtrace..symbolize..SymbolName$u20$as$u20$core..fmt..Display$GT$3fmt17h17077a10756a9dedE+0xbb>
    71e4:	48 83 f8 03          	cmp    $0x3,%rax
    71e8:	0f 85 be 00 00 00    	jne    72ac <_ZN71_$LT$backtrace..symbolize..SymbolName$u20$as$u20$core..fmt..Display$GT$3fmt17h17077a10756a9dedE+0xec>
    71ee:	48 8b 5f 08          	mov    0x8(%rdi),%rbx
    71f2:	48 85 db             	test   %rbx,%rbx
    71f5:	0f 84 35 12 00 00    	je     8430 <_ZN71_$LT$backtrace..symbolize..SymbolName$u20$as$u20$core..fmt..Display$GT$3fmt17h17077a10756a9dedE+0x1270>
    71fb:	4c 8b 27             	mov    (%rdi),%r12
    71fe:	4c 8d 74 24 30       	lea    0x30(%rsp),%r14
    7203:	66 2e 0f 1f 84 00 00 	nopw   %cs:0x0(%rax,%rax,1)
    720a:	00 00 00 
    720d:	0f 1f 00             	nopl   (%rax)
    7210:	4c 89 f7             	mov    %r14,%rdi
    7213:	4c 89 e6             	mov    %r12,%rsi
    7216:	48 89 da             	mov    %rbx,%rdx
    7219:	e8 62 58 00 00       	callq  ca80 <_ZN4core3str9from_utf817ha5f1d279f7594d61E>
    721e:	48 83 7c 24 30 01    	cmpq   $0x1,0x30(%rsp)
    7224:	0f 85 ea 11 00 00    	jne    8414 <_ZN71_$LT$backtrace..symbolize..SymbolName$u20$as$u20$core..fmt..Display$GT$3fmt17h17077a10756a9dedE+0x1254>
    722a:	48 8b 6c 24 38       	mov    0x38(%rsp),%rbp
    722f:	44 0f b6 7c 24 40    	movzbl 0x40(%rsp),%r15d
    7235:	44 0f b6 6c 24 41    	movzbl 0x41(%rsp),%r13d
    723b:	ba 03 00 00 00       	mov    $0x3,%edx
    7240:	48 8b 7c 24 28       	mov    0x28(%rsp),%rdi
    7245:	48 8d 35 d2 75 02 00 	lea    0x275d2(%rip),%rsi        # 2e81e <_ZN4core7unicode12unicode_data2cc19BITSET_INDEX_CHUNKS17h8a1f39cd536e9344E+0x97e>
    724c:	e8 9f 1d 00 00       	callq  8ff0 <_ZN4core3fmt9Formatter3pad17h7ef001ba65c2db9cE>
    7251:	84 c0                	test   %al,%al
    7253:	0f 85 d3 11 00 00    	jne    842c <_ZN71_$LT$backtrace..symbolize..SymbolName$u20$as$u20$core..fmt..Display$GT$3fmt17h17077a10756a9dedE+0x126c>
    7259:	45 84 ff             	test   %r15b,%r15b
    725c:	0f 84 ce 11 00 00    	je     8430 <_ZN71_$LT$backtrace..symbolize..SymbolName$u20$as$u20$core..fmt..Display$GT$3fmt17h17077a10756a9dedE+0x1270>
    7262:	4c 01 ed             	add    %r13,%rbp
    7265:	48 39 eb             	cmp    %rbp,%rbx
    7268:	0f 82 55 12 00 00    	jb     84c3 <_ZN71_$LT$backtrace..symbolize..SymbolName$u20$as$u20$core..fmt..Display$GT$3fmt17h17077a10756a9dedE+0x1303>
    726e:	49 01 ec             	add    %rbp,%r12
    7271:	48 29 eb             	sub    %rbp,%rbx
    7274:	75 9a                	jne    7210 <_ZN71_$LT$backtrace..symbolize..SymbolName$u20$as$u20$core..fmt..Display$GT$3fmt17h17077a10756a9dedE+0x50>
    7276:	e9 b5 11 00 00       	jmpq   8430 <_ZN71_$LT$backtrace..symbolize..SymbolName$u20$as$u20$core..fmt..Display$GT$3fmt17h17077a10756a9dedE+0x1270>
    727b:	48 8b 77 30          	mov    0x30(%rdi),%rsi
    727f:	48 89 bc 24 88 00 00 	mov    %rdi,0x88(%rsp)
    7286:	00 
    7287:	48 8b 57 38          	mov    0x38(%rdi),%rdx
    728b:	48 8b 44 24 28       	mov    0x28(%rsp),%rax
    7290:	48 8b 78 20          	mov    0x20(%rax),%rdi
    7294:	48 8b 40 28          	mov    0x28(%rax),%rax
    7298:	ff 50 18             	callq  *0x18(%rax)
    729b:	89 c1                	mov    %eax,%ecx
    729d:	b0 01                	mov    $0x1,%al
    729f:	84 c9                	test   %cl,%cl
    72a1:	0f 85 8b 11 00 00    	jne    8432 <_ZN71_$LT$backtrace..symbolize..SymbolName$u20$as$u20$core..fmt..Display$GT$3fmt17h17077a10756a9dedE+0x1272>
    72a7:	e9 46 11 00 00       	jmpq   83f2 <_ZN71_$LT$backtrace..symbolize..SymbolName$u20$as$u20$core..fmt..Display$GT$3fmt17h17077a10756a9dedE+0x1232>
    72ac:	48 83 f8 01          	cmp    $0x1,%rax
    72b0:	48 89 bc 24 88 00 00 	mov    %rdi,0x88(%rsp)
    72b7:	00 
    72b8:	75 46                	jne    7300 <_ZN71_$LT$backtrace..symbolize..SymbolName$u20$as$u20$core..fmt..Display$GT$3fmt17h17077a10756a9dedE+0x140>
    72ba:	f3 0f 6f 47 18       	movdqu 0x18(%rdi),%xmm0
    72bf:	66 0f 7f 44 24 30    	movdqa %xmm0,0x30(%rsp)
    72c5:	48 c7 44 24 40 00 00 	movq   $0x0,0x40(%rsp)
    72cc:	00 00 
    72ce:	48 8b 44 24 28       	mov    0x28(%rsp),%rax
    72d3:	48 89 44 24 48       	mov    %rax,0x48(%rsp)
    72d8:	c7 44 24 50 00 00 00 	movl   $0x0,0x50(%rsp)
    72df:	00 
    72e0:	48 8d 7c 24 30       	lea    0x30(%rsp),%rdi
    72e5:	be 01 00 00 00       	mov    $0x1,%esi
    72ea:	e8 e1 a7 00 00       	callq  11ad0 <_ZN14rustc_demangle2v07Printer10print_path17haa095a98ac60aefaE>
    72ef:	89 c1                	mov    %eax,%ecx
    72f1:	b0 01                	mov    $0x1,%al
    72f3:	84 c9                	test   %cl,%cl
    72f5:	0f 84 f7 10 00 00    	je     83f2 <_ZN71_$LT$backtrace..symbolize..SymbolName$u20$as$u20$core..fmt..Display$GT$3fmt17h17077a10756a9dedE+0x1232>
    72fb:	e9 32 11 00 00       	jmpq   8432 <_ZN71_$LT$backtrace..symbolize..SymbolName$u20$as$u20$core..fmt..Display$GT$3fmt17h17077a10756a9dedE+0x1272>
    7300:	4c 8b 67 18          	mov    0x18(%rdi),%r12
    7304:	4c 8b 77 20          	mov    0x20(%rdi),%r14
    7308:	48 8b 47 28          	mov    0x28(%rdi),%rax
    730c:	48 89 84 24 90 00 00 	mov    %rax,0x90(%rsp)
    7313:	00 
    7314:	31 c0                	xor    %eax,%eax
    7316:	48 89 84 24 80 00 00 	mov    %rax,0x80(%rsp)
    731d:	00 
    731e:	66 0f 6f 15 8a 6a 02 	movdqa 0x26a8a(%rip),%xmm2        # 2ddb0 <_fini+0x1ac>
    7325:	00 
    7326:	66 0f 6f 1d 92 6a 02 	movdqa 0x26a92(%rip),%xmm3        # 2ddc0 <_fini+0x1bc>
    732d:	00 
    732e:	66 0f 6f 25 9a 6a 02 	movdqa 0x26a9a(%rip),%xmm4        # 2ddd0 <_fini+0x1cc>
    7335:	00 
    7336:	4c 8b 84 24 80 00 00 	mov    0x80(%rsp),%r8
    733d:	00 
    733e:	4c 3b 84 24 90 00 00 	cmp    0x90(%rsp),%r8
    7345:	00 
    7346:	75 64                	jne    73ac <_ZN71_$LT$backtrace..symbolize..SymbolName$u20$as$u20$core..fmt..Display$GT$3fmt17h17077a10756a9dedE+0x1ec>
    7348:	e9 a5 10 00 00       	jmpq   83f2 <_ZN71_$LT$backtrace..symbolize..SymbolName$u20$as$u20$core..fmt..Display$GT$3fmt17h17077a10756a9dedE+0x1232>
    734d:	4c 89 64 24 40       	mov    %r12,0x40(%rsp)
    7352:	4c 8b 64 24 60       	mov    0x60(%rsp),%r12
    7357:	48 8b 44 24 28       	mov    0x28(%rsp),%rax
    735c:	48 8b 78 20          	mov    0x20(%rax),%rdi
    7360:	48 8b 40 28          	mov    0x28(%rax),%rax
    7364:	4c 89 ee             	mov    %r13,%rsi
    7367:	4c 89 e2             	mov    %r12,%rdx
    736a:	ff 50 18             	callq  *0x18(%rax)
    736d:	66 0f 6f 25 5b 6a 02 	movdqa 0x26a5b(%rip),%xmm4        # 2ddd0 <_fini+0x1cc>
    7374:	00 
    7375:	66 0f 6f 1d 43 6a 02 	movdqa 0x26a43(%rip),%xmm3        # 2ddc0 <_fini+0x1bc>
    737c:	00 
    737d:	66 0f 6f 15 2b 6a 02 	movdqa 0x26a2b(%rip),%xmm2        # 2ddb0 <_fini+0x1ac>
    7384:	00 
    7385:	89 c1                	mov    %eax,%ecx
    7387:	b0 01                	mov    $0x1,%al
    7389:	4c 8b 64 24 68       	mov    0x68(%rsp),%r12
    738e:	84 c9                	test   %cl,%cl
    7390:	0f 85 9c 10 00 00    	jne    8432 <_ZN71_$LT$backtrace..symbolize..SymbolName$u20$as$u20$core..fmt..Display$GT$3fmt17h17077a10756a9dedE+0x1272>
    7396:	4c 8b 84 24 80 00 00 	mov    0x80(%rsp),%r8
    739d:	00 
    739e:	4c 3b 84 24 90 00 00 	cmp    0x90(%rsp),%r8
    73a5:	00 
    73a6:	0f 84 46 10 00 00    	je     83f2 <_ZN71_$LT$backtrace..symbolize..SymbolName$u20$as$u20$core..fmt..Display$GT$3fmt17h17077a10756a9dedE+0x1232>
    73ac:	4d 85 f6             	test   %r14,%r14
    73af:	0f 84 b9 10 00 00    	je     846e <_ZN71_$LT$backtrace..symbolize..SymbolName$u20$as$u20$core..fmt..Display$GT$3fmt17h17077a10756a9dedE+0x12ae>
    73b5:	49 8d 40 01          	lea    0x1(%r8),%rax
    73b9:	48 89 84 24 80 00 00 	mov    %rax,0x80(%rsp)
    73c0:	00 
    73c1:	4f 8d 14 34          	lea    (%r12,%r14,1),%r10
    73c5:	4d 8d 4e ff          	lea    -0x1(%r14),%r9
    73c9:	31 db                	xor    %ebx,%ebx
    73cb:	4c 89 f6             	mov    %r14,%rsi
    73ce:	41 0f b6 0c 1c       	movzbl (%r12,%rbx,1),%ecx
    73d3:	84 c9                	test   %cl,%cl
    73d5:	79 23                	jns    73fa <_ZN71_$LT$backtrace..symbolize..SymbolName$u20$as$u20$core..fmt..Display$GT$3fmt17h17077a10756a9dedE+0x23a>
    73d7:	eb 47                	jmp    7420 <_ZN71_$LT$backtrace..symbolize..SymbolName$u20$as$u20$core..fmt..Display$GT$3fmt17h17077a10756a9dedE+0x260>
    73d9:	0f 1f 80 00 00 00 00 	nopl   0x0(%rax)
    73e0:	48 83 c6 ff          	add    $0xffffffffffffffff,%rsi
    73e4:	48 83 c3 01          	add    $0x1,%rbx
    73e8:	49 39 de             	cmp    %rbx,%r14
    73eb:	0f 84 7d 10 00 00    	je     846e <_ZN71_$LT$backtrace..symbolize..SymbolName$u20$as$u20$core..fmt..Display$GT$3fmt17h17077a10756a9dedE+0x12ae>
    73f1:	41 0f b6 0c 1c       	movzbl (%r12,%rbx,1),%ecx
    73f6:	84 c9                	test   %cl,%cl
    73f8:	78 26                	js     7420 <_ZN71_$LT$backtrace..symbolize..SymbolName$u20$as$u20$core..fmt..Display$GT$3fmt17h17077a10756a9dedE+0x260>
    73fa:	89 cf                	mov    %ecx,%edi
    73fc:	4d 8d 2c 1c          	lea    (%r12,%rbx,1),%r13
    7400:	83 c7 d0             	add    $0xffffffd0,%edi
    7403:	83 ff 0a             	cmp    $0xa,%edi
    7406:	0f 82 b0 00 00 00    	jb     74bc <_ZN71_$LT$backtrace..symbolize..SymbolName$u20$as$u20$core..fmt..Display$GT$3fmt17h17077a10756a9dedE+0x2fc>
    740c:	e9 ef 00 00 00       	jmpq   7500 <_ZN71_$LT$backtrace..symbolize..SymbolName$u20$as$u20$core..fmt..Display$GT$3fmt17h17077a10756a9dedE+0x340>
    7411:	66 2e 0f 1f 84 00 00 	nopw   %cs:0x0(%rax,%rax,1)
    7418:	00 00 00 
    741b:	0f 1f 44 00 00       	nopl   0x0(%rax,%rax,1)
    7420:	31 ff                	xor    %edi,%edi
    7422:	4c 89 d0             	mov    %r10,%rax
    7425:	49 39 d9             	cmp    %rbx,%r9
    7428:	74 11                	je     743b <_ZN71_$LT$backtrace..symbolize..SymbolName$u20$as$u20$core..fmt..Display$GT$3fmt17h17077a10756a9dedE+0x27b>
    742a:	49 8d 04 1c          	lea    (%r12,%rbx,1),%rax
    742e:	48 83 c0 02          	add    $0x2,%rax
    7432:	41 0f b6 7c 1c 01    	movzbl 0x1(%r12,%rbx,1),%edi
    7438:	83 e7 3f             	and    $0x3f,%edi
    743b:	89 ca                	mov    %ecx,%edx
    743d:	83 e2 1f             	and    $0x1f,%edx
    7440:	80 f9 df             	cmp    $0xdf,%cl
    7443:	76 26                	jbe    746b <_ZN71_$LT$backtrace..symbolize..SymbolName$u20$as$u20$core..fmt..Display$GT$3fmt17h17077a10756a9dedE+0x2ab>
    7445:	4c 39 d0             	cmp    %r10,%rax
    7448:	74 26                	je     7470 <_ZN71_$LT$backtrace..symbolize..SymbolName$u20$as$u20$core..fmt..Display$GT$3fmt17h17077a10756a9dedE+0x2b0>
    744a:	0f b6 28             	movzbl (%rax),%ebp
    744d:	48 83 c0 01          	add    $0x1,%rax
    7451:	83 e5 3f             	and    $0x3f,%ebp
    7454:	c1 e7 06             	shl    $0x6,%edi
    7457:	09 ef                	or     %ebp,%edi
    7459:	80 f9 f0             	cmp    $0xf0,%cl
    745c:	72 21                	jb     747f <_ZN71_$LT$backtrace..symbolize..SymbolName$u20$as$u20$core..fmt..Display$GT$3fmt17h17077a10756a9dedE+0x2bf>
    745e:	4c 39 d0             	cmp    %r10,%rax
    7461:	74 2f                	je     7492 <_ZN71_$LT$backtrace..symbolize..SymbolName$u20$as$u20$core..fmt..Display$GT$3fmt17h17077a10756a9dedE+0x2d2>
    7463:	0f b6 00             	movzbl (%rax),%eax
    7466:	83 e0 3f             	and    $0x3f,%eax
    7469:	eb 29                	jmp    7494 <_ZN71_$LT$backtrace..symbolize..SymbolName$u20$as$u20$core..fmt..Display$GT$3fmt17h17077a10756a9dedE+0x2d4>
    746b:	c1 e2 06             	shl    $0x6,%edx
    746e:	eb 12                	jmp    7482 <_ZN71_$LT$backtrace..symbolize..SymbolName$u20$as$u20$core..fmt..Display$GT$3fmt17h17077a10756a9dedE+0x2c2>
    7470:	31 ed                	xor    %ebp,%ebp
    7472:	4c 89 d0             	mov    %r10,%rax
    7475:	c1 e7 06             	shl    $0x6,%edi
    7478:	09 ef                	or     %ebp,%edi
    747a:	80 f9 f0             	cmp    $0xf0,%cl
    747d:	73 df                	jae    745e <_ZN71_$LT$backtrace..symbolize..SymbolName$u20$as$u20$core..fmt..Display$GT$3fmt17h17077a10756a9dedE+0x29e>
    747f:	c1 e2 0c             	shl    $0xc,%edx
    7482:	09 d7                	or     %edx,%edi
    7484:	4d 8d 2c 1c          	lea    (%r12,%rbx,1),%r13
    7488:	83 c7 d0             	add    $0xffffffd0,%edi
    748b:	83 ff 0a             	cmp    $0xa,%edi
    748e:	72 2c                	jb     74bc <_ZN71_$LT$backtrace..symbolize..SymbolName$u20$as$u20$core..fmt..Display$GT$3fmt17h17077a10756a9dedE+0x2fc>
    7490:	eb 6e                	jmp    7500 <_ZN71_$LT$backtrace..symbolize..SymbolName$u20$as$u20$core..fmt..Display$GT$3fmt17h17077a10756a9dedE+0x340>
    7492:	31 c0                	xor    %eax,%eax
    7494:	83 e2 07             	and    $0x7,%edx
    7497:	c1 e2 12             	shl    $0x12,%edx
    749a:	c1 e7 06             	shl    $0x6,%edi
    749d:	09 d7                	or     %edx,%edi
    749f:	09 c7                	or     %eax,%edi
    74a1:	81 ff 00 00 11 00    	cmp    $0x110000,%edi
    74a7:	0f 84 c1 0f 00 00    	je     846e <_ZN71_$LT$backtrace..symbolize..SymbolName$u20$as$u20$core..fmt..Display$GT$3fmt17h17077a10756a9dedE+0x12ae>
    74ad:	0f 1f 00             	nopl   (%rax)
    74b0:	4d 8d 2c 1c          	lea    (%r12,%rbx,1),%r13
    74b4:	83 c7 d0             	add    $0xffffffd0,%edi
    74b7:	83 ff 0a             	cmp    $0xa,%edi
    74ba:	73 44                	jae    7500 <_ZN71_$LT$backtrace..symbolize..SymbolName$u20$as$u20$core..fmt..Display$GT$3fmt17h17077a10756a9dedE+0x340>
    74bc:	4c 89 6c 24 18       	mov    %r13,0x18(%rsp)
    74c1:	48 89 74 24 20       	mov    %rsi,0x20(%rsp)
    74c6:	48 c7 44 24 08 01 00 	movq   $0x1,0x8(%rsp)
    74cd:	00 00 
    74cf:	48 89 74 24 10       	mov    %rsi,0x10(%rsp)
    74d4:	48 83 fe 01          	cmp    $0x1,%rsi
    74d8:	0f 84 02 ff ff ff    	je     73e0 <_ZN71_$LT$backtrace..symbolize..SymbolName$u20$as$u20$core..fmt..Display$GT$3fmt17h17077a10756a9dedE+0x220>
    74de:	48 85 f6             	test   %rsi,%rsi
    74e1:	0f 84 5d 0f 00 00    	je     8444 <_ZN71_$LT$backtrace..symbolize..SymbolName$u20$as$u20$core..fmt..Display$GT$3fmt17h17077a10756a9dedE+0x1284>
    74e7:	41 80 7c 1c 01 bf    	cmpb   $0xbf,0x1(%r12,%rbx,1)
    74ed:	0f 8f ed fe ff ff    	jg     73e0 <_ZN71_$LT$backtrace..symbolize..SymbolName$u20$as$u20$core..fmt..Display$GT$3fmt17h17077a10756a9dedE+0x220>
    74f3:	e9 4c 0f 00 00       	jmpq   8444 <_ZN71_$LT$backtrace..symbolize..SymbolName$u20$as$u20$core..fmt..Display$GT$3fmt17h17077a10756a9dedE+0x1284>
    74f8:	0f 1f 84 00 00 00 00 	nopl   0x0(%rax,%rax,1)
    74ff:	00 
    7500:	4c 89 64 24 30       	mov    %r12,0x30(%rsp)
    7505:	4c 89 74 24 38       	mov    %r14,0x38(%rsp)
    750a:	49 39 de             	cmp    %rbx,%r14
    750d:	74 21                	je     7530 <_ZN71_$LT$backtrace..symbolize..SymbolName$u20$as$u20$core..fmt..Display$GT$3fmt17h17077a10756a9dedE+0x370>
    750f:	48 85 db             	test   %rbx,%rbx
    7512:	74 1c                	je     7530 <_ZN71_$LT$backtrace..symbolize..SymbolName$u20$as$u20$core..fmt..Display$GT$3fmt17h17077a10756a9dedE+0x370>
    7514:	49 39 de             	cmp    %rbx,%r14
    7517:	41 ba 0a 00 00 00    	mov    $0xa,%r10d
    751d:	0f 86 91 0f 00 00    	jbe    84b4 <_ZN71_$LT$backtrace..symbolize..SymbolName$u20$as$u20$core..fmt..Display$GT$3fmt17h17077a10756a9dedE+0x12f4>
    7523:	41 80 3c 1c c0       	cmpb   $0xc0,(%r12,%rbx,1)
    7528:	7d 15                	jge    753f <_ZN71_$LT$backtrace..symbolize..SymbolName$u20$as$u20$core..fmt..Display$GT$3fmt17h17077a10756a9dedE+0x37f>
    752a:	e9 85 0f 00 00       	jmpq   84b4 <_ZN71_$LT$backtrace..symbolize..SymbolName$u20$as$u20$core..fmt..Display$GT$3fmt17h17077a10756a9dedE+0x12f4>
    752f:	90                   	nop
    7530:	48 85 db             	test   %rbx,%rbx
    7533:	41 ba 0a 00 00 00    	mov    $0xa,%r10d
    7539:	0f 84 c7 0f 00 00    	je     8506 <_ZN71_$LT$backtrace..symbolize..SymbolName$u20$as$u20$core..fmt..Display$GT$3fmt17h17077a10756a9dedE+0x1346>
    753f:	41 80 3c 24 2b       	cmpb   $0x2b,(%r12)
    7544:	48 89 d9             	mov    %rbx,%rcx
    7547:	4d 89 e1             	mov    %r12,%r9
    754a:	75 13                	jne    755f <_ZN71_$LT$backtrace..symbolize..SymbolName$u20$as$u20$core..fmt..Display$GT$3fmt17h17077a10756a9dedE+0x39f>
    754c:	48 83 fb 01          	cmp    $0x1,%rbx
    7550:	0f 84 b0 0f 00 00    	je     8506 <_ZN71_$LT$backtrace..symbolize..SymbolName$u20$as$u20$core..fmt..Display$GT$3fmt17h17077a10756a9dedE+0x1346>
    7556:	4d 8d 4c 24 01       	lea    0x1(%r12),%r9
    755b:	48 8d 4b ff          	lea    -0x1(%rbx),%rcx
    755f:	48 8d 05 fe 8d 02 00 	lea    0x28dfe(%rip),%rax        # 30364 <_ZN4core7unicode12unicode_data2cc6BITSET17h5201257bcf8f09faE+0x104>
    7566:	4c 29 e0             	sub    %r12,%rax
    7569:	48 89 44 24 78       	mov    %rax,0x78(%rsp)
    756e:	4d 8d 1c 1c          	lea    (%r12,%rbx,1),%r11
    7572:	49 83 c3 01          	add    $0x1,%r11
    7576:	31 ed                	xor    %ebp,%ebp
    7578:	45 31 ff             	xor    %r15d,%r15d
    757b:	0f 1f 44 00 00       	nopl   0x0(%rax,%rax,1)
    7580:	48 39 e9             	cmp    %rbp,%rcx
    7583:	74 3b                	je     75c0 <_ZN71_$LT$backtrace..symbolize..SymbolName$u20$as$u20$core..fmt..Display$GT$3fmt17h17077a10756a9dedE+0x400>
    7585:	49 8d 04 29          	lea    (%r9,%rbp,1),%rax
    7589:	0f b6 38             	movzbl (%rax),%edi
    758c:	83 c7 d0             	add    $0xffffffd0,%edi
    758f:	83 ff 09             	cmp    $0x9,%edi
    7592:	0f 87 f0 0e 00 00    	ja     8488 <_ZN71_$LT$backtrace..symbolize..SymbolName$u20$as$u20$core..fmt..Display$GT$3fmt17h17077a10756a9dedE+0x12c8>
    7598:	4c 89 f8             	mov    %r15,%rax
    759b:	49 f7 e2             	mul    %r10
    759e:	b2 02                	mov    $0x2,%dl
    75a0:	0f 80 e4 0e 00 00    	jo     848a <_ZN71_$LT$backtrace..symbolize..SymbolName$u20$as$u20$core..fmt..Display$GT$3fmt17h17077a10756a9dedE+0x12ca>
    75a6:	49 89 c7             	mov    %rax,%r15
    75a9:	89 f8                	mov    %edi,%eax
    75ab:	48 83 c5 01          	add    $0x1,%rbp
    75af:	49 01 c7             	add    %rax,%r15
    75b2:	73 cc                	jae    7580 <_ZN71_$LT$backtrace..symbolize..SymbolName$u20$as$u20$core..fmt..Display$GT$3fmt17h17077a10756a9dedE+0x3c0>
    75b4:	e9 d1 0e 00 00       	jmpq   848a <_ZN71_$LT$backtrace..symbolize..SymbolName$u20$as$u20$core..fmt..Display$GT$3fmt17h17077a10756a9dedE+0x12ca>
    75b9:	0f 1f 80 00 00 00 00 	nopl   0x0(%rax)
    75c0:	4c 89 6c 24 18       	mov    %r13,0x18(%rsp)
    75c5:	48 89 74 24 20       	mov    %rsi,0x20(%rsp)
    75ca:	4c 89 7c 24 08       	mov    %r15,0x8(%rsp)
    75cf:	48 89 74 24 10       	mov    %rsi,0x10(%rsp)
    75d4:	4d 85 ff             	test   %r15,%r15
    75d7:	0f 94 c1             	sete   %cl
    75da:	4d 29 fe             	sub    %r15,%r14
    75dd:	49 29 de             	sub    %rbx,%r14
    75e0:	0f 94 c0             	sete   %al
    75e3:	08 c8                	or     %cl,%al
    75e5:	75 17                	jne    75fe <_ZN71_$LT$backtrace..symbolize..SymbolName$u20$as$u20$core..fmt..Display$GT$3fmt17h17077a10756a9dedE+0x43e>
    75e7:	4c 39 fe             	cmp    %r15,%rsi
    75ea:	0f 86 54 0e 00 00    	jbe    8444 <_ZN71_$LT$backtrace..symbolize..SymbolName$u20$as$u20$core..fmt..Display$GT$3fmt17h17077a10756a9dedE+0x1284>
    75f0:	4b 8d 0c 3c          	lea    (%r12,%r15,1),%rcx
    75f4:	80 3c 0b bf          	cmpb   $0xbf,(%rbx,%rcx,1)
    75f8:	0f 8e 46 0e 00 00    	jle    8444 <_ZN71_$LT$backtrace..symbolize..SymbolName$u20$as$u20$core..fmt..Display$GT$3fmt17h17077a10756a9dedE+0x1284>
    75fe:	4c 89 6c 24 30       	mov    %r13,0x30(%rsp)
    7603:	48 89 74 24 38       	mov    %rsi,0x38(%rsp)
    7608:	84 c0                	test   %al,%al
    760a:	75 17                	jne    7623 <_ZN71_$LT$backtrace..symbolize..SymbolName$u20$as$u20$core..fmt..Display$GT$3fmt17h17077a10756a9dedE+0x463>
    760c:	4c 39 fe             	cmp    %r15,%rsi
    760f:	0f 86 e2 0e 00 00    	jbe    84f7 <_ZN71_$LT$backtrace..symbolize..SymbolName$u20$as$u20$core..fmt..Display$GT$3fmt17h17077a10756a9dedE+0x1337>
    7615:	4b 8d 04 3c          	lea    (%r12,%r15,1),%rax
    7619:	80 3c 18 bf          	cmpb   $0xbf,(%rax,%rbx,1)
    761d:	0f 8e d4 0e 00 00    	jle    84f7 <_ZN71_$LT$backtrace..symbolize..SymbolName$u20$as$u20$core..fmt..Display$GT$3fmt17h17077a10756a9dedE+0x1337>
    7623:	4b 8d 04 2f          	lea    (%r15,%r13,1),%rax
    7627:	48 89 44 24 68       	mov    %rax,0x68(%rsp)
    762c:	4d 85 ff             	test   %r15,%r15
    762f:	0f 84 ab 01 00 00    	je     77e0 <_ZN71_$LT$backtrace..symbolize..SymbolName$u20$as$u20$core..fmt..Display$GT$3fmt17h17077a10756a9dedE+0x620>
    7635:	48 8b 84 24 80 00 00 	mov    0x80(%rsp),%rax
    763c:	00 
    763d:	48 3b 84 24 90 00 00 	cmp    0x90(%rsp),%rax
    7644:	00 
    7645:	0f 85 95 01 00 00    	jne    77e0 <_ZN71_$LT$backtrace..symbolize..SymbolName$u20$as$u20$core..fmt..Display$GT$3fmt17h17077a10756a9dedE+0x620>
    764b:	48 8b 44 24 28       	mov    0x28(%rsp),%rax
    7650:	8b 40 30             	mov    0x30(%rax),%eax
    7653:	83 e0 04             	and    $0x4,%eax
    7656:	0f 84 84 01 00 00    	je     77e0 <_ZN71_$LT$backtrace..symbolize..SymbolName$u20$as$u20$core..fmt..Display$GT$3fmt17h17077a10756a9dedE+0x620>
    765c:	41 80 7d 00 68       	cmpb   $0x68,0x0(%r13)
    7661:	0f 85 79 01 00 00    	jne    77e0 <_ZN71_$LT$backtrace..symbolize..SymbolName$u20$as$u20$core..fmt..Display$GT$3fmt17h17077a10756a9dedE+0x620>
    7667:	4c 89 6c 24 18       	mov    %r13,0x18(%rsp)
    766c:	4c 89 7c 24 20       	mov    %r15,0x20(%rsp)
    7671:	48 c7 44 24 08 01 00 	movq   $0x1,0x8(%rsp)
    7678:	00 00 
    767a:	4c 89 7c 24 10       	mov    %r15,0x10(%rsp)
    767f:	49 83 ff 01          	cmp    $0x1,%r15
    7683:	0f 84 69 0d 00 00    	je     83f2 <_ZN71_$LT$backtrace..symbolize..SymbolName$u20$as$u20$core..fmt..Display$GT$3fmt17h17077a10756a9dedE+0x1232>
    7689:	41 8a 0b             	mov    (%r11),%cl
    768c:	80 f9 bf             	cmp    $0xbf,%cl
    768f:	0f 8e af 0d 00 00    	jle    8444 <_ZN71_$LT$backtrace..symbolize..SymbolName$u20$as$u20$core..fmt..Display$GT$3fmt17h17077a10756a9dedE+0x1284>
    7695:	4d 89 f9             	mov    %r15,%r9
    7698:	49 f7 d9             	neg    %r9
    769b:	4c 89 e2             	mov    %r12,%rdx
    769e:	48 f7 da             	neg    %rdx
    76a1:	4c 89 de             	mov    %r11,%rsi
    76a4:	84 c9                	test   %cl,%cl
    76a6:	0f 89 16 01 00 00    	jns    77c2 <_ZN71_$LT$backtrace..symbolize..SymbolName$u20$as$u20$core..fmt..Display$GT$3fmt17h17077a10756a9dedE+0x602>
    76ac:	0f 1f 40 00          	nopl   0x0(%rax)
    76b0:	4a 8d 04 0e          	lea    (%rsi,%r9,1),%rax
    76b4:	48 8d 3c 02          	lea    (%rdx,%rax,1),%rdi
    76b8:	48 83 c7 01          	add    $0x1,%rdi
    76bc:	89 c8                	mov    %ecx,%eax
    76be:	24 1f                	and    $0x1f,%al
    76c0:	48 39 df             	cmp    %rbx,%rdi
    76c3:	74 4b                	je     7710 <_ZN71_$LT$backtrace..symbolize..SymbolName$u20$as$u20$core..fmt..Display$GT$3fmt17h17077a10756a9dedE+0x550>
    76c5:	0f b6 7e 01          	movzbl 0x1(%rsi),%edi
    76c9:	48 83 c6 02          	add    $0x2,%rsi
    76cd:	83 e7 3f             	and    $0x3f,%edi
    76d0:	0f b6 c0             	movzbl %al,%eax
    76d3:	80 f9 df             	cmp    $0xdf,%cl
    76d6:	76 47                	jbe    771f <_ZN71_$LT$backtrace..symbolize..SymbolName$u20$as$u20$core..fmt..Display$GT$3fmt17h17077a10756a9dedE+0x55f>
    76d8:	4a 8d 2c 0e          	lea    (%rsi,%r9,1),%rbp
    76dc:	48 01 d5             	add    %rdx,%rbp
    76df:	48 39 dd             	cmp    %rbx,%rbp
    76e2:	74 76                	je     775a <_ZN71_$LT$backtrace..symbolize..SymbolName$u20$as$u20$core..fmt..Display$GT$3fmt17h17077a10756a9dedE+0x59a>
    76e4:	0f b6 2e             	movzbl (%rsi),%ebp
    76e7:	48 83 c6 01          	add    $0x1,%rsi
    76eb:	83 e5 3f             	and    $0x3f,%ebp
    76ee:	c1 e7 06             	shl    $0x6,%edi
    76f1:	09 ef                	or     %ebp,%edi
    76f3:	80 f9 f0             	cmp    $0xf0,%cl
    76f6:	72 73                	jb     776b <_ZN71_$LT$backtrace..symbolize..SymbolName$u20$as$u20$core..fmt..Display$GT$3fmt17h17077a10756a9dedE+0x5ab>
    76f8:	4a 8d 0c 0e          	lea    (%rsi,%r9,1),%rcx
    76fc:	48 01 d1             	add    %rdx,%rcx
    76ff:	48 39 d9             	cmp    %rbx,%rcx
    7702:	74 76                	je     777a <_ZN71_$LT$backtrace..symbolize..SymbolName$u20$as$u20$core..fmt..Display$GT$3fmt17h17077a10756a9dedE+0x5ba>
    7704:	0f b6 0e             	movzbl (%rsi),%ecx
    7707:	48 83 c6 01          	add    $0x1,%rsi
    770b:	83 e1 3f             	and    $0x3f,%ecx
    770e:	eb 71                	jmp    7781 <_ZN71_$LT$backtrace..symbolize..SymbolName$u20$as$u20$core..fmt..Display$GT$3fmt17h17077a10756a9dedE+0x5c1>
    7710:	31 ff                	xor    %edi,%edi
    7712:	48 8b 74 24 68       	mov    0x68(%rsp),%rsi
    7717:	0f b6 c0             	movzbl %al,%eax
    771a:	80 f9 df             	cmp    $0xdf,%cl
    771d:	77 b9                	ja     76d8 <_ZN71_$LT$backtrace..symbolize..SymbolName$u20$as$u20$core..fmt..Display$GT$3fmt17h17077a10756a9dedE+0x518>
    771f:	c1 e0 06             	shl    $0x6,%eax
    7722:	09 c7                	or     %eax,%edi
    7724:	8d 47 d0             	lea    -0x30(%rdi),%eax
    7727:	83 f8 0a             	cmp    $0xa,%eax
    772a:	72 7c                	jb     77a8 <_ZN71_$LT$backtrace..symbolize..SymbolName$u20$as$u20$core..fmt..Display$GT$3fmt17h17077a10756a9dedE+0x5e8>
    772c:	0f 1f 40 00          	nopl   0x0(%rax)
    7730:	8d 4f 9f             	lea    -0x61(%rdi),%ecx
    7733:	b8 a9 ff ff ff       	mov    $0xffffffa9,%eax
    7738:	83 f9 1a             	cmp    $0x1a,%ecx
    773b:	72 11                	jb     774e <_ZN71_$LT$backtrace..symbolize..SymbolName$u20$as$u20$core..fmt..Display$GT$3fmt17h17077a10756a9dedE+0x58e>
    773d:	8d 4f bf             	lea    -0x41(%rdi),%ecx
    7740:	b8 c9 ff ff ff       	mov    $0xffffffc9,%eax
    7745:	83 f9 19             	cmp    $0x19,%ecx
    7748:	0f 87 92 00 00 00    	ja     77e0 <_ZN71_$LT$backtrace..symbolize..SymbolName$u20$as$u20$core..fmt..Display$GT$3fmt17h17077a10756a9dedE+0x620>
    774e:	01 c7                	add    %eax,%edi
    7750:	83 ff 0f             	cmp    $0xf,%edi
    7753:	76 53                	jbe    77a8 <_ZN71_$LT$backtrace..symbolize..SymbolName$u20$as$u20$core..fmt..Display$GT$3fmt17h17077a10756a9dedE+0x5e8>
    7755:	e9 86 00 00 00       	jmpq   77e0 <_ZN71_$LT$backtrace..symbolize..SymbolName$u20$as$u20$core..fmt..Display$GT$3fmt17h17077a10756a9dedE+0x620>
    775a:	31 ed                	xor    %ebp,%ebp
    775c:	48 8b 74 24 68       	mov    0x68(%rsp),%rsi
    7761:	c1 e7 06             	shl    $0x6,%edi
    7764:	09 ef                	or     %ebp,%edi
    7766:	80 f9 f0             	cmp    $0xf0,%cl
    7769:	73 8d                	jae    76f8 <_ZN71_$LT$backtrace..symbolize..SymbolName$u20$as$u20$core..fmt..Display$GT$3fmt17h17077a10756a9dedE+0x538>
    776b:	c1 e0 0c             	shl    $0xc,%eax
    776e:	09 c7                	or     %eax,%edi
    7770:	8d 47 d0             	lea    -0x30(%rdi),%eax
    7773:	83 f8 0a             	cmp    $0xa,%eax
    7776:	73 b8                	jae    7730 <_ZN71_$LT$backtrace..symbolize..SymbolName$u20$as$u20$core..fmt..Display$GT$3fmt17h17077a10756a9dedE+0x570>
    7778:	eb 2e                	jmp    77a8 <_ZN71_$LT$backtrace..symbolize..SymbolName$u20$as$u20$core..fmt..Display$GT$3fmt17h17077a10756a9dedE+0x5e8>
    777a:	31 c9                	xor    %ecx,%ecx
    777c:	48 8b 74 24 68       	mov    0x68(%rsp),%rsi
    7781:	83 e0 07             	and    $0x7,%eax
    7784:	c1 e0 12             	shl    $0x12,%eax
    7787:	c1 e7 06             	shl    $0x6,%edi
    778a:	09 c7                	or     %eax,%edi
    778c:	09 cf                	or     %ecx,%edi
    778e:	81 ff 00 00 11 00    	cmp    $0x110000,%edi
    7794:	0f 84 58 0c 00 00    	je     83f2 <_ZN71_$LT$backtrace..symbolize..SymbolName$u20$as$u20$core..fmt..Display$GT$3fmt17h17077a10756a9dedE+0x1232>
    779a:	66 0f 1f 44 00 00    	nopw   0x0(%rax,%rax,1)
    77a0:	8d 47 d0             	lea    -0x30(%rdi),%eax
    77a3:	83 f8 0a             	cmp    $0xa,%eax
    77a6:	73 88                	jae    7730 <_ZN71_$LT$backtrace..symbolize..SymbolName$u20$as$u20$core..fmt..Display$GT$3fmt17h17077a10756a9dedE+0x570>
    77a8:	4a 8d 04 0e          	lea    (%rsi,%r9,1),%rax
    77ac:	48 01 d0             	add    %rdx,%rax
    77af:	48 39 d8             	cmp    %rbx,%rax
    77b2:	0f 84 3a 0c 00 00    	je     83f2 <_ZN71_$LT$backtrace..symbolize..SymbolName$u20$as$u20$core..fmt..Display$GT$3fmt17h17077a10756a9dedE+0x1232>
    77b8:	8a 0e                	mov    (%rsi),%cl
    77ba:	84 c9                	test   %cl,%cl
    77bc:	0f 88 ee fe ff ff    	js     76b0 <_ZN71_$LT$backtrace..symbolize..SymbolName$u20$as$u20$core..fmt..Display$GT$3fmt17h17077a10756a9dedE+0x4f0>
    77c2:	48 83 c6 01          	add    $0x1,%rsi
    77c6:	0f b6 f9             	movzbl %cl,%edi
    77c9:	8d 47 d0             	lea    -0x30(%rdi),%eax
    77cc:	83 f8 0a             	cmp    $0xa,%eax
    77cf:	0f 83 5b ff ff ff    	jae    7730 <_ZN71_$LT$backtrace..symbolize..SymbolName$u20$as$u20$core..fmt..Display$GT$3fmt17h17077a10756a9dedE+0x570>
    77d5:	eb d1                	jmp    77a8 <_ZN71_$LT$backtrace..symbolize..SymbolName$u20$as$u20$core..fmt..Display$GT$3fmt17h17077a10756a9dedE+0x5e8>
    77d7:	66 0f 1f 84 00 00 00 	nopw   0x0(%rax,%rax,1)
    77de:	00 00 
    77e0:	4d 85 c0             	test   %r8,%r8
    77e3:	74 42                	je     7827 <_ZN71_$LT$backtrace..symbolize..SymbolName$u20$as$u20$core..fmt..Display$GT$3fmt17h17077a10756a9dedE+0x667>
    77e5:	48 8b 44 24 28       	mov    0x28(%rsp),%rax
    77ea:	48 8b 78 20          	mov    0x20(%rax),%rdi
    77ee:	48 8b 40 28          	mov    0x28(%rax),%rax
    77f2:	ba 02 00 00 00       	mov    $0x2,%edx
    77f7:	48 8d 35 64 8b 02 00 	lea    0x28b64(%rip),%rsi        # 30362 <_ZN4core7unicode12unicode_data2cc6BITSET17h5201257bcf8f09faE+0x102>
    77fe:	4c 89 dd             	mov    %r11,%rbp
    7801:	ff 50 18             	callq  *0x18(%rax)
    7804:	49 89 eb             	mov    %rbp,%r11
    7807:	66 0f 6f 25 c1 65 02 	movdqa 0x265c1(%rip),%xmm4        # 2ddd0 <_fini+0x1cc>
    780e:	00 
    780f:	66 0f 6f 1d a9 65 02 	movdqa 0x265a9(%rip),%xmm3        # 2ddc0 <_fini+0x1bc>
    7816:	00 
    7817:	66 0f 6f 15 91 65 02 	movdqa 0x26591(%rip),%xmm2        # 2ddb0 <_fini+0x1ac>
    781e:	00 
    781f:	84 c0                	test   %al,%al
    7821:	0f 85 05 0c 00 00    	jne    842c <_ZN71_$LT$backtrace..symbolize..SymbolName$u20$as$u20$core..fmt..Display$GT$3fmt17h17077a10756a9dedE+0x126c>
    7827:	49 83 ff 02          	cmp    $0x2,%r15
    782b:	72 53                	jb     7880 <_ZN71_$LT$backtrace..symbolize..SymbolName$u20$as$u20$core..fmt..Display$GT$3fmt17h17077a10756a9dedE+0x6c0>
    782d:	48 8d 05 30 8b 02 00 	lea    0x28b30(%rip),%rax        # 30364 <_ZN4core7unicode12unicode_data2cc6BITSET17h5201257bcf8f09faE+0x104>
    7834:	48 39 5c 24 78       	cmp    %rbx,0x78(%rsp)
    7839:	74 10                	je     784b <_ZN71_$LT$backtrace..symbolize..SymbolName$u20$as$u20$core..fmt..Display$GT$3fmt17h17077a10756a9dedE+0x68b>
    783b:	41 0f b7 4d 00       	movzwl 0x0(%r13),%ecx
    7840:	4c 89 e8             	mov    %r13,%rax
    7843:	81 f9 5f 24 00 00    	cmp    $0x245f,%ecx
    7849:	75 35                	jne    7880 <_ZN71_$LT$backtrace..symbolize..SymbolName$u20$as$u20$core..fmt..Display$GT$3fmt17h17077a10756a9dedE+0x6c0>
    784b:	48 89 44 24 18       	mov    %rax,0x18(%rsp)
    7850:	4c 89 7c 24 20       	mov    %r15,0x20(%rsp)
    7855:	48 c7 44 24 08 01 00 	movq   $0x1,0x8(%rsp)
    785c:	00 00 
    785e:	4c 89 7c 24 10       	mov    %r15,0x10(%rsp)
    7863:	41 80 3b bf          	cmpb   $0xbf,(%r11)
    7867:	0f 8e d7 0b 00 00    	jle    8444 <_ZN71_$LT$backtrace..symbolize..SymbolName$u20$as$u20$core..fmt..Display$GT$3fmt17h17077a10756a9dedE+0x1284>
    786d:	49 83 c7 ff          	add    $0xffffffffffffffff,%r15
    7871:	4d 8d 2c 1c          	lea    (%r12,%rbx,1),%r13
    7875:	49 83 c5 01          	add    $0x1,%r13
    7879:	0f 1f 80 00 00 00 00 	nopl   0x0(%rax)
    7880:	4d 89 fc             	mov    %r15,%r12
    7883:	4d 85 ff             	test   %r15,%r15
    7886:	0f 84 b4 09 00 00    	je     8240 <_ZN71_$LT$backtrace..symbolize..SymbolName$u20$as$u20$core..fmt..Display$GT$3fmt17h17077a10756a9dedE+0x1080>
    788c:	41 8a 45 00          	mov    0x0(%r13),%al
    7890:	3c 24                	cmp    $0x24,%al
    7892:	0f 84 b8 00 00 00    	je     7950 <_ZN71_$LT$backtrace..symbolize..SymbolName$u20$as$u20$core..fmt..Display$GT$3fmt17h17077a10756a9dedE+0x790>
    7898:	3c 2e                	cmp    $0x2e,%al
    789a:	0f 85 a0 09 00 00    	jne    8240 <_ZN71_$LT$backtrace..symbolize..SymbolName$u20$as$u20$core..fmt..Display$GT$3fmt17h17077a10756a9dedE+0x1080>
    78a0:	4c 89 6c 24 18       	mov    %r13,0x18(%rsp)
    78a5:	4c 89 64 24 20       	mov    %r12,0x20(%rsp)
    78aa:	48 c7 44 24 08 01 00 	movq   $0x1,0x8(%rsp)
    78b1:	00 00 
    78b3:	4c 89 64 24 10       	mov    %r12,0x10(%rsp)
    78b8:	49 83 fc 01          	cmp    $0x1,%r12
    78bc:	74 0b                	je     78c9 <_ZN71_$LT$backtrace..symbolize..SymbolName$u20$as$u20$core..fmt..Display$GT$3fmt17h17077a10756a9dedE+0x709>
    78be:	41 80 7d 01 bf       	cmpb   $0xbf,0x1(%r13)
    78c3:	0f 8e 7b 0b 00 00    	jle    8444 <_ZN71_$LT$backtrace..symbolize..SymbolName$u20$as$u20$core..fmt..Display$GT$3fmt17h17077a10756a9dedE+0x1284>
    78c9:	49 83 fc 01          	cmp    $0x1,%r12
    78cd:	0f 84 13 04 00 00    	je     7ce6 <_ZN71_$LT$backtrace..symbolize..SymbolName$u20$as$u20$core..fmt..Display$GT$3fmt17h17077a10756a9dedE+0xb26>
    78d3:	41 0f b6 55 01       	movzbl 0x1(%r13),%edx
    78d8:	84 d2                	test   %dl,%dl
    78da:	0f 88 9e 03 00 00    	js     7c7e <_ZN71_$LT$backtrace..symbolize..SymbolName$u20$as$u20$core..fmt..Display$GT$3fmt17h17077a10756a9dedE+0xabe>
    78e0:	89 d0                	mov    %edx,%eax
    78e2:	83 f8 2e             	cmp    $0x2e,%eax
    78e5:	0f 85 fb 03 00 00    	jne    7ce6 <_ZN71_$LT$backtrace..symbolize..SymbolName$u20$as$u20$core..fmt..Display$GT$3fmt17h17077a10756a9dedE+0xb26>
    78eb:	48 8b 44 24 28       	mov    0x28(%rsp),%rax
    78f0:	48 8b 78 20          	mov    0x20(%rax),%rdi
    78f4:	48 8b 40 28          	mov    0x28(%rax),%rax
    78f8:	ba 02 00 00 00       	mov    $0x2,%edx
    78fd:	48 8d 35 5e 8a 02 00 	lea    0x28a5e(%rip),%rsi        # 30362 <_ZN4core7unicode12unicode_data2cc6BITSET17h5201257bcf8f09faE+0x102>
    7904:	ff 50 18             	callq  *0x18(%rax)
    7907:	84 c0                	test   %al,%al
    7909:	0f 85 1d 0b 00 00    	jne    842c <_ZN71_$LT$backtrace..symbolize..SymbolName$u20$as$u20$core..fmt..Display$GT$3fmt17h17077a10756a9dedE+0x126c>
    790f:	4c 89 6c 24 18       	mov    %r13,0x18(%rsp)
    7914:	49 83 c5 02          	add    $0x2,%r13
    7918:	4c 89 64 24 20       	mov    %r12,0x20(%rsp)
    791d:	48 c7 44 24 08 02 00 	movq   $0x2,0x8(%rsp)
    7924:	00 00 
    7926:	4c 89 64 24 10       	mov    %r12,0x10(%rsp)
    792b:	49 83 fc 02          	cmp    $0x2,%r12
    792f:	74 0b                	je     793c <_ZN71_$LT$backtrace..symbolize..SymbolName$u20$as$u20$core..fmt..Display$GT$3fmt17h17077a10756a9dedE+0x77c>
    7931:	41 80 7d 00 bf       	cmpb   $0xbf,0x0(%r13)
    7936:	0f 8e 08 0b 00 00    	jle    8444 <_ZN71_$LT$backtrace..symbolize..SymbolName$u20$as$u20$core..fmt..Display$GT$3fmt17h17077a10756a9dedE+0x1284>
    793c:	49 83 c4 fe          	add    $0xfffffffffffffffe,%r12
    7940:	e9 f6 03 00 00       	jmpq   7d3b <_ZN71_$LT$backtrace..symbolize..SymbolName$u20$as$u20$core..fmt..Display$GT$3fmt17h17077a10756a9dedE+0xb7b>
    7945:	66 2e 0f 1f 84 00 00 	nopw   %cs:0x0(%rax,%rax,1)
    794c:	00 00 00 
    794f:	90                   	nop
    7950:	4c 89 6c 24 18       	mov    %r13,0x18(%rsp)
    7955:	4c 89 64 24 20       	mov    %r12,0x20(%rsp)
    795a:	48 c7 44 24 08 01 00 	movq   $0x1,0x8(%rsp)
    7961:	00 00 
    7963:	4c 89 64 24 10       	mov    %r12,0x10(%rsp)
    7968:	49 83 fc 01          	cmp    $0x1,%r12
    796c:	74 0b                	je     7979 <_ZN71_$LT$backtrace..symbolize..SymbolName$u20$as$u20$core..fmt..Display$GT$3fmt17h17077a10756a9dedE+0x7b9>
    796e:	41 80 7d 01 bf       	cmpb   $0xbf,0x1(%r13)
    7973:	0f 8e cb 0a 00 00    	jle    8444 <_ZN71_$LT$backtrace..symbolize..SymbolName$u20$as$u20$core..fmt..Display$GT$3fmt17h17077a10756a9dedE+0x1284>
    7979:	4d 8d 4d 01          	lea    0x1(%r13),%r9
    797d:	4c 89 64 24 60       	mov    %r12,0x60(%rsp)
    7982:	49 83 c4 ff          	add    $0xffffffffffffffff,%r12
    7986:	4c 89 4c 24 30       	mov    %r9,0x30(%rsp)
    798b:	4c 89 64 24 38       	mov    %r12,0x38(%rsp)
    7990:	48 c7 44 24 40 00 00 	movq   $0x0,0x40(%rsp)
    7997:	00 00 
    7999:	4c 89 64 24 48       	mov    %r12,0x48(%rsp)
    799e:	48 b8 24 00 00 00 24 	movabs $0x2400000024,%rax
    79a5:	00 00 00 
    79a8:	48 89 44 24 58       	mov    %rax,0x58(%rsp)
    79ad:	48 c7 44 24 50 01 00 	movq   $0x1,0x50(%rsp)
    79b4:	00 00 
    79b6:	44 89 c9             	mov    %r9d,%ecx
    79b9:	83 e1 07             	and    $0x7,%ecx
    79bc:	48 85 c9             	test   %rcx,%rcx
    79bf:	0f 84 ad 00 00 00    	je     7a72 <_ZN71_$LT$backtrace..symbolize..SymbolName$u20$as$u20$core..fmt..Display$GT$3fmt17h17077a10756a9dedE+0x8b2>
    79c5:	b8 08 00 00 00       	mov    $0x8,%eax
    79ca:	bf 00 00 00 00       	mov    $0x0,%edi
    79cf:	48 29 c8             	sub    %rcx,%rax
    79d2:	74 48                	je     7a1c <_ZN71_$LT$backtrace..symbolize..SymbolName$u20$as$u20$core..fmt..Display$GT$3fmt17h17077a10756a9dedE+0x85c>
    79d4:	4c 39 e0             	cmp    %r12,%rax
    79d7:	49 0f 47 c4          	cmova  %r12,%rax
    79db:	48 89 c2             	mov    %rax,%rdx
    79de:	48 f7 da             	neg    %rdx
    79e1:	48 c7 c1 ff ff ff ff 	mov    $0xffffffffffffffff,%rcx
    79e8:	0f 1f 84 00 00 00 00 	nopl   0x0(%rax,%rax,1)
    79ef:	00 
    79f0:	48 8d 3c 0a          	lea    (%rdx,%rcx,1),%rdi
    79f4:	48 83 ff ff          	cmp    $0xffffffffffffffff,%rdi
    79f8:	74 1f                	je     7a19 <_ZN71_$LT$backtrace..symbolize..SymbolName$u20$as$u20$core..fmt..Display$GT$3fmt17h17077a10756a9dedE+0x859>
    79fa:	41 80 7c 0d 02 24    	cmpb   $0x24,0x2(%r13,%rcx,1)
    7a00:	48 8d 49 01          	lea    0x1(%rcx),%rcx
    7a04:	75 ea                	jne    79f0 <_ZN71_$LT$backtrace..symbolize..SymbolName$u20$as$u20$core..fmt..Display$GT$3fmt17h17077a10756a9dedE+0x830>
    7a06:	0f 94 c0             	sete   %al
    7a09:	04 01                	add    $0x1,%al
    7a0b:	0f b6 d8             	movzbl %al,%ebx
    7a0e:	83 e3 01             	and    $0x1,%ebx
    7a11:	48 01 cb             	add    %rcx,%rbx
    7a14:	e9 a1 00 00 00       	jmpq   7aba <_ZN71_$LT$backtrace..symbolize..SymbolName$u20$as$u20$core..fmt..Display$GT$3fmt17h17077a10756a9dedE+0x8fa>
    7a19:	48 89 c7             	mov    %rax,%rdi
    7a1c:	49 83 fc 10          	cmp    $0x10,%r12
