
./rust_6par/target/release/num_perf_demo:     file format elf64-x86-64


Disassembly of section .init:

0000000000003fc0 <_init>:
    3fc0:	48 83 ec 08          	sub    $0x8,%rsp
    3fc4:	48 8b 05 fd 3e 24 00 	mov    0x243efd(%rip),%rax        # 247ec8 <__gmon_start__>
    3fcb:	48 85 c0             	test   %rax,%rax
    3fce:	74 02                	je     3fd2 <_init+0x12>
    3fd0:	ff d0                	callq  *%rax
    3fd2:	48 83 c4 08          	add    $0x8,%rsp
    3fd6:	c3                   	retq   

Disassembly of section .plt:

0000000000003fe0 <.plt>:
    3fe0:	ff 35 12 3d 24 00    	pushq  0x243d12(%rip)        # 247cf8 <_GLOBAL_OFFSET_TABLE_+0x8>
    3fe6:	ff 25 14 3d 24 00    	jmpq   *0x243d14(%rip)        # 247d00 <_GLOBAL_OFFSET_TABLE_+0x10>
    3fec:	0f 1f 40 00          	nopl   0x0(%rax)

0000000000003ff0 <dl_iterate_phdr@plt>:
    3ff0:	ff 25 12 3d 24 00    	jmpq   *0x243d12(%rip)        # 247d08 <dl_iterate_phdr@GLIBC_2.2.5>
    3ff6:	68 00 00 00 00       	pushq  $0x0
    3ffb:	e9 e0 ff ff ff       	jmpq   3fe0 <.plt>

0000000000004000 <getpid@plt>:
    4000:	ff 25 0a 3d 24 00    	jmpq   *0x243d0a(%rip)        # 247d10 <getpid@GLIBC_2.2.5>
    4006:	68 01 00 00 00       	pushq  $0x1
    400b:	e9 d0 ff ff ff       	jmpq   3fe0 <.plt>

0000000000004010 <snprintf@plt>:
    4010:	ff 25 02 3d 24 00    	jmpq   *0x243d02(%rip)        # 247d18 <snprintf@GLIBC_2.2.5>
    4016:	68 02 00 00 00       	pushq  $0x2
    401b:	e9 c0 ff ff ff       	jmpq   3fe0 <.plt>

0000000000004020 <strrchr@plt>:
    4020:	ff 25 fa 3c 24 00    	jmpq   *0x243cfa(%rip)        # 247d20 <strrchr@GLIBC_2.2.5>
    4026:	68 03 00 00 00       	pushq  $0x3
    402b:	e9 b0 ff ff ff       	jmpq   3fe0 <.plt>

0000000000004030 <lseek@plt>:
    4030:	ff 25 f2 3c 24 00    	jmpq   *0x243cf2(%rip)        # 247d28 <lseek@GLIBC_2.2.5>
    4036:	68 04 00 00 00       	pushq  $0x4
    403b:	e9 a0 ff ff ff       	jmpq   3fe0 <.plt>

0000000000004040 <close@plt>:
    4040:	ff 25 ea 3c 24 00    	jmpq   *0x243cea(%rip)        # 247d30 <close@GLIBC_2.2.5>
    4046:	68 05 00 00 00       	pushq  $0x5
    404b:	e9 90 ff ff ff       	jmpq   3fe0 <.plt>

0000000000004050 <read@plt>:
    4050:	ff 25 e2 3c 24 00    	jmpq   *0x243ce2(%rip)        # 247d38 <read@GLIBC_2.2.5>
    4056:	68 06 00 00 00       	pushq  $0x6
    405b:	e9 80 ff ff ff       	jmpq   3fe0 <.plt>

0000000000004060 <strcmp@plt>:
    4060:	ff 25 da 3c 24 00    	jmpq   *0x243cda(%rip)        # 247d40 <strcmp@GLIBC_2.2.5>
    4066:	68 07 00 00 00       	pushq  $0x7
    406b:	e9 70 ff ff ff       	jmpq   3fe0 <.plt>

0000000000004070 <__fxstat@plt>:
    4070:	ff 25 d2 3c 24 00    	jmpq   *0x243cd2(%rip)        # 247d48 <__fxstat@GLIBC_2.2.5>
    4076:	68 08 00 00 00       	pushq  $0x8
    407b:	e9 60 ff ff ff       	jmpq   3fe0 <.plt>

0000000000004080 <open@plt>:
    4080:	ff 25 ca 3c 24 00    	jmpq   *0x243cca(%rip)        # 247d50 <open@GLIBC_2.2.5>
    4086:	68 09 00 00 00       	pushq  $0x9
    408b:	e9 50 ff ff ff       	jmpq   3fe0 <.plt>

0000000000004090 <bsearch@plt>:
    4090:	ff 25 c2 3c 24 00    	jmpq   *0x243cc2(%rip)        # 247d58 <bsearch@GLIBC_2.2.5>
    4096:	68 0a 00 00 00       	pushq  $0xa
    409b:	e9 40 ff ff ff       	jmpq   3fe0 <.plt>

00000000000040a0 <_Unwind_Resume@plt>:
    40a0:	ff 25 ba 3c 24 00    	jmpq   *0x243cba(%rip)        # 247d60 <_Unwind_Resume@GCC_3.0>
    40a6:	68 0b 00 00 00       	pushq  $0xb
    40ab:	e9 30 ff ff ff       	jmpq   3fe0 <.plt>

Disassembly of section .plt.got:

00000000000040b0 <free@plt>:
    40b0:	ff 25 c2 3c 24 00    	jmpq   *0x243cc2(%rip)        # 247d78 <free@GLIBC_2.2.5>
    40b6:	66 90                	xchg   %ax,%ax

00000000000040b8 <abort@plt>:
    40b8:	ff 25 d2 3c 24 00    	jmpq   *0x243cd2(%rip)        # 247d90 <abort@GLIBC_2.2.5>
    40be:	66 90                	xchg   %ax,%ax

00000000000040c0 <__errno_location@plt>:
    40c0:	ff 25 da 3c 24 00    	jmpq   *0x243cda(%rip)        # 247da0 <__errno_location@GLIBC_2.2.5>
    40c6:	66 90                	xchg   %ax,%ax

00000000000040c8 <strlen@plt>:
    40c8:	ff 25 4a 3d 24 00    	jmpq   *0x243d4a(%rip)        # 247e18 <strlen@GLIBC_2.2.5>
    40ce:	66 90                	xchg   %ax,%ax

00000000000040d0 <memset@plt>:
    40d0:	ff 25 7a 3d 24 00    	jmpq   *0x243d7a(%rip)        # 247e50 <memset@GLIBC_2.2.5>
    40d6:	66 90                	xchg   %ax,%ax

00000000000040d8 <memcpy@plt>:
    40d8:	ff 25 f2 3d 24 00    	jmpq   *0x243df2(%rip)        # 247ed0 <memcpy@GLIBC_2.14>
    40de:	66 90                	xchg   %ax,%ax

00000000000040e0 <malloc@plt>:
    40e0:	ff 25 22 3e 24 00    	jmpq   *0x243e22(%rip)        # 247f08 <malloc@GLIBC_2.2.5>
    40e6:	66 90                	xchg   %ax,%ax

00000000000040e8 <realloc@plt>:
    40e8:	ff 25 4a 3e 24 00    	jmpq   *0x243e4a(%rip)        # 247f38 <realloc@GLIBC_2.2.5>
    40ee:	66 90                	xchg   %ax,%ax

00000000000040f0 <__cxa_finalize@plt>:
    40f0:	ff 25 e2 3e 24 00    	jmpq   *0x243ee2(%rip)        # 247fd8 <__cxa_finalize@GLIBC_2.2.5>
    40f6:	66 90                	xchg   %ax,%ax

Disassembly of section .text:

0000000000004100 <_start>:
    4100:	31 ed                	xor    %ebp,%ebp
    4102:	49 89 d1             	mov    %rdx,%r9
    4105:	5e                   	pop    %rsi
    4106:	48 89 e2             	mov    %rsp,%rdx
    4109:	48 83 e4 f0          	and    $0xfffffffffffffff0,%rsp
    410d:	50                   	push   %rax
    410e:	54                   	push   %rsp
    410f:	4c 8d 05 2a 62 03 00 	lea    0x3622a(%rip),%r8        # 3a340 <__libc_csu_fini>
    4116:	48 8d 0d b3 61 03 00 	lea    0x361b3(%rip),%rcx        # 3a2d0 <__libc_csu_init>
    411d:	48 8d 3d 2c 0c 00 00 	lea    0xc2c(%rip),%rdi        # 4d50 <main>
    4124:	ff 15 6e 3d 24 00    	callq  *0x243d6e(%rip)        # 247e98 <__libc_start_main@GLIBC_2.2.5>
    412a:	f4                   	hlt    
    412b:	0f 1f 44 00 00       	nopl   0x0(%rax,%rax,1)

0000000000004130 <deregister_tm_clones>:
    4130:	48 8d 3d 19 3f 24 00 	lea    0x243f19(%rip),%rdi        # 248050 <__TMC_END__>
    4137:	55                   	push   %rbp
    4138:	48 8d 05 11 3f 24 00 	lea    0x243f11(%rip),%rax        # 248050 <__TMC_END__>
    413f:	48 39 f8             	cmp    %rdi,%rax
    4142:	48 89 e5             	mov    %rsp,%rbp
    4145:	74 19                	je     4160 <deregister_tm_clones+0x30>
    4147:	48 8b 05 62 3c 24 00 	mov    0x243c62(%rip),%rax        # 247db0 <_ITM_deregisterTMCloneTable>
    414e:	48 85 c0             	test   %rax,%rax
    4151:	74 0d                	je     4160 <deregister_tm_clones+0x30>
    4153:	5d                   	pop    %rbp
    4154:	ff e0                	jmpq   *%rax
    4156:	66 2e 0f 1f 84 00 00 	nopw   %cs:0x0(%rax,%rax,1)
    415d:	00 00 00 
    4160:	5d                   	pop    %rbp
    4161:	c3                   	retq   
    4162:	0f 1f 40 00          	nopl   0x0(%rax)
    4166:	66 2e 0f 1f 84 00 00 	nopw   %cs:0x0(%rax,%rax,1)
    416d:	00 00 00 

0000000000004170 <register_tm_clones>:
    4170:	48 8d 3d d9 3e 24 00 	lea    0x243ed9(%rip),%rdi        # 248050 <__TMC_END__>
    4177:	48 8d 35 d2 3e 24 00 	lea    0x243ed2(%rip),%rsi        # 248050 <__TMC_END__>
    417e:	55                   	push   %rbp
    417f:	48 29 fe             	sub    %rdi,%rsi
    4182:	48 89 e5             	mov    %rsp,%rbp
    4185:	48 c1 fe 03          	sar    $0x3,%rsi
    4189:	48 89 f0             	mov    %rsi,%rax
    418c:	48 c1 e8 3f          	shr    $0x3f,%rax
    4190:	48 01 c6             	add    %rax,%rsi
    4193:	48 d1 fe             	sar    %rsi
    4196:	74 18                	je     41b0 <register_tm_clones+0x40>
    4198:	48 8b 05 09 3e 24 00 	mov    0x243e09(%rip),%rax        # 247fa8 <_ITM_registerTMCloneTable>
    419f:	48 85 c0             	test   %rax,%rax
    41a2:	74 0c                	je     41b0 <register_tm_clones+0x40>
    41a4:	5d                   	pop    %rbp
    41a5:	ff e0                	jmpq   *%rax
    41a7:	66 0f 1f 84 00 00 00 	nopw   0x0(%rax,%rax,1)
    41ae:	00 00 
    41b0:	5d                   	pop    %rbp
    41b1:	c3                   	retq   
    41b2:	0f 1f 40 00          	nopl   0x0(%rax)
    41b6:	66 2e 0f 1f 84 00 00 	nopw   %cs:0x0(%rax,%rax,1)
    41bd:	00 00 00 

00000000000041c0 <__do_global_dtors_aux>:
    41c0:	80 3d 89 3e 24 00 00 	cmpb   $0x0,0x243e89(%rip)        # 248050 <__TMC_END__>
    41c7:	75 2f                	jne    41f8 <__do_global_dtors_aux+0x38>
    41c9:	48 83 3d 07 3e 24 00 	cmpq   $0x0,0x243e07(%rip)        # 247fd8 <__cxa_finalize@GLIBC_2.2.5>
    41d0:	00 
    41d1:	55                   	push   %rbp
    41d2:	48 89 e5             	mov    %rsp,%rbp
    41d5:	74 0c                	je     41e3 <__do_global_dtors_aux+0x23>
    41d7:	48 8b 3d 22 3e 24 00 	mov    0x243e22(%rip),%rdi        # 248000 <__dso_handle>
    41de:	e8 0d ff ff ff       	callq  40f0 <__cxa_finalize@plt>
    41e3:	e8 48 ff ff ff       	callq  4130 <deregister_tm_clones>
    41e8:	c6 05 61 3e 24 00 01 	movb   $0x1,0x243e61(%rip)        # 248050 <__TMC_END__>
    41ef:	5d                   	pop    %rbp
    41f0:	c3                   	retq   
    41f1:	0f 1f 80 00 00 00 00 	nopl   0x0(%rax)
    41f8:	f3 c3                	repz retq 
    41fa:	66 0f 1f 44 00 00    	nopw   0x0(%rax,%rax,1)

0000000000004200 <frame_dummy>:
    4200:	55                   	push   %rbp
    4201:	48 89 e5             	mov    %rsp,%rbp
    4204:	5d                   	pop    %rbp
    4205:	e9 66 ff ff ff       	jmpq   4170 <register_tm_clones>
    420a:	66 0f 1f 44 00 00    	nopw   0x0(%rax,%rax,1)

0000000000004210 <_ZN3std2rt10lang_start28_$u7b$$u7b$closure$u7d$$u7d$17hd57d67dbe043b9c7E>:
    4210:	50                   	push   %rax
    4211:	ff 17                	callq  *(%rdi)
    4213:	31 c0                	xor    %eax,%eax
    4215:	59                   	pop    %rcx
    4216:	c3                   	retq   
    4217:	66 0f 1f 84 00 00 00 	nopw   0x0(%rax,%rax,1)
    421e:	00 00 

0000000000004220 <_ZN4core3ops8function6FnOnce40call_once$u7b$$u7b$vtable.shim$u7d$$u7d$17h1752b6e515da6220E>:
    4220:	50                   	push   %rax
    4221:	ff 17                	callq  *(%rdi)
    4223:	31 c0                	xor    %eax,%eax
    4225:	59                   	pop    %rcx
    4226:	c3                   	retq   
    4227:	66 0f 1f 84 00 00 00 	nopw   0x0(%rax,%rax,1)
    422e:	00 00 

0000000000004230 <_ZN4core3ptr13drop_in_place17h1603095b365555f6E>:
    4230:	48 83 7f 08 00       	cmpq   $0x0,0x8(%rdi)
    4235:	74 09                	je     4240 <_ZN4core3ptr13drop_in_place17h1603095b365555f6E+0x10>
    4237:	48 8b 3f             	mov    (%rdi),%rdi
    423a:	ff 25 38 3b 24 00    	jmpq   *0x243b38(%rip)        # 247d78 <free@GLIBC_2.2.5>
    4240:	c3                   	retq   
    4241:	66 2e 0f 1f 84 00 00 	nopw   %cs:0x0(%rax,%rax,1)
    4248:	00 00 00 
    424b:	0f 1f 44 00 00       	nopl   0x0(%rax,%rax,1)

0000000000004250 <_ZN4core3ptr13drop_in_place17h5712d1ad92044065E>:
    4250:	41 56                	push   %r14
    4252:	53                   	push   %rbx
    4253:	50                   	push   %rax
    4254:	48 89 fb             	mov    %rdi,%rbx
    4257:	48 8b 57 10          	mov    0x10(%rdi),%rdx
    425b:	48 8b 47 18          	mov    0x18(%rdi),%rax
    425f:	48 39 c2             	cmp    %rax,%rdx
    4262:	74 38                	je     429c <_ZN4core3ptr13drop_in_place17h5712d1ad92044065E+0x4c>
    4264:	4c 8b 35 0d 3b 24 00 	mov    0x243b0d(%rip),%r14        # 247d78 <free@GLIBC_2.2.5>
    426b:	eb 0b                	jmp    4278 <_ZN4core3ptr13drop_in_place17h5712d1ad92044065E+0x28>
    426d:	0f 1f 00             	nopl   (%rax)
    4270:	48 89 ca             	mov    %rcx,%rdx
    4273:	48 39 c1             	cmp    %rax,%rcx
    4276:	74 24                	je     429c <_ZN4core3ptr13drop_in_place17h5712d1ad92044065E+0x4c>
    4278:	48 8d 4a 18          	lea    0x18(%rdx),%rcx
    427c:	48 89 4b 10          	mov    %rcx,0x10(%rbx)
    4280:	48 8b 3a             	mov    (%rdx),%rdi
    4283:	48 85 ff             	test   %rdi,%rdi
    4286:	74 14                	je     429c <_ZN4core3ptr13drop_in_place17h5712d1ad92044065E+0x4c>
    4288:	48 83 7a 08 00       	cmpq   $0x0,0x8(%rdx)
    428d:	74 e1                	je     4270 <_ZN4core3ptr13drop_in_place17h5712d1ad92044065E+0x20>
    428f:	41 ff d6             	callq  *%r14
    4292:	48 8b 4b 10          	mov    0x10(%rbx),%rcx
    4296:	48 8b 43 18          	mov    0x18(%rbx),%rax
    429a:	eb d4                	jmp    4270 <_ZN4core3ptr13drop_in_place17h5712d1ad92044065E+0x20>
    429c:	48 83 7b 08 00       	cmpq   $0x0,0x8(%rbx)
    42a1:	74 10                	je     42b3 <_ZN4core3ptr13drop_in_place17h5712d1ad92044065E+0x63>
    42a3:	48 8b 3b             	mov    (%rbx),%rdi
    42a6:	48 83 c4 08          	add    $0x8,%rsp
    42aa:	5b                   	pop    %rbx
    42ab:	41 5e                	pop    %r14
    42ad:	ff 25 c5 3a 24 00    	jmpq   *0x243ac5(%rip)        # 247d78 <free@GLIBC_2.2.5>
    42b3:	48 83 c4 08          	add    $0x8,%rsp
    42b7:	5b                   	pop    %rbx
    42b8:	41 5e                	pop    %r14
    42ba:	c3                   	retq   
    42bb:	0f 1f 44 00 00       	nopl   0x0(%rax,%rax,1)

00000000000042c0 <_ZN4core3ptr13drop_in_place17hbceefdc2b3e7349fE>:
    42c0:	41 57                	push   %r15
    42c2:	41 56                	push   %r14
    42c4:	41 55                	push   %r13
    42c6:	41 54                	push   %r12
    42c8:	53                   	push   %rbx
    42c9:	49 89 fe             	mov    %rdi,%r14
    42cc:	48 8b 47 10          	mov    0x10(%rdi),%rax
    42d0:	48 85 c0             	test   %rax,%rax
    42d3:	74 4c                	je     4321 <_ZN4core3ptr13drop_in_place17hbceefdc2b3e7349fE+0x61>
    42d5:	4d 8b 26             	mov    (%r14),%r12
    42d8:	48 c1 e0 03          	shl    $0x3,%rax
    42dc:	4c 8d 3c 40          	lea    (%rax,%rax,2),%r15
    42e0:	31 db                	xor    %ebx,%ebx
    42e2:	4c 8b 2d 8f 3a 24 00 	mov    0x243a8f(%rip),%r13        # 247d78 <free@GLIBC_2.2.5>
    42e9:	49 83 7c 1c 08 00    	cmpq   $0x0,0x8(%r12,%rbx,1)
    42ef:	75 20                	jne    4311 <_ZN4core3ptr13drop_in_place17hbceefdc2b3e7349fE+0x51>
    42f1:	66 2e 0f 1f 84 00 00 	nopw   %cs:0x0(%rax,%rax,1)
    42f8:	00 00 00 
    42fb:	0f 1f 44 00 00       	nopl   0x0(%rax,%rax,1)
    4300:	48 83 c3 18          	add    $0x18,%rbx
    4304:	49 39 df             	cmp    %rbx,%r15
    4307:	74 18                	je     4321 <_ZN4core3ptr13drop_in_place17hbceefdc2b3e7349fE+0x61>
    4309:	49 83 7c 1c 08 00    	cmpq   $0x0,0x8(%r12,%rbx,1)
    430f:	74 ef                	je     4300 <_ZN4core3ptr13drop_in_place17hbceefdc2b3e7349fE+0x40>
    4311:	49 8b 3c 1c          	mov    (%r12,%rbx,1),%rdi
    4315:	41 ff d5             	callq  *%r13
    4318:	48 83 c3 18          	add    $0x18,%rbx
    431c:	49 39 df             	cmp    %rbx,%r15
    431f:	75 e8                	jne    4309 <_ZN4core3ptr13drop_in_place17hbceefdc2b3e7349fE+0x49>
    4321:	49 83 7e 08 00       	cmpq   $0x0,0x8(%r14)
    4326:	74 12                	je     433a <_ZN4core3ptr13drop_in_place17hbceefdc2b3e7349fE+0x7a>
    4328:	49 8b 3e             	mov    (%r14),%rdi
    432b:	5b                   	pop    %rbx
    432c:	41 5c                	pop    %r12
    432e:	41 5d                	pop    %r13
    4330:	41 5e                	pop    %r14
    4332:	41 5f                	pop    %r15
    4334:	ff 25 3e 3a 24 00    	jmpq   *0x243a3e(%rip)        # 247d78 <free@GLIBC_2.2.5>
    433a:	5b                   	pop    %rbx
    433b:	41 5c                	pop    %r12
    433d:	41 5d                	pop    %r13
    433f:	41 5e                	pop    %r14
    4341:	41 5f                	pop    %r15
    4343:	c3                   	retq   
    4344:	66 2e 0f 1f 84 00 00 	nopw   %cs:0x0(%rax,%rax,1)
    434b:	00 00 00 
    434e:	66 90                	xchg   %ax,%ax

0000000000004350 <_ZN13num_perf_demo4main17h836ce3a93b32691bE>:

use ::std::env::args;
use ::std::process::exit;
use ::num_perf_demo::mul_test;

fn main() {
    4350:	55                   	push   %rbp
    4351:	41 57                	push   %r15
    4353:	41 56                	push   %r14
    4355:	41 55                	push   %r13
    4357:	41 54                	push   %r12
    4359:	53                   	push   %rbx
    435a:	48 81 ec c8 00 00 00 	sub    $0xc8,%rsp
    4361:	48 8d 1d 20 3d 24 00 	lea    0x243d20(%rip),%rbx        # 248088 <_ZN3std3sys4unix4args3imp4LOCK17h1d8f441b10ddb3ddE>
    4368:	48 89 df             	mov    %rbx,%rdi
    436b:	ff 15 6f 3c 24 00    	callq  *0x243c6f(%rip)        # 247fe0 <pthread_mutex_lock@GLIBC_2.2.5>
    4371:	48 89 5c 24 40       	mov    %rbx,0x40(%rsp)
    4376:	4c 8b 25 33 3d 24 00 	mov    0x243d33(%rip),%r12        # 2480b0 <_ZN3std3sys4unix4args3imp4ARGC17h4e4d06cf3ef5a743E>
    437d:	48 c7 84 24 80 00 00 	movq   $0x8,0x80(%rsp)
    4384:	00 08 00 00 00 
    4389:	c5 f8 57 c0          	vxorps %xmm0,%xmm0,%xmm0
    438d:	c5 f8 11 84 24 88 00 	vmovups %xmm0,0x88(%rsp)
    4394:	00 00 
    4396:	4d 85 e4             	test   %r12,%r12
    4399:	7e 59                	jle    43f4 <_ZN13num_perf_demo4main17h836ce3a93b32691bE+0xa4>
    439b:	b9 18 00 00 00       	mov    $0x18,%ecx
    43a0:	45 31 f6             	xor    %r14d,%r14d
    43a3:	4c 89 e0             	mov    %r12,%rax
    43a6:	48 f7 e1             	mul    %rcx
    43a9:	49 89 c7             	mov    %rax,%r15
    43ac:	0f 91 c0             	setno  %al
    43af:	0f 80 36 08 00 00    	jo     4beb <_ZN13num_perf_demo4main17h836ce3a93b32691bE+0x89b>
    43b5:	41 88 c6             	mov    %al,%r14b
    43b8:	49 c1 e6 03          	shl    $0x3,%r14
    43bc:	4d 39 fe             	cmp    %r15,%r14
    43bf:	76 43                	jbe    4404 <_ZN13num_perf_demo4main17h836ce3a93b32691bE+0xb4>
    43c1:	48 c7 04 24 00 00 00 	movq   $0x0,(%rsp)
    43c8:	00 
    43c9:	48 89 e7             	mov    %rsp,%rdi
    43cc:	be 08 00 00 00       	mov    $0x8,%esi
    43d1:	4c 89 fa             	mov    %r15,%rdx
    43d4:	ff 15 c6 3b 24 00    	callq  *0x243bc6(%rip)        # 247fa0 <posix_memalign@GLIBC_2.2.5>
    43da:	85 c0                	test   %eax,%eax
    43dc:	75 09                	jne    43e7 <_ZN13num_perf_demo4main17h836ce3a93b32691bE+0x97>
    43de:	4c 8b 2c 24          	mov    (%rsp),%r13
    43e2:	4d 85 ed             	test   %r13,%r13
    43e5:	75 2e                	jne    4415 <_ZN13num_perf_demo4main17h836ce3a93b32691bE+0xc5>
    43e7:	4c 89 ff             	mov    %r15,%rdi
    43ea:	4c 89 f6             	mov    %r14,%rsi
    43ed:	e8 ce 10 00 00       	callq  54c0 <_ZN5alloc5alloc18handle_alloc_error17hf7bb8682f6c8b1d7E>
    43f2:	0f 0b                	ud2    
    43f4:	45 31 f6             	xor    %r14d,%r14d
    43f7:	bb 08 00 00 00       	mov    $0x8,%ebx
    43fc:	41 bd 08 00 00 00    	mov    $0x8,%r13d
    4402:	eb 27                	jmp    442b <_ZN13num_perf_demo4main17h836ce3a93b32691bE+0xdb>
    4404:	4c 89 ff             	mov    %r15,%rdi
    4407:	ff 15 fb 3a 24 00    	callq  *0x243afb(%rip)        # 247f08 <malloc@GLIBC_2.2.5>
    440d:	49 89 c5             	mov    %rax,%r13
    4410:	4d 85 ed             	test   %r13,%r13
    4413:	74 d2                	je     43e7 <_ZN13num_perf_demo4main17h836ce3a93b32691bE+0x97>
    4415:	4c 89 ac 24 80 00 00 	mov    %r13,0x80(%rsp)
    441c:	00 
    441d:	4c 89 a4 24 88 00 00 	mov    %r12,0x88(%rsp)
    4424:	00 
    4425:	4d 89 e6             	mov    %r12,%r14
    4428:	4c 89 eb             	mov    %r13,%rbx
    442b:	48 8d 84 24 90 00 00 	lea    0x90(%rsp),%rax
    4432:	00 
    4433:	4c 89 2c 24          	mov    %r13,(%rsp)
    4437:	48 89 44 24 08       	mov    %rax,0x8(%rsp)
    443c:	48 c7 44 24 10 00 00 	movq   $0x0,0x10(%rsp)
    4443:	00 00 
    4445:	4d 85 e4             	test   %r12,%r12
    4448:	0f 8e 99 00 00 00    	jle    44e7 <_ZN13num_perf_demo4main17h836ce3a93b32691bE+0x197>
    444e:	4c 89 74 24 30       	mov    %r14,0x30(%rsp)
    4453:	48 89 5c 24 78       	mov    %rbx,0x78(%rsp)
    4458:	45 31 f6             	xor    %r14d,%r14d
    445b:	eb 2a                	jmp    4487 <_ZN13num_perf_demo4main17h836ce3a93b32691bE+0x137>
    445d:	0f 1f 00             	nopl   (%rax)
    4460:	49 ff c6             	inc    %r14
    4463:	48 89 ef             	mov    %rbp,%rdi
    4466:	4c 89 fe             	mov    %r15,%rsi
    4469:	48 89 da             	mov    %rbx,%rdx
    446c:	ff 15 5e 3a 24 00    	callq  *0x243a5e(%rip)        # 247ed0 <memcpy@GLIBC_2.14>
    4472:	49 89 6d 00          	mov    %rbp,0x0(%r13)
    4476:	49 89 5d 08          	mov    %rbx,0x8(%r13)
    447a:	49 89 5d 10          	mov    %rbx,0x10(%r13)
    447e:	49 83 c5 18          	add    $0x18,%r13
    4482:	4d 39 f4             	cmp    %r14,%r12
    4485:	74 4b                	je     44d2 <_ZN13num_perf_demo4main17h836ce3a93b32691bE+0x182>
    4487:	48 8b 05 2a 3c 24 00 	mov    0x243c2a(%rip),%rax        # 2480b8 <_ZN3std3sys4unix4args3imp4ARGV17he0db131b08904595E>
    448e:	4e 8b 3c f0          	mov    (%rax,%r14,8),%r15
    4492:	4c 89 ff             	mov    %r15,%rdi
    4495:	ff 15 7d 39 24 00    	callq  *0x24397d(%rip)        # 247e18 <strlen@GLIBC_2.2.5>
    449b:	48 89 c3             	mov    %rax,%rbx
    449e:	bd 01 00 00 00       	mov    $0x1,%ebp
    44a3:	48 85 c0             	test   %rax,%rax
    44a6:	74 b8                	je     4460 <_ZN13num_perf_demo4main17h836ce3a93b32691bE+0x110>
    44a8:	48 83 fb ff          	cmp    $0xffffffffffffffff,%rbx
    44ac:	0f 84 92 06 00 00    	je     4b44 <_ZN13num_perf_demo4main17h836ce3a93b32691bE+0x7f4>
    44b2:	48 89 df             	mov    %rbx,%rdi
    44b5:	ff 15 4d 3a 24 00    	callq  *0x243a4d(%rip)        # 247f08 <malloc@GLIBC_2.2.5>
    44bb:	48 89 c5             	mov    %rax,%rbp
    44be:	48 85 c0             	test   %rax,%rax
    44c1:	75 9d                	jne    4460 <_ZN13num_perf_demo4main17h836ce3a93b32691bE+0x110>
    44c3:	be 01 00 00 00       	mov    $0x1,%esi
    44c8:	48 89 df             	mov    %rbx,%rdi
    44cb:	e8 f0 0f 00 00       	callq  54c0 <_ZN5alloc5alloc18handle_alloc_error17hf7bb8682f6c8b1d7E>
    44d0:	0f 0b                	ud2    
    44d2:	4c 89 2c 24          	mov    %r13,(%rsp)
    44d6:	4c 89 64 24 10       	mov    %r12,0x10(%rsp)
    44db:	48 8b 5c 24 78       	mov    0x78(%rsp),%rbx
    44e0:	4c 8b 74 24 30       	mov    0x30(%rsp),%r14
    44e5:	eb 03                	jmp    44ea <_ZN13num_perf_demo4main17h836ce3a93b32691bE+0x19a>
    44e7:	45 31 e4             	xor    %r12d,%r12d
    44ea:	48 8d 3d 97 3b 24 00 	lea    0x243b97(%rip),%rdi        # 248088 <_ZN3std3sys4unix4args3imp4LOCK17h1d8f441b10ddb3ddE>
    44f1:	ff 15 01 3a 24 00    	callq  *0x243a01(%rip)        # 247ef8 <pthread_mutex_unlock@GLIBC_2.2.5>
    44f7:	4b 8d 04 64          	lea    (%r12,%r12,2),%rax
    44fb:	4c 8d 2c c3          	lea    (%rbx,%rax,8),%r13
    44ff:	48 89 9c 24 80 00 00 	mov    %rbx,0x80(%rsp)
    4506:	00 
    4507:	4c 89 b4 24 88 00 00 	mov    %r14,0x88(%rsp)
    450e:	00 
    450f:	48 89 9c 24 90 00 00 	mov    %rbx,0x90(%rsp)
    4516:	00 
    4517:	4c 89 ac 24 98 00 00 	mov    %r13,0x98(%rsp)
    451e:	00 
    451f:	48 89 dd             	mov    %rbx,%rbp
    4522:	4d 85 e4             	test   %r12,%r12
    4525:	0f 84 a1 00 00 00    	je     45cc <_ZN13num_perf_demo4main17h836ce3a93b32691bE+0x27c>
    452b:	48 8d 6b 18          	lea    0x18(%rbx),%rbp
    452f:	48 89 ac 24 90 00 00 	mov    %rbp,0x90(%rsp)
    4536:	00 
    4537:	4c 8b 3b             	mov    (%rbx),%r15
    453a:	4d 85 ff             	test   %r15,%r15
    453d:	0f 84 89 00 00 00    	je     45cc <_ZN13num_perf_demo4main17h836ce3a93b32691bE+0x27c>
    4543:	4c 8b 63 08          	mov    0x8(%rbx),%r12
    4547:	4c 8b 73 10          	mov    0x10(%rbx),%r14
    454b:	48 89 e7             	mov    %rsp,%rdi
    454e:	4c 89 fe             	mov    %r15,%rsi
    4551:	4c 89 f2             	mov    %r14,%rdx
    4554:	e8 07 72 00 00       	callq  b760 <_ZN4core3str9from_utf817ha5f1d279f7594d61E>
    4559:	48 83 3c 24 01       	cmpq   $0x1,(%rsp)
    455e:	0f 84 98 06 00 00    	je     4bfc <_ZN13num_perf_demo4main17h836ce3a93b32691bE+0x8ac>
    4564:	4c 89 3c 24          	mov    %r15,(%rsp)
    4568:	4c 89 64 24 08       	mov    %r12,0x8(%rsp)
    456d:	4c 89 74 24 10       	mov    %r14,0x10(%rsp)
    4572:	49 29 ed             	sub    %rbp,%r13
    4575:	49 c1 fd 03          	sar    $0x3,%r13
    4579:	48 b8 ab aa aa aa aa 	movabs $0xaaaaaaaaaaaaaaab,%rax
    4580:	aa aa aa 
    4583:	4c 0f af e8          	imul   %rax,%r13
    4587:	49 ff c5             	inc    %r13
    458a:	49 c7 c7 ff ff ff ff 	mov    $0xffffffffffffffff,%r15
    4591:	4d 0f 45 fd          	cmovne %r13,%r15
    4595:	b9 18 00 00 00       	mov    $0x18,%ecx
    459a:	4c 89 f8             	mov    %r15,%rax
    459d:	48 f7 e1             	mul    %rcx
    45a0:	0f 80 8b 06 00 00    	jo     4c31 <_ZN13num_perf_demo4main17h836ce3a93b32691bE+0x8e1>
    45a6:	48 89 c3             	mov    %rax,%rbx
    45a9:	48 85 c0             	test   %rax,%rax
    45ac:	0f 84 c9 00 00 00    	je     467b <_ZN13num_perf_demo4main17h836ce3a93b32691bE+0x32b>
    45b2:	48 89 df             	mov    %rbx,%rdi
    45b5:	ff 15 4d 39 24 00    	callq  *0x24394d(%rip)        # 247f08 <malloc@GLIBC_2.2.5>
    45bb:	48 85 c0             	test   %rax,%rax
    45be:	0f 84 be 06 00 00    	je     4c82 <_ZN13num_perf_demo4main17h836ce3a93b32691bE+0x932>
    45c4:	48 89 c5             	mov    %rax,%rbp
    45c7:	e9 b4 00 00 00       	jmpq   4680 <_ZN13num_perf_demo4main17h836ce3a93b32691bE+0x330>
    45cc:	4d 89 f4             	mov    %r14,%r12
    45cf:	49 89 df             	mov    %rbx,%r15
    45d2:	48 c7 44 24 40 08 00 	movq   $0x8,0x40(%rsp)
    45d9:	00 00 
    45db:	c5 f8 57 c0          	vxorps %xmm0,%xmm0,%xmm0
    45df:	c5 f8 11 44 24 48    	vmovups %xmm0,0x48(%rsp)
    45e5:	4c 39 ed             	cmp    %r13,%rbp
    45e8:	74 3f                	je     4629 <_ZN13num_perf_demo4main17h836ce3a93b32691bE+0x2d9>
    45ea:	4c 8b 35 87 37 24 00 	mov    0x243787(%rip),%r14        # 247d78 <free@GLIBC_2.2.5>
    45f1:	eb 15                	jmp    4608 <_ZN13num_perf_demo4main17h836ce3a93b32691bE+0x2b8>
    45f3:	66 2e 0f 1f 84 00 00 	nopw   %cs:0x0(%rax,%rax,1)
    45fa:	00 00 00 
    45fd:	0f 1f 00             	nopl   (%rax)
    4600:	48 89 dd             	mov    %rbx,%rbp
    4603:	49 39 dd             	cmp    %rbx,%r13
    4606:	74 21                	je     4629 <_ZN13num_perf_demo4main17h836ce3a93b32691bE+0x2d9>
    4608:	48 8d 5d 18          	lea    0x18(%rbp),%rbx
    460c:	48 89 9c 24 90 00 00 	mov    %rbx,0x90(%rsp)
    4613:	00 
    4614:	48 8b 7d 00          	mov    0x0(%rbp),%rdi
    4618:	48 85 ff             	test   %rdi,%rdi
    461b:	74 0c                	je     4629 <_ZN13num_perf_demo4main17h836ce3a93b32691bE+0x2d9>
    461d:	48 83 7d 08 00       	cmpq   $0x0,0x8(%rbp)
    4622:	74 dc                	je     4600 <_ZN13num_perf_demo4main17h836ce3a93b32691bE+0x2b0>
    4624:	41 ff d6             	callq  *%r14
    4627:	eb d7                	jmp    4600 <_ZN13num_perf_demo4main17h836ce3a93b32691bE+0x2b0>
    4629:	4d 85 e4             	test   %r12,%r12
    462c:	74 09                	je     4637 <_ZN13num_perf_demo4main17h836ce3a93b32691bE+0x2e7>
    462e:	4c 89 ff             	mov    %r15,%rdi
    4631:	ff 15 41 37 24 00    	callq  *0x243741(%rip)        # 247d78 <free@GLIBC_2.2.5>
    4637:	48 8d 05 2a 1a 24 00 	lea    0x241a2a(%rip),%rax        # 246068 <__init_array_end+0x58>
    463e:	48 89 04 24          	mov    %rax,(%rsp)
    4642:	48 c7 44 24 08 01 00 	movq   $0x1,0x8(%rsp)
    4649:	00 00 
    464b:	48 c7 44 24 10 00 00 	movq   $0x0,0x10(%rsp)
    4652:	00 00 
    4654:	48 8d 05 dd 8d 03 00 	lea    0x38ddd(%rip),%rax        # 3d438 <_ZN4core7unicode12unicode_data2cc6BITSET17h5201257bcf8f09faE+0xad8>
    465b:	48 89 44 24 20       	mov    %rax,0x20(%rsp)
    4660:	48 c7 44 24 28 00 00 	movq   $0x0,0x28(%rsp)
    4667:	00 00 
    4669:	48 89 e7             	mov    %rsp,%rdi
    let args: Vec<String> = args().collect();
    if args.len() <= 1 {
        eprintln!("Provide integer argument.");
    466c:	c5 f8 77             	vzeroupper 
    466f:	e8 dc 66 02 00       	callq  2ad50 <_ZN3std2io5stdio7_eprint17hf19d6fb036d8919dE>
        exit(1);
    4674:	e8 a7 6b 02 00       	callq  2b220 <_ZN3std7process4exit17h48d7a25190f60a46E>
    4679:	0f 0b                	ud2    
    467b:	bd 08 00 00 00       	mov    $0x8,%ebp
    4680:	48 8b 44 24 10       	mov    0x10(%rsp),%rax
    4685:	48 89 45 10          	mov    %rax,0x10(%rbp)
    4689:	c5 f8 10 04 24       	vmovups (%rsp),%xmm0
    468e:	c5 f8 11 45 00       	vmovups %xmm0,0x0(%rbp)
    4693:	48 89 6c 24 60       	mov    %rbp,0x60(%rsp)
    4698:	4c 89 7c 24 68       	mov    %r15,0x68(%rsp)
    469d:	48 c7 44 24 70 01 00 	movq   $0x1,0x70(%rsp)
    46a4:	00 00 
    46a6:	c5 fc 10 84 24 80 00 	vmovups 0x80(%rsp),%ymm0
    46ad:	00 00 
    46af:	c5 fc 11 04 24       	vmovups %ymm0,(%rsp)
    46b4:	48 8b 4c 24 10       	mov    0x10(%rsp),%rcx
    46b9:	48 8b 44 24 18       	mov    0x18(%rsp),%rax
    46be:	48 89 84 24 a0 00 00 	mov    %rax,0xa0(%rsp)
    46c5:	00 
    46c6:	48 89 c2             	mov    %rax,%rdx
    46c9:	48 89 c8             	mov    %rcx,%rax
    46cc:	48 29 ca             	sub    %rcx,%rdx
    46cf:	48 89 94 24 c0 00 00 	mov    %rdx,0xc0(%rsp)
    46d6:	00 
    46d7:	48 83 c1 18          	add    $0x18,%rcx
    46db:	48 89 8c 24 b8 00 00 	mov    %rcx,0xb8(%rsp)
    46e2:	00 
    46e3:	41 bd 01 00 00 00    	mov    $0x1,%r13d
    46e9:	31 f6                	xor    %esi,%esi
    46eb:	48 89 ea             	mov    %rbp,%rdx
    46ee:	48 89 84 24 b0 00 00 	mov    %rax,0xb0(%rsp)
    46f5:	00 
    46f6:	48 39 b4 24 c0 00 00 	cmp    %rsi,0xc0(%rsp)
    46fd:	00 
    46fe:	75 4e                	jne    474e <_ZN13num_perf_demo4main17h836ce3a93b32691bE+0x3fe>
    4700:	e9 08 02 00 00       	jmpq   490d <_ZN13num_perf_demo4main17h836ce3a93b32691bE+0x5bd>
    4705:	66 2e 0f 1f 84 00 00 	nopw   %cs:0x0(%rax,%rax,1)
    470c:	00 00 00 
    470f:	90                   	nop
    4710:	48 8b 74 24 30       	mov    0x30(%rsp),%rsi
    4715:	4c 89 e5             	mov    %r12,%rbp
    4718:	48 8b 44 24 50       	mov    0x50(%rsp),%rax
    471d:	48 89 44 35 28       	mov    %rax,0x28(%rbp,%rsi,1)
    4722:	c5 f8 10 44 24 40    	vmovups 0x40(%rsp),%xmm0
    4728:	c5 f8 11 44 35 18    	vmovups %xmm0,0x18(%rbp,%rsi,1)
    472e:	49 ff c5             	inc    %r13
    4731:	48 83 c6 18          	add    $0x18,%rsi
    4735:	48 89 ea             	mov    %rbp,%rdx
    4738:	48 8b 84 24 b0 00 00 	mov    0xb0(%rsp),%rax
    473f:	00 
    4740:	48 39 b4 24 c0 00 00 	cmp    %rsi,0xc0(%rsp)
    4747:	00 
    4748:	0f 84 bf 01 00 00    	je     490d <_ZN13num_perf_demo4main17h836ce3a93b32691bE+0x5bd>
    474e:	48 8b 8c 24 b8 00 00 	mov    0xb8(%rsp),%rcx
    4755:	00 
    4756:	4c 8d 34 31          	lea    (%rcx,%rsi,1),%r14
    475a:	4c 89 74 24 10       	mov    %r14,0x10(%rsp)
    475f:	48 8b 1c 30          	mov    (%rax,%rsi,1),%rbx
    4763:	48 85 db             	test   %rbx,%rbx
    4766:	0f 84 b4 01 00 00    	je     4920 <_ZN13num_perf_demo4main17h836ce3a93b32691bE+0x5d0>
    476c:	48 89 94 24 a8 00 00 	mov    %rdx,0xa8(%rsp)
    4773:	00 
    4774:	49 89 ec             	mov    %rbp,%r12
    4777:	4c 89 7c 24 78       	mov    %r15,0x78(%rsp)
    477c:	4c 8b 7c 30 08       	mov    0x8(%rax,%rsi,1),%r15
    4781:	48 89 74 24 30       	mov    %rsi,0x30(%rsp)
    4786:	48 8b 6c 30 10       	mov    0x10(%rax,%rsi,1),%rbp
    478b:	48 8d 7c 24 40       	lea    0x40(%rsp),%rdi
    4790:	48 89 de             	mov    %rbx,%rsi
    4793:	48 89 ea             	mov    %rbp,%rdx
    4796:	c5 f8 77             	vzeroupper 
    4799:	e8 c2 6f 00 00       	callq  b760 <_ZN4core3str9from_utf817ha5f1d279f7594d61E>
    479e:	48 83 7c 24 40 01    	cmpq   $0x1,0x40(%rsp)
    47a4:	0f 84 e5 03 00 00    	je     4b8f <_ZN13num_perf_demo4main17h836ce3a93b32691bE+0x83f>
    47aa:	48 89 5c 24 40       	mov    %rbx,0x40(%rsp)
    47af:	4c 89 7c 24 48       	mov    %r15,0x48(%rsp)
    47b4:	48 89 6c 24 50       	mov    %rbp,0x50(%rsp)
    47b9:	4c 8b 7c 24 78       	mov    0x78(%rsp),%r15
    47be:	4d 39 fd             	cmp    %r15,%r13
    47c1:	0f 85 49 ff ff ff    	jne    4710 <_ZN13num_perf_demo4main17h836ce3a93b32691bE+0x3c0>
    47c7:	48 8b 9c 24 a0 00 00 	mov    0xa0(%rsp),%rbx
    47ce:	00 
    47cf:	4c 29 f3             	sub    %r14,%rbx
    47d2:	48 c1 fb 03          	sar    $0x3,%rbx
    47d6:	48 b8 ab aa aa aa aa 	movabs $0xaaaaaaaaaaaaaaab,%rax
    47dd:	aa aa aa 
    47e0:	48 0f af d8          	imul   %rax,%rbx
    47e4:	48 ff c3             	inc    %rbx
    47e7:	48 c7 c0 ff ff ff ff 	mov    $0xffffffffffffffff,%rax
    47ee:	48 0f 44 d8          	cmove  %rax,%rbx
    47f2:	4c 01 fb             	add    %r15,%rbx
    47f5:	0f 82 cc 03 00 00    	jb     4bc7 <_ZN13num_perf_demo4main17h836ce3a93b32691bE+0x877>
    47fb:	4b 8d 04 3f          	lea    (%r15,%r15,1),%rax
    47ff:	48 39 d8             	cmp    %rbx,%rax
    4802:	48 0f 47 d8          	cmova  %rax,%rbx
    4806:	45 31 f6             	xor    %r14d,%r14d
    4809:	48 89 d8             	mov    %rbx,%rax
    480c:	b9 18 00 00 00       	mov    $0x18,%ecx
    4811:	48 f7 e1             	mul    %rcx
    4814:	49 89 c4             	mov    %rax,%r12
    4817:	0f 91 c0             	setno  %al
    481a:	0f 80 a7 03 00 00    	jo     4bc7 <_ZN13num_perf_demo4main17h836ce3a93b32691bE+0x877>
    4820:	41 88 c6             	mov    %al,%r14b
    4823:	49 c1 e6 03          	shl    $0x3,%r14
    4827:	4d 85 ff             	test   %r15,%r15
    482a:	74 2c                	je     4858 <_ZN13num_perf_demo4main17h836ce3a93b32691bE+0x508>
    482c:	4d 85 e4             	test   %r12,%r12
    482f:	74 68                	je     4899 <_ZN13num_perf_demo4main17h836ce3a93b32691bE+0x549>
    4831:	48 8b bc 24 a8 00 00 	mov    0xa8(%rsp),%rdi
    4838:	00 
    4839:	4c 89 e6             	mov    %r12,%rsi
    483c:	ff 15 f6 36 24 00    	callq  *0x2436f6(%rip)        # 247f38 <realloc@GLIBC_2.2.5>
    4842:	48 89 c5             	mov    %rax,%rbp
    4845:	48 8b 74 24 30       	mov    0x30(%rsp),%rsi
    484a:	48 85 ed             	test   %rbp,%rbp
    484d:	0f 85 ad 00 00 00    	jne    4900 <_ZN13num_perf_demo4main17h836ce3a93b32691bE+0x5b0>
    4853:	e9 86 03 00 00       	jmpq   4bde <_ZN13num_perf_demo4main17h836ce3a93b32691bE+0x88e>
    4858:	4d 39 e6             	cmp    %r12,%r14
    485b:	0f 86 84 00 00 00    	jbe    48e5 <_ZN13num_perf_demo4main17h836ce3a93b32691bE+0x595>
    4861:	48 c7 44 24 38 00 00 	movq   $0x0,0x38(%rsp)
    4868:	00 00 
    486a:	be 08 00 00 00       	mov    $0x8,%esi
    486f:	48 8d 7c 24 38       	lea    0x38(%rsp),%rdi
    4874:	4c 89 e2             	mov    %r12,%rdx
    4877:	ff 15 23 37 24 00    	callq  *0x243723(%rip)        # 247fa0 <posix_memalign@GLIBC_2.2.5>
    487d:	85 c0                	test   %eax,%eax
    487f:	0f 85 59 03 00 00    	jne    4bde <_ZN13num_perf_demo4main17h836ce3a93b32691bE+0x88e>
    4885:	48 8b 6c 24 38       	mov    0x38(%rsp),%rbp
    488a:	48 8b 74 24 30       	mov    0x30(%rsp),%rsi
    488f:	48 85 ed             	test   %rbp,%rbp
    4892:	75 6c                	jne    4900 <_ZN13num_perf_demo4main17h836ce3a93b32691bE+0x5b0>
    4894:	e9 45 03 00 00       	jmpq   4bde <_ZN13num_perf_demo4main17h836ce3a93b32691bE+0x88e>
    4899:	48 c7 44 24 38 00 00 	movq   $0x0,0x38(%rsp)
    48a0:	00 00 
    48a2:	be 08 00 00 00       	mov    $0x8,%esi
    48a7:	48 8d 7c 24 38       	lea    0x38(%rsp),%rdi
    48ac:	31 d2                	xor    %edx,%edx
    48ae:	ff 15 ec 36 24 00    	callq  *0x2436ec(%rip)        # 247fa0 <posix_memalign@GLIBC_2.2.5>
    48b4:	85 c0                	test   %eax,%eax
    48b6:	0f 85 1f 03 00 00    	jne    4bdb <_ZN13num_perf_demo4main17h836ce3a93b32691bE+0x88b>
    48bc:	48 8b 6c 24 38       	mov    0x38(%rsp),%rbp
    48c1:	41 bc 00 00 00 00    	mov    $0x0,%r12d
    48c7:	48 85 ed             	test   %rbp,%rbp
    48ca:	0f 84 0e 03 00 00    	je     4bde <_ZN13num_perf_demo4main17h836ce3a93b32691bE+0x88e>
    48d0:	48 8b bc 24 a8 00 00 	mov    0xa8(%rsp),%rdi
    48d7:	00 
    48d8:	ff 15 9a 34 24 00    	callq  *0x24349a(%rip)        # 247d78 <free@GLIBC_2.2.5>
    48de:	48 8b 74 24 30       	mov    0x30(%rsp),%rsi
    48e3:	eb 1b                	jmp    4900 <_ZN13num_perf_demo4main17h836ce3a93b32691bE+0x5b0>
    48e5:	4c 89 e7             	mov    %r12,%rdi
    48e8:	ff 15 1a 36 24 00    	callq  *0x24361a(%rip)        # 247f08 <malloc@GLIBC_2.2.5>
    48ee:	48 89 c5             	mov    %rax,%rbp
    48f1:	48 8b 74 24 30       	mov    0x30(%rsp),%rsi
    48f6:	48 85 ed             	test   %rbp,%rbp
    48f9:	0f 84 df 02 00 00    	je     4bde <_ZN13num_perf_demo4main17h836ce3a93b32691bE+0x88e>
    48ff:	90                   	nop
    4900:	48 89 6c 24 60       	mov    %rbp,0x60(%rsp)
    4905:	49 89 df             	mov    %rbx,%r15
    4908:	e9 0b fe ff ff       	jmpq   4718 <_ZN13num_perf_demo4main17h836ce3a93b32691bE+0x3c8>
    490d:	4c 89 6c 24 70       	mov    %r13,0x70(%rsp)
    4912:	4c 89 7c 24 68       	mov    %r15,0x68(%rsp)
    4917:	4c 8b 2d 5a 34 24 00 	mov    0x24345a(%rip),%r13        # 247d78 <free@GLIBC_2.2.5>
    491e:	eb 4d                	jmp    496d <_ZN13num_perf_demo4main17h836ce3a93b32691bE+0x61d>
    4920:	4c 89 6c 24 70       	mov    %r13,0x70(%rsp)
    4925:	4c 89 7c 24 68       	mov    %r15,0x68(%rsp)
    492a:	4c 3b b4 24 a0 00 00 	cmp    0xa0(%rsp),%r14
    4931:	00 
    4932:	4c 8b 2d 3f 34 24 00 	mov    0x24343f(%rip),%r13        # 247d78 <free@GLIBC_2.2.5>
    4939:	75 12                	jne    494d <_ZN13num_perf_demo4main17h836ce3a93b32691bE+0x5fd>
    493b:	eb 30                	jmp    496d <_ZN13num_perf_demo4main17h836ce3a93b32691bE+0x61d>
    493d:	0f 1f 00             	nopl   (%rax)
    4940:	49 89 de             	mov    %rbx,%r14
    4943:	48 39 9c 24 a0 00 00 	cmp    %rbx,0xa0(%rsp)
    494a:	00 
    494b:	74 20                	je     496d <_ZN13num_perf_demo4main17h836ce3a93b32691bE+0x61d>
    494d:	49 8d 5e 18          	lea    0x18(%r14),%rbx
    4951:	48 89 5c 24 10       	mov    %rbx,0x10(%rsp)
    4956:	49 8b 3e             	mov    (%r14),%rdi
    4959:	48 85 ff             	test   %rdi,%rdi
    495c:	74 0f                	je     496d <_ZN13num_perf_demo4main17h836ce3a93b32691bE+0x61d>
    495e:	49 83 7e 08 00       	cmpq   $0x0,0x8(%r14)
    4963:	74 db                	je     4940 <_ZN13num_perf_demo4main17h836ce3a93b32691bE+0x5f0>
    4965:	c5 f8 77             	vzeroupper 
    4968:	41 ff d5             	callq  *%r13
    496b:	eb d3                	jmp    4940 <_ZN13num_perf_demo4main17h836ce3a93b32691bE+0x5f0>
    496d:	48 83 7c 24 08 00    	cmpq   $0x0,0x8(%rsp)
    4973:	74 0d                	je     4982 <_ZN13num_perf_demo4main17h836ce3a93b32691bE+0x632>
    4975:	48 8b 3c 24          	mov    (%rsp),%rdi
    4979:	c5 f8 77             	vzeroupper 
    497c:	ff 15 f6 33 24 00    	callq  *0x2433f6(%rip)        # 247d78 <free@GLIBC_2.2.5>
    4982:	c5 f8 10 44 24 60    	vmovups 0x60(%rsp),%xmm0
    4988:	c5 f8 29 44 24 40    	vmovaps %xmm0,0x40(%rsp)
    498e:	4c 8b 74 24 70       	mov    0x70(%rsp),%r14
    4993:	4c 89 74 24 50       	mov    %r14,0x50(%rsp)
    if args.len() <= 1 {
    4998:	49 83 fe 01          	cmp    $0x1,%r14
    499c:	0f 86 95 fc ff ff    	jbe    4637 <_ZN13num_perf_demo4main17h836ce3a93b32691bE+0x2e7>
    49a2:	4c 8b 64 24 40       	mov    0x40(%rsp),%r12
    49a7:	49 8b 4c 24 28       	mov    0x28(%r12),%rcx
    49ac:	48 85 c9             	test   %rcx,%rcx
    49af:	0f 84 40 02 00 00    	je     4bf5 <_ZN13num_perf_demo4main17h836ce3a93b32691bE+0x8a5>
    49b5:	49 8b 74 24 18       	mov    0x18(%r12),%rsi
    49ba:	80 3e 2b             	cmpb   $0x2b,(%rsi)
    49bd:	75 0c                	jne    49cb <_ZN13num_perf_demo4main17h836ce3a93b32691bE+0x67b>
    49bf:	48 ff c9             	dec    %rcx
    49c2:	0f 84 2d 02 00 00    	je     4bf5 <_ZN13num_perf_demo4main17h836ce3a93b32691bE+0x8a5>
    49c8:	48 ff c6             	inc    %rsi
    49cb:	31 ff                	xor    %edi,%edi
    49cd:	bd 0a 00 00 00       	mov    $0xa,%ebp
    49d2:	31 c0                	xor    %eax,%eax
    49d4:	66 2e 0f 1f 84 00 00 	nopw   %cs:0x0(%rax,%rax,1)
    49db:	00 00 00 
    49de:	66 90                	xchg   %ax,%ax
    49e0:	48 39 f9             	cmp    %rdi,%rcx
    49e3:	74 2d                	je     4a12 <_ZN13num_perf_demo4main17h836ce3a93b32691bE+0x6c2>
    49e5:	48 8d 14 3e          	lea    (%rsi,%rdi,1),%rdx
    49e9:	0f b6 1a             	movzbl (%rdx),%ebx
    49ec:	83 c3 d0             	add    $0xffffffd0,%ebx
    49ef:	83 fb 09             	cmp    $0x9,%ebx
    49f2:	0f 87 68 01 00 00    	ja     4b60 <_ZN13num_perf_demo4main17h836ce3a93b32691bE+0x810>
    49f8:	48 f7 e5             	mul    %rbp
    49fb:	b2 02                	mov    $0x2,%dl
    49fd:	0f 80 5f 01 00 00    	jo     4b62 <_ZN13num_perf_demo4main17h836ce3a93b32691bE+0x812>
    4a03:	89 db                	mov    %ebx,%ebx
    4a05:	48 ff c7             	inc    %rdi
    4a08:	48 01 d8             	add    %rbx,%rax
    4a0b:	73 d3                	jae    49e0 <_ZN13num_perf_demo4main17h836ce3a93b32691bE+0x690>
    4a0d:	e9 50 01 00 00       	jmpq   4b62 <_ZN13num_perf_demo4main17h836ce3a93b32691bE+0x812>
    }
    let n: usize = args[1].parse::<usize>().unwrap();
    if n <= 1 {
    4a12:	48 83 f8 02          	cmp    $0x2,%rax
    4a16:	0f 82 1f 02 00 00    	jb     4c3b <_ZN13num_perf_demo4main17h836ce3a93b32691bE+0x8eb>
        eprintln!("Dimension argument too small.");
        exit(1);
    }

    let (sum, cpu_time_used) = mul_test(n);
    4a1c:	48 89 c7             	mov    %rax,%rdi
    4a1f:	c5 f8 77             	vzeroupper 
    4a22:	e8 09 d7 00 00       	callq  12130 <_ZN13num_perf_demo8mul_test17h9955734a3be41a12E>
    4a27:	c5 fb 11 44 24 38    	vmovsd %xmm0,0x38(%rsp)
    4a2d:	c5 fb 11 4c 24 60    	vmovsd %xmm1,0x60(%rsp)

    eprintln!("Sum of product elements = {:.6}.", sum);
    4a33:	48 8d 44 24 38       	lea    0x38(%rsp),%rax
    4a38:	48 89 84 24 80 00 00 	mov    %rax,0x80(%rsp)
    4a3f:	00 
    4a40:	4c 8d 3d a9 b1 00 00 	lea    0xb1a9(%rip),%r15        # fbf0 <_ZN4core3fmt5float52_$LT$impl$u20$core..fmt..Display$u20$for$u20$f64$GT$3fmt17hb0a21601b08973cbE>
    4a47:	4c 89 bc 24 88 00 00 	mov    %r15,0x88(%rsp)
    4a4e:	00 
    4a4f:	48 8d 05 ba 1d 24 00 	lea    0x241dba(%rip),%rax        # 246810 <__init_array_end+0x800>
    4a56:	48 89 04 24          	mov    %rax,(%rsp)
    4a5a:	48 c7 44 24 08 02 00 	movq   $0x2,0x8(%rsp)
    4a61:	00 00 
    4a63:	48 8d 2d 76 7f 03 00 	lea    0x37f76(%rip),%rbp        # 3c9e0 <_ZN4core7unicode12unicode_data2cc6BITSET17h5201257bcf8f09faE+0x80>
    4a6a:	48 89 6c 24 10       	mov    %rbp,0x10(%rsp)
    4a6f:	48 c7 44 24 18 01 00 	movq   $0x1,0x18(%rsp)
    4a76:	00 00 
    4a78:	48 8d 9c 24 80 00 00 	lea    0x80(%rsp),%rbx
    4a7f:	00 
    4a80:	48 89 5c 24 20       	mov    %rbx,0x20(%rsp)
    4a85:	48 c7 44 24 28 01 00 	movq   $0x1,0x28(%rsp)
    4a8c:	00 00 
    4a8e:	48 89 e7             	mov    %rsp,%rdi
    4a91:	e8 ba 62 02 00       	callq  2ad50 <_ZN3std2io5stdio7_eprint17hf19d6fb036d8919dE>
    4a96:	48 8d 44 24 60       	lea    0x60(%rsp),%rax
    eprintln!("Time taken = {:.6} second.", cpu_time_used);
    4a9b:	48 89 84 24 80 00 00 	mov    %rax,0x80(%rsp)
    4aa2:	00 
    4aa3:	4c 89 bc 24 88 00 00 	mov    %r15,0x88(%rsp)
    4aaa:	00 
    4aab:	48 8d 05 7e 1d 24 00 	lea    0x241d7e(%rip),%rax        # 246830 <__init_array_end+0x820>
    4ab2:	48 89 04 24          	mov    %rax,(%rsp)
    4ab6:	48 c7 44 24 08 02 00 	movq   $0x2,0x8(%rsp)
    4abd:	00 00 
    4abf:	48 89 6c 24 10       	mov    %rbp,0x10(%rsp)
    4ac4:	48 c7 44 24 18 01 00 	movq   $0x1,0x18(%rsp)
    4acb:	00 00 
    4acd:	48 89 5c 24 20       	mov    %rbx,0x20(%rsp)
    4ad2:	48 c7 44 24 28 01 00 	movq   $0x1,0x28(%rsp)
    4ad9:	00 00 
    4adb:	48 89 e7             	mov    %rsp,%rdi
    4ade:	e8 6d 62 02 00       	callq  2ad50 <_ZN3std2io5stdio7_eprint17hf19d6fb036d8919dE>
    4ae3:	49 c1 e6 03          	shl    $0x3,%r14
    4ae7:	4b 8d 2c 76          	lea    (%r14,%r14,2),%rbp
    4aeb:	31 db                	xor    %ebx,%ebx
    4aed:	49 83 7c 1c 08 00    	cmpq   $0x0,0x8(%r12,%rbx,1)
    4af3:	75 1c                	jne    4b11 <_ZN13num_perf_demo4main17h836ce3a93b32691bE+0x7c1>
    4af5:	66 2e 0f 1f 84 00 00 	nopw   %cs:0x0(%rax,%rax,1)
    4afc:	00 00 00 
    4aff:	90                   	nop
    4b00:	48 83 c3 18          	add    $0x18,%rbx
    4b04:	48 39 dd             	cmp    %rbx,%rbp
    4b07:	74 18                	je     4b21 <_ZN13num_perf_demo4main17h836ce3a93b32691bE+0x7d1>
    4b09:	49 83 7c 1c 08 00    	cmpq   $0x0,0x8(%r12,%rbx,1)
    4b0f:	74 ef                	je     4b00 <_ZN13num_perf_demo4main17h836ce3a93b32691bE+0x7b0>
    4b11:	49 8b 3c 1c          	mov    (%r12,%rbx,1),%rdi
    4b15:	41 ff d5             	callq  *%r13
    4b18:	48 83 c3 18          	add    $0x18,%rbx
    4b1c:	48 39 dd             	cmp    %rbx,%rbp
    4b1f:	75 e8                	jne    4b09 <_ZN13num_perf_demo4main17h836ce3a93b32691bE+0x7b9>
    4b21:	48 83 7c 24 48 00    	cmpq   $0x0,0x48(%rsp)
    4b27:	74 09                	je     4b32 <_ZN13num_perf_demo4main17h836ce3a93b32691bE+0x7e2>
    4b29:	4c 89 e7             	mov    %r12,%rdi
    4b2c:	ff 15 46 32 24 00    	callq  *0x243246(%rip)        # 247d78 <free@GLIBC_2.2.5>
}
    4b32:	48 81 c4 c8 00 00 00 	add    $0xc8,%rsp
    4b39:	5b                   	pop    %rbx
    4b3a:	41 5c                	pop    %r12
    4b3c:	41 5d                	pop    %r13
    4b3e:	41 5e                	pop    %r14
    4b40:	41 5f                	pop    %r15
    4b42:	5d                   	pop    %rbp
    4b43:	c3                   	retq   
    4b44:	4c 89 2c 24          	mov    %r13,(%rsp)
    4b48:	4c 89 74 24 10       	mov    %r14,0x10(%rsp)
    4b4d:	48 c7 c7 ff ff ff ff 	mov    $0xffffffffffffffff,%rdi
    4b54:	31 f6                	xor    %esi,%esi
    4b56:	e8 75 30 00 00       	callq  7bd0 <_ZN4core5slice20slice_index_len_fail17h52736412c1ce1871E>
    4b5b:	e9 19 fb ff ff       	jmpq   4679 <_ZN13num_perf_demo4main17h836ce3a93b32691bE+0x329>
    4b60:	b2 01                	mov    $0x1,%dl
    4b62:	88 14 24             	mov    %dl,(%rsp)
    4b65:	48 8d 3d 55 8d 03 00 	lea    0x38d55(%rip),%rdi        # 3d8c1 <_ZN4core7unicode12unicode_data2cc6BITSET17h5201257bcf8f09faE+0xf61>
    4b6c:	48 8d 0d d5 14 24 00 	lea    0x2414d5(%rip),%rcx        # 246048 <__init_array_end+0x38>
    4b73:	4c 8d 05 fe 14 24 00 	lea    0x2414fe(%rip),%r8        # 246078 <__init_array_end+0x68>
    4b7a:	48 89 e2             	mov    %rsp,%rdx
    4b7d:	be 2b 00 00 00       	mov    $0x2b,%esi
    4b82:	c5 f8 77             	vzeroupper 
    4b85:	e8 d6 50 00 00       	callq  9c60 <_ZN4core6option18expect_none_failed17he0fec195c6e4c2ecE>
    4b8a:	e9 ea fa ff ff       	jmpq   4679 <_ZN13num_perf_demo4main17h836ce3a93b32691bE+0x329>
    4b8f:	48 89 5c 24 40       	mov    %rbx,0x40(%rsp)
    4b94:	4c 89 7c 24 48       	mov    %r15,0x48(%rsp)
    4b99:	48 89 6c 24 50       	mov    %rbp,0x50(%rsp)
    4b9e:	48 8d 3d 1c 8d 03 00 	lea    0x38d1c(%rip),%rdi        # 3d8c1 <_ZN4core7unicode12unicode_data2cc6BITSET17h5201257bcf8f09faE+0xf61>
    4ba5:	48 8d 0d 0c 2a 24 00 	lea    0x242a0c(%rip),%rcx        # 2475b8 <__init_array_end+0x15a8>
    4bac:	4c 8d 05 25 2a 24 00 	lea    0x242a25(%rip),%r8        # 2475d8 <__init_array_end+0x15c8>
    4bb3:	48 8d 54 24 40       	lea    0x40(%rsp),%rdx
    4bb8:	be 2b 00 00 00       	mov    $0x2b,%esi
    4bbd:	e8 9e 50 00 00       	callq  9c60 <_ZN4core6option18expect_none_failed17he0fec195c6e4c2ecE>
    4bc2:	e9 b2 fa ff ff       	jmpq   4679 <_ZN13num_perf_demo4main17h836ce3a93b32691bE+0x329>
    4bc7:	4c 89 7c 24 70       	mov    %r15,0x70(%rsp)
    4bcc:	4c 89 7c 24 68       	mov    %r15,0x68(%rsp)
    4bd1:	e8 fa 08 00 00       	callq  54d0 <_ZN5alloc7raw_vec17capacity_overflow17h9be7d3ce681ac1a6E>
    4bd6:	e9 9e fa ff ff       	jmpq   4679 <_ZN13num_perf_demo4main17h836ce3a93b32691bE+0x329>
    4bdb:	45 31 e4             	xor    %r12d,%r12d
    4bde:	4c 89 e7             	mov    %r12,%rdi
    4be1:	4c 89 f6             	mov    %r14,%rsi
    4be4:	e8 d7 08 00 00       	callq  54c0 <_ZN5alloc5alloc18handle_alloc_error17hf7bb8682f6c8b1d7E>
    4be9:	0f 0b                	ud2    
    4beb:	e8 e0 08 00 00       	callq  54d0 <_ZN5alloc7raw_vec17capacity_overflow17h9be7d3ce681ac1a6E>
    4bf0:	e9 84 fa ff ff       	jmpq   4679 <_ZN13num_perf_demo4main17h836ce3a93b32691bE+0x329>
    4bf5:	31 d2                	xor    %edx,%edx
    4bf7:	e9 66 ff ff ff       	jmpq   4b62 <_ZN13num_perf_demo4main17h836ce3a93b32691bE+0x812>
    4bfc:	4c 89 3c 24          	mov    %r15,(%rsp)
    4c00:	4c 89 64 24 08       	mov    %r12,0x8(%rsp)
    4c05:	4c 89 74 24 10       	mov    %r14,0x10(%rsp)
    4c0a:	48 8d 3d b0 8c 03 00 	lea    0x38cb0(%rip),%rdi        # 3d8c1 <_ZN4core7unicode12unicode_data2cc6BITSET17h5201257bcf8f09faE+0xf61>
    4c11:	48 8d 0d a0 29 24 00 	lea    0x2429a0(%rip),%rcx        # 2475b8 <__init_array_end+0x15a8>
    4c18:	4c 8d 05 b9 29 24 00 	lea    0x2429b9(%rip),%r8        # 2475d8 <__init_array_end+0x15c8>
    4c1f:	48 89 e2             	mov    %rsp,%rdx
    4c22:	be 2b 00 00 00       	mov    $0x2b,%esi
    4c27:	e8 34 50 00 00       	callq  9c60 <_ZN4core6option18expect_none_failed17he0fec195c6e4c2ecE>
    4c2c:	e9 48 fa ff ff       	jmpq   4679 <_ZN13num_perf_demo4main17h836ce3a93b32691bE+0x329>
    4c31:	e8 8a e9 00 00       	callq  135c0 <_ZN5alloc7raw_vec19RawVec$LT$T$C$A$GT$11allocate_in28_$u7b$$u7b$closure$u7d$$u7d$17h571564fc3a49ddd9E>
    4c36:	e9 3e fa ff ff       	jmpq   4679 <_ZN13num_perf_demo4main17h836ce3a93b32691bE+0x329>
    4c3b:	48 8d 05 4e 14 24 00 	lea    0x24144e(%rip),%rax        # 246090 <__init_array_end+0x80>
    4c42:	48 89 04 24          	mov    %rax,(%rsp)
    4c46:	48 c7 44 24 08 01 00 	movq   $0x1,0x8(%rsp)
    4c4d:	00 00 
    4c4f:	48 c7 44 24 10 00 00 	movq   $0x0,0x10(%rsp)
    4c56:	00 00 
    4c58:	48 8d 05 d9 87 03 00 	lea    0x387d9(%rip),%rax        # 3d438 <_ZN4core7unicode12unicode_data2cc6BITSET17h5201257bcf8f09faE+0xad8>
    4c5f:	48 89 44 24 20       	mov    %rax,0x20(%rsp)
    4c64:	48 c7 44 24 28 00 00 	movq   $0x0,0x28(%rsp)
    4c6b:	00 00 
    4c6d:	48 89 e7             	mov    %rsp,%rdi
        eprintln!("Dimension argument too small.");
    4c70:	c5 f8 77             	vzeroupper 
    4c73:	e8 d8 60 02 00       	callq  2ad50 <_ZN3std2io5stdio7_eprint17hf19d6fb036d8919dE>
        exit(1);
    4c78:	e8 a3 65 02 00       	callq  2b220 <_ZN3std7process4exit17h48d7a25190f60a46E>
    4c7d:	e9 f7 f9 ff ff       	jmpq   4679 <_ZN13num_perf_demo4main17h836ce3a93b32691bE+0x329>
    4c82:	be 08 00 00 00       	mov    $0x8,%esi
    4c87:	48 89 df             	mov    %rbx,%rdi
    4c8a:	e8 31 08 00 00       	callq  54c0 <_ZN5alloc5alloc18handle_alloc_error17hf7bb8682f6c8b1d7E>
    4c8f:	0f 0b                	ud2    
    4c91:	48 89 c3             	mov    %rax,%rbx
    4c94:	48 89 e7             	mov    %rsp,%rdi
    4c97:	e8 94 f5 ff ff       	callq  4230 <_ZN4core3ptr13drop_in_place17h1603095b365555f6E>
    4c9c:	eb 0b                	jmp    4ca9 <_ZN13num_perf_demo4main17h836ce3a93b32691bE+0x959>
    4c9e:	48 89 c3             	mov    %rax,%rbx
    4ca1:	48 89 e7             	mov    %rsp,%rdi
    4ca4:	e8 07 02 02 00       	callq  24eb0 <_ZN4core3ptr13drop_in_place17h5563ae43ca5ac214E>
    4ca9:	48 8d bc 24 80 00 00 	lea    0x80(%rsp),%rdi
    4cb0:	00 
    4cb1:	e8 9a f5 ff ff       	callq  4250 <_ZN4core3ptr13drop_in_place17h5712d1ad92044065E>
    4cb6:	48 89 df             	mov    %rbx,%rdi
    4cb9:	e8 e2 f3 ff ff       	callq  40a0 <_Unwind_Resume@plt>
    4cbe:	0f 0b                	ud2    
    4cc0:	48 89 c3             	mov    %rax,%rbx
    4cc3:	eb 52                	jmp    4d17 <_ZN13num_perf_demo4main17h836ce3a93b32691bE+0x9c7>
    4cc5:	48 89 c3             	mov    %rax,%rbx
    4cc8:	48 8d 7c 24 40       	lea    0x40(%rsp),%rdi
    4ccd:	e8 5e f5 ff ff       	callq  4230 <_ZN4core3ptr13drop_in_place17h1603095b365555f6E>
    4cd2:	eb 1c                	jmp    4cf0 <_ZN13num_perf_demo4main17h836ce3a93b32691bE+0x9a0>
    4cd4:	48 89 c3             	mov    %rax,%rbx
    4cd7:	48 8d 7c 24 40       	lea    0x40(%rsp),%rdi
    4cdc:	e8 cf 01 02 00       	callq  24eb0 <_ZN4core3ptr13drop_in_place17h5563ae43ca5ac214E>
    4ce1:	4c 89 6c 24 70       	mov    %r13,0x70(%rsp)
    4ce6:	48 8b 44 24 78       	mov    0x78(%rsp),%rax
    4ceb:	48 89 44 24 68       	mov    %rax,0x68(%rsp)
    4cf0:	48 89 e7             	mov    %rsp,%rdi
    4cf3:	e8 58 f5 ff ff       	callq  4250 <_ZN4core3ptr13drop_in_place17h5712d1ad92044065E>
    4cf8:	48 8d 7c 24 60       	lea    0x60(%rsp),%rdi
    4cfd:	e8 be f5 ff ff       	callq  42c0 <_ZN4core3ptr13drop_in_place17hbceefdc2b3e7349fE>
    4d02:	48 89 df             	mov    %rbx,%rdi
    4d05:	e8 96 f3 ff ff       	callq  40a0 <_Unwind_Resume@plt>
    4d0a:	0f 0b                	ud2    
    4d0c:	48 89 c3             	mov    %rax,%rbx
    4d0f:	48 89 e7             	mov    %rsp,%rdi
    4d12:	e8 f9 4a 02 00       	callq  29810 <_ZN4core3ptr13drop_in_place17hd9662a405d88168dE>
    4d17:	48 8d bc 24 80 00 00 	lea    0x80(%rsp),%rdi
    4d1e:	00 
    4d1f:	e8 6c 4a 02 00       	callq  29790 <_ZN4core3ptr13drop_in_place17h3299cdb2d88644f0E>
    4d24:	48 8d 7c 24 40       	lea    0x40(%rsp),%rdi
    4d29:	e8 c2 e7 01 00       	callq  234f0 <_ZN4core3ptr13drop_in_place17hdc1814fe4f8f9b15E>
    4d2e:	48 89 df             	mov    %rbx,%rdi
    4d31:	e8 6a f3 ff ff       	callq  40a0 <_Unwind_Resume@plt>
    4d36:	0f 0b                	ud2    
    4d38:	48 89 c3             	mov    %rax,%rbx
    4d3b:	48 8d 7c 24 40       	lea    0x40(%rsp),%rdi
    4d40:	e8 7b f5 ff ff       	callq  42c0 <_ZN4core3ptr13drop_in_place17hbceefdc2b3e7349fE>
    4d45:	48 89 df             	mov    %rbx,%rdi
    4d48:	e8 53 f3 ff ff       	callq  40a0 <_Unwind_Resume@plt>
    4d4d:	0f 0b                	ud2    
    4d4f:	90                   	nop

0000000000004d50 <main>:
    4d50:	55                   	push   %rbp
    4d51:	48 89 e5             	mov    %rsp,%rbp
    4d54:	41 57                	push   %r15
    4d56:	41 56                	push   %r14
    4d58:	41 55                	push   %r13
    4d5a:	41 54                	push   %r12
    4d5c:	53                   	push   %rbx
    4d5d:	48 83 e4 e0          	and    $0xffffffffffffffe0,%rsp
    4d61:	48 81 ec 80 01 00 00 	sub    $0x180,%rsp
    4d68:	8a 05 b2 a3 03 00    	mov    0x3a3b2(%rip),%al        # 3f120 <__rustc_debug_gdb_scripts_section__>
    4d6e:	48 8d 05 db f5 ff ff 	lea    -0xa25(%rip),%rax        # 4350 <_ZN13num_perf_demo4main17h836ce3a93b32691bE>
    4d75:	48 89 84 24 a8 00 00 	mov    %rax,0xa8(%rsp)
    4d7c:	00 
    4d7d:	48 8d 84 24 a8 00 00 	lea    0xa8(%rsp),%rax
    4d84:	00 
    4d85:	48 89 84 24 b0 00 00 	mov    %rax,0xb0(%rsp)
    4d8c:	00 
    4d8d:	48 8d 05 84 12 24 00 	lea    0x241284(%rip),%rax        # 246018 <__init_array_end+0x8>
    4d94:	48 89 84 24 b8 00 00 	mov    %rax,0xb8(%rsp)
    4d9b:	00 
    4d9c:	be 01 00 00 00       	mov    $0x1,%esi
    4da1:	bf 0d 00 00 00       	mov    $0xd,%edi
    4da6:	ff 15 0c 31 24 00    	callq  *0x24310c(%rip)        # 247eb8 <signal@GLIBC_2.2.5>
    4dac:	48 83 f8 ff          	cmp    $0xffffffffffffffff,%rax
    4db0:	0f 84 4b 03 00 00    	je     5101 <main+0x3b1>
    4db6:	bf 1e 00 00 00       	mov    $0x1e,%edi
    4dbb:	ff 15 bf 31 24 00    	callq  *0x2431bf(%rip)        # 247f80 <sysconf@GLIBC_2.2.5>
    4dc1:	48 89 05 40 34 24 00 	mov    %rax,0x243440(%rip)        # 248208 <_ZN3std3sys4unix6thread5guard9PAGE_SIZE17h3a4c25a44e74b197E>
    4dc8:	48 85 c0             	test   %rax,%rax
    4dcb:	0f 84 4a 03 00 00    	je     511b <main+0x3cb>
    4dd1:	c5 f8 57 c0          	vxorps %xmm0,%xmm0,%xmm0
    4dd5:	c5 fc 11 84 24 d8 00 	vmovups %ymm0,0xd8(%rsp)
    4ddc:	00 00 
    4dde:	c5 fc 29 84 24 c0 00 	vmovaps %ymm0,0xc0(%rsp)
    4de5:	00 00 
    4de7:	48 8d bc 24 c0 00 00 	lea    0xc0(%rsp),%rdi
    4dee:	00 
    4def:	c5 f8 77             	vzeroupper 
    4df2:	ff 15 a8 30 24 00    	callq  *0x2430a8(%rip)        # 247ea0 <pthread_attr_init@GLIBC_2.2.5>
    4df8:	89 44 24 18          	mov    %eax,0x18(%rsp)
    4dfc:	85 c0                	test   %eax,%eax
    4dfe:	0f 85 31 03 00 00    	jne    5135 <main+0x3e5>
    4e04:	ff 15 5e 31 24 00    	callq  *0x24315e(%rip)        # 247f68 <pthread_self@GLIBC_2.2.5>
    4e0a:	48 8d b4 24 c0 00 00 	lea    0xc0(%rsp),%rsi
    4e11:	00 
    4e12:	48 89 c7             	mov    %rax,%rdi
    4e15:	ff 15 8d 2f 24 00    	callq  *0x242f8d(%rip)        # 247da8 <pthread_getattr_np@GLIBC_2.2.5>
    4e1b:	85 c0                	test   %eax,%eax
    4e1d:	74 07                	je     4e26 <main+0xd6>
    4e1f:	bb 01 00 00 00       	mov    $0x1,%ebx
    4e24:	eb 49                	jmp    4e6f <main+0x11f>
    4e26:	48 c7 84 24 88 00 00 	movq   $0x0,0x88(%rsp)
    4e2d:	00 00 00 00 00 
    4e32:	48 c7 44 24 18 00 00 	movq   $0x0,0x18(%rsp)
    4e39:	00 00 
    4e3b:	48 8d bc 24 c0 00 00 	lea    0xc0(%rsp),%rdi
    4e42:	00 
    4e43:	48 8d b4 24 88 00 00 	lea    0x88(%rsp),%rsi
    4e4a:	00 
    4e4b:	48 8d 54 24 18       	lea    0x18(%rsp),%rdx
    4e50:	ff 15 22 30 24 00    	callq  *0x243022(%rip)        # 247e78 <pthread_attr_getstack@GLIBC_2.2.5>
    4e56:	89 84 24 84 00 00 00 	mov    %eax,0x84(%rsp)
    4e5d:	85 c0                	test   %eax,%eax
    4e5f:	0f 85 f9 03 00 00    	jne    525e <main+0x50e>
    4e65:	4c 8b bc 24 88 00 00 	mov    0x88(%rsp),%r15
    4e6c:	00 
    4e6d:	31 db                	xor    %ebx,%ebx
    4e6f:	48 8d bc 24 c0 00 00 	lea    0xc0(%rsp),%rdi
    4e76:	00 
    4e77:	ff 15 0b 31 24 00    	callq  *0x24310b(%rip)        # 247f88 <pthread_attr_destroy@GLIBC_2.2.5>
    4e7d:	89 44 24 18          	mov    %eax,0x18(%rsp)
    4e81:	85 c0                	test   %eax,%eax
    4e83:	0f 85 2b 03 00 00    	jne    51b4 <main+0x464>
    4e89:	48 85 db             	test   %rbx,%rbx
    4e8c:	74 0c                	je     4e9a <main+0x14a>
    4e8e:	31 c0                	xor    %eax,%eax
    4e90:	48 89 84 24 90 00 00 	mov    %rax,0x90(%rsp)
    4e97:	00 
    4e98:	eb 4e                	jmp    4ee8 <main+0x198>
    4e9a:	48 8b 0d 67 33 24 00 	mov    0x243367(%rip),%rcx        # 248208 <_ZN3std3sys4unix6thread5guard9PAGE_SIZE17h3a4c25a44e74b197E>
    4ea1:	48 85 c9             	test   %rcx,%rcx
    4ea4:	0f 84 36 04 00 00    	je     52e0 <main+0x590>
    4eaa:	4c 89 f8             	mov    %r15,%rax
    4ead:	48 09 c8             	or     %rcx,%rax
    4eb0:	48 c1 e8 20          	shr    $0x20,%rax
    4eb4:	74 0a                	je     4ec0 <main+0x170>
    4eb6:	4c 89 f8             	mov    %r15,%rax
    4eb9:	31 d2                	xor    %edx,%edx
    4ebb:	48 f7 f1             	div    %rcx
    4ebe:	eb 07                	jmp    4ec7 <main+0x177>
    4ec0:	44 89 f8             	mov    %r15d,%eax
    4ec3:	31 d2                	xor    %edx,%edx
    4ec5:	f7 f1                	div    %ecx
    4ec7:	4e 8d 34 39          	lea    (%rcx,%r15,1),%r14
    4ecb:	49 29 d6             	sub    %rdx,%r14
    4ece:	48 85 d2             	test   %rdx,%rdx
    4ed1:	4d 0f 44 f7          	cmove  %r15,%r14
    4ed5:	4d 89 f7             	mov    %r14,%r15
    4ed8:	49 29 cf             	sub    %rcx,%r15
    4edb:	b8 01 00 00 00       	mov    $0x1,%eax
    4ee0:	48 89 84 24 90 00 00 	mov    %rax,0x90(%rsp)
    4ee7:	00 
    4ee8:	c5 f8 57 c0          	vxorps %xmm0,%xmm0,%xmm0
    4eec:	c5 fc 11 84 24 38 01 	vmovups %ymm0,0x138(%rsp)
    4ef3:	00 00 
    4ef5:	c5 fc 11 84 24 28 01 	vmovups %ymm0,0x128(%rsp)
    4efc:	00 00 
    4efe:	c5 fc 11 84 24 08 01 	vmovups %ymm0,0x108(%rsp)
    4f05:	00 00 
    4f07:	c5 fc 11 84 24 e8 00 	vmovups %ymm0,0xe8(%rsp)
    4f0e:	00 00 
    4f10:	c5 fc 11 84 24 c8 00 	vmovups %ymm0,0xc8(%rsp)
    4f17:	00 00 
    4f19:	c7 84 24 48 01 00 00 	movl   $0x8000004,0x148(%rsp)
    4f20:	04 00 00 08 
    4f24:	48 8d 05 f5 73 02 00 	lea    0x273f5(%rip),%rax        # 2c320 <_ZN3std3sys4unix14stack_overflow3imp14signal_handler17h6d817a4444c19957E>
    4f2b:	48 89 84 24 c0 00 00 	mov    %rax,0xc0(%rsp)
    4f32:	00 
    4f33:	4c 8b 25 96 2e 24 00 	mov    0x242e96(%rip),%r12        # 247dd0 <sigaction@GLIBC_2.2.5>
    4f3a:	45 31 ed             	xor    %r13d,%r13d
    4f3d:	48 8d 9c 24 c0 00 00 	lea    0xc0(%rsp),%rbx
    4f44:	00 
    4f45:	bf 0b 00 00 00       	mov    $0xb,%edi
    4f4a:	48 89 de             	mov    %rbx,%rsi
    4f4d:	31 d2                	xor    %edx,%edx
    4f4f:	c5 f8 77             	vzeroupper 
    4f52:	41 ff d4             	callq  *%r12
    4f55:	bf 07 00 00 00       	mov    $0x7,%edi
    4f5a:	48 89 de             	mov    %rbx,%rsi
    4f5d:	31 d2                	xor    %edx,%edx
    4f5f:	41 ff d4             	callq  *%r12
    4f62:	c5 f8 57 c0          	vxorps %xmm0,%xmm0,%xmm0
    4f66:	c5 f8 29 44 24 30    	vmovaps %xmm0,0x30(%rsp)
    4f6c:	48 c7 44 24 40 00 00 	movq   $0x0,0x40(%rsp)
    4f73:	00 00 
    4f75:	48 8d 74 24 30       	lea    0x30(%rsp),%rsi
    4f7a:	31 ff                	xor    %edi,%edi
    4f7c:	ff 15 36 30 24 00    	callq  *0x243036(%rip)        # 247fb8 <sigaltstack@GLIBC_2.2.5>
    4f82:	f6 44 24 38 02       	testb  $0x2,0x38(%rsp)
    4f87:	74 55                	je     4fde <main+0x28e>
    4f89:	be 00 20 00 00       	mov    $0x2000,%esi
    4f8e:	bf 00 00 00 00       	mov    $0x0,%edi
    4f93:	ba 03 00 00 00       	mov    $0x3,%edx
    4f98:	b9 22 00 00 00       	mov    $0x22,%ecx
    4f9d:	41 b8 ff ff ff ff    	mov    $0xffffffff,%r8d
    4fa3:	45 31 c9             	xor    %r9d,%r9d
    4fa6:	ff 15 7c 2e 24 00    	callq  *0x242e7c(%rip)        # 247e28 <mmap@GLIBC_2.2.5>
    4fac:	48 83 f8 ff          	cmp    $0xffffffffffffffff,%rax
    4fb0:	0f 84 8e 02 00 00    	je     5244 <main+0x4f4>
    4fb6:	48 89 44 24 30       	mov    %rax,0x30(%rsp)
    4fbb:	c7 44 24 38 00 00 00 	movl   $0x0,0x38(%rsp)
    4fc2:	00 
    4fc3:	48 c7 44 24 40 00 20 	movq   $0x2000,0x40(%rsp)
    4fca:	00 00 
    4fcc:	48 8d 7c 24 30       	lea    0x30(%rsp),%rdi
    4fd1:	31 f6                	xor    %esi,%esi
    4fd3:	ff 15 df 2f 24 00    	callq  *0x242fdf(%rip)        # 247fb8 <sigaltstack@GLIBC_2.2.5>
    4fd9:	4c 8b 6c 24 30       	mov    0x30(%rsp),%r13
    4fde:	4c 89 2d 0b 32 24 00 	mov    %r13,0x24320b(%rip)        # 2481f0 <_ZN3std3sys4unix14stack_overflow3imp13MAIN_ALTSTACK17h264a7759a758f34eE>
    4fe5:	bf 04 00 00 00       	mov    $0x4,%edi
    4fea:	ff 15 18 2f 24 00    	callq  *0x242f18(%rip)        # 247f08 <malloc@GLIBC_2.2.5>
    4ff0:	48 85 c0             	test   %rax,%rax
    4ff3:	0f 84 3a 02 00 00    	je     5233 <main+0x4e3>
    4ff9:	c7 00 6d 61 69 6e    	movl   $0x6e69616d,(%rax)
    4fff:	48 89 84 24 c0 00 00 	mov    %rax,0xc0(%rsp)
    5006:	00 
    5007:	c5 f8 28 05 51 53 03 	vmovaps 0x35351(%rip),%xmm0        # 3a360 <_fini+0x1c>
    500e:	00 
    500f:	c5 f8 11 84 24 c8 00 	vmovups %xmm0,0xc8(%rsp)
    5016:	00 00 
    5018:	48 8d bc 24 c0 00 00 	lea    0xc0(%rsp),%rdi
    501f:	00 
    5020:	e8 3b df 01 00       	callq  22f60 <_ZN3std6thread6Thread3new17h4aa6d776ccf79e9dE>
    5025:	48 8b 8c 24 90 00 00 	mov    0x90(%rsp),%rcx
    502c:	00 
    502d:	48 89 8c 24 c0 00 00 	mov    %rcx,0xc0(%rsp)
    5034:	00 
    5035:	4c 89 bc 24 c8 00 00 	mov    %r15,0xc8(%rsp)
    503c:	00 
    503d:	4c 89 b4 24 d0 00 00 	mov    %r14,0xd0(%rsp)
    5044:	00 
    5045:	48 8d bc 24 c0 00 00 	lea    0xc0(%rsp),%rdi
    504c:	00 
    504d:	48 89 c6             	mov    %rax,%rsi
    5050:	e8 4b 6f 02 00       	callq  2bfa0 <_ZN3std10sys_common11thread_info3set17h5184dcec2d40b2c6E>
    5055:	48 8b bc 24 b0 00 00 	mov    0xb0(%rsp),%rdi
    505c:	00 
    505d:	48 8b b4 24 b8 00 00 	mov    0xb8(%rsp),%rsi
    5064:	00 
    5065:	e8 c6 75 02 00       	callq  2c630 <_ZN3std10sys_common9backtrace28__rust_begin_short_backtrace17hcbc62328ecb87c1cE>
    506a:	89 84 24 c4 00 00 00 	mov    %eax,0xc4(%rsp)
    5071:	31 c0                	xor    %eax,%eax
    5073:	89 84 24 c0 00 00 00 	mov    %eax,0xc0(%rsp)
    507a:	48 8b 05 67 31 24 00 	mov    0x243167(%rip),%rax        # 2481e8 <_ZN3std10sys_common7cleanup7CLEANUP17he74d084b7257e166E>
    5081:	48 83 f8 03          	cmp    $0x3,%rax
    5085:	74 27                	je     50ae <main+0x35e>
    5087:	c6 44 24 60 01       	movb   $0x1,0x60(%rsp)
    508c:	48 8d 44 24 60       	lea    0x60(%rsp),%rax
    5091:	48 89 44 24 30       	mov    %rax,0x30(%rsp)
    5096:	48 8d 3d 4b 31 24 00 	lea    0x24314b(%rip),%rdi        # 2481e8 <_ZN3std10sys_common7cleanup7CLEANUP17he74d084b7257e166E>
    509d:	48 8d 15 6c 27 24 00 	lea    0x24276c(%rip),%rdx        # 247810 <__init_array_end+0x1800>
    50a4:	48 8d 74 24 30       	lea    0x30(%rsp),%rsi
    50a9:	e8 e2 61 02 00       	callq  2b290 <_ZN3std4sync4once4Once10call_inner17hfabbd1bc15485aefE>
    50ae:	8b 84 24 c0 00 00 00 	mov    0xc0(%rsp),%eax
    50b5:	4c 8b b4 24 c8 00 00 	mov    0xc8(%rsp),%r14
    50bc:	00 
    50bd:	4c 8b bc 24 d0 00 00 	mov    0xd0(%rsp),%r15
    50c4:	00 
    50c5:	bb 65 00 00 00       	mov    $0x65,%ebx
    50ca:	83 f8 01             	cmp    $0x1,%eax
    50cd:	74 07                	je     50d6 <main+0x386>
    50cf:	8b 9c 24 c4 00 00 00 	mov    0xc4(%rsp),%ebx
    50d6:	85 c0                	test   %eax,%eax
    50d8:	74 16                	je     50f0 <main+0x3a0>
    50da:	4c 89 f7             	mov    %r14,%rdi
    50dd:	41 ff 17             	callq  *(%r15)
    50e0:	49 83 7f 08 00       	cmpq   $0x0,0x8(%r15)
    50e5:	74 09                	je     50f0 <main+0x3a0>
    50e7:	4c 89 f7             	mov    %r14,%rdi
    50ea:	ff 15 88 2c 24 00    	callq  *0x242c88(%rip)        # 247d78 <free@GLIBC_2.2.5>
    50f0:	89 d8                	mov    %ebx,%eax
    50f2:	48 8d 65 d8          	lea    -0x28(%rbp),%rsp
    50f6:	5b                   	pop    %rbx
    50f7:	41 5c                	pop    %r12
    50f9:	41 5d                	pop    %r13
    50fb:	41 5e                	pop    %r14
    50fd:	41 5f                	pop    %r15
    50ff:	5d                   	pop    %rbp
    5100:	c3                   	retq   
    5101:	48 8d 3d cc 8c 03 00 	lea    0x38ccc(%rip),%rdi        # 3ddd4 <_ZN4core7unicode12unicode_data2cc6BITSET17h5201257bcf8f09faE+0x1474>
    5108:	48 8d 15 01 28 24 00 	lea    0x242801(%rip),%rdx        # 247910 <__init_array_end+0x1900>
    510f:	be 47 00 00 00       	mov    $0x47,%esi
    5114:	e8 a7 e3 01 00       	callq  234c0 <_ZN3std9panicking11begin_panic17hc5f3eabb2c219d56E>
    5119:	0f 0b                	ud2    
    511b:	48 8d 3d fe 56 03 00 	lea    0x356fe(%rip),%rdi        # 3a820 <_ZN4core7unicode12unicode_data2cc19BITSET_INDEX_CHUNKS17h8a1f39cd536e9344E+0x360>
    5122:	48 8d 15 47 28 24 00 	lea    0x242847(%rip),%rdx        # 247970 <__init_array_end+0x1960>
    5129:	be 20 00 00 00       	mov    $0x20,%esi
    512e:	e8 8d e3 01 00       	callq  234c0 <_ZN3std9panicking11begin_panic17hc5f3eabb2c219d56E>
    5133:	0f 0b                	ud2    
    5135:	48 8d 44 24 18       	lea    0x18(%rsp),%rax
    513a:	48 89 44 24 20       	mov    %rax,0x20(%rsp)
    513f:	48 8d 05 52 73 03 00 	lea    0x37352(%rip),%rax        # 3c498 <_ZN4core7unicode12unicode_data15grapheme_extend6BITSET17h68ce7f61ccfa32feE+0x9f8>
    5146:	48 89 44 24 28       	mov    %rax,0x28(%rsp)
    514b:	48 8d 44 24 20       	lea    0x20(%rsp),%rax
    5150:	48 89 44 24 60       	mov    %rax,0x60(%rsp)
    5155:	48 8d 05 74 e6 01 00 	lea    0x1e674(%rip),%rax        # 237d0 <_ZN42_$LT$$RF$T$u20$as$u20$core..fmt..Debug$GT$3fmt17h60ee9c74ee2aa888E>
    515c:	48 89 44 24 68       	mov    %rax,0x68(%rsp)
    5161:	48 8d 4c 24 28       	lea    0x28(%rsp),%rcx
    5166:	48 89 4c 24 70       	mov    %rcx,0x70(%rsp)
    516b:	48 89 44 24 78       	mov    %rax,0x78(%rsp)
    5170:	48 8d 05 21 1d 24 00 	lea    0x241d21(%rip),%rax        # 246e98 <__init_array_end+0xe88>
    5177:	48 89 44 24 30       	mov    %rax,0x30(%rsp)
    517c:	48 c7 44 24 38 03 00 	movq   $0x3,0x38(%rsp)
    5183:	00 00 
    5185:	48 c7 44 24 40 00 00 	movq   $0x0,0x40(%rsp)
    518c:	00 00 
    518e:	48 8d 44 24 60       	lea    0x60(%rsp),%rax
    5193:	48 89 44 24 50       	mov    %rax,0x50(%rsp)
    5198:	48 c7 44 24 58 02 00 	movq   $0x2,0x58(%rsp)
    519f:	00 00 
    51a1:	48 8d 35 80 27 24 00 	lea    0x242780(%rip),%rsi        # 247928 <__init_array_end+0x1918>
    51a8:	48 8d 7c 24 30       	lea    0x30(%rsp),%rdi
    51ad:	e8 2e e8 01 00       	callq  239e0 <_ZN3std9panicking15begin_panic_fmt17h7fd3ef9bf535b4d1E>
    51b2:	0f 0b                	ud2    
    51b4:	48 8d 44 24 18       	lea    0x18(%rsp),%rax
    51b9:	48 89 44 24 20       	mov    %rax,0x20(%rsp)
    51be:	48 8d 05 d3 72 03 00 	lea    0x372d3(%rip),%rax        # 3c498 <_ZN4core7unicode12unicode_data15grapheme_extend6BITSET17h68ce7f61ccfa32feE+0x9f8>
    51c5:	48 89 44 24 28       	mov    %rax,0x28(%rsp)
    51ca:	48 8d 44 24 20       	lea    0x20(%rsp),%rax
    51cf:	48 89 44 24 60       	mov    %rax,0x60(%rsp)
    51d4:	48 8d 05 f5 e5 01 00 	lea    0x1e5f5(%rip),%rax        # 237d0 <_ZN42_$LT$$RF$T$u20$as$u20$core..fmt..Debug$GT$3fmt17h60ee9c74ee2aa888E>
    51db:	48 89 44 24 68       	mov    %rax,0x68(%rsp)
    51e0:	48 8d 4c 24 28       	lea    0x28(%rsp),%rcx
    51e5:	48 89 4c 24 70       	mov    %rcx,0x70(%rsp)
    51ea:	48 89 44 24 78       	mov    %rax,0x78(%rsp)
    51ef:	48 8d 05 a2 1c 24 00 	lea    0x241ca2(%rip),%rax        # 246e98 <__init_array_end+0xe88>
    51f6:	48 89 44 24 30       	mov    %rax,0x30(%rsp)
    51fb:	48 c7 44 24 38 03 00 	movq   $0x3,0x38(%rsp)
    5202:	00 00 
    5204:	48 c7 44 24 40 00 00 	movq   $0x0,0x40(%rsp)
    520b:	00 00 
    520d:	48 8d 44 24 60       	lea    0x60(%rsp),%rax
    5212:	48 89 44 24 50       	mov    %rax,0x50(%rsp)
    5217:	48 c7 44 24 58 02 00 	movq   $0x2,0x58(%rsp)
    521e:	00 00 
    5220:	48 8d 35 31 27 24 00 	lea    0x242731(%rip),%rsi        # 247958 <__init_array_end+0x1948>
    5227:	48 8d 7c 24 30       	lea    0x30(%rsp),%rdi
    522c:	e8 af e7 01 00       	callq  239e0 <_ZN3std9panicking15begin_panic_fmt17h7fd3ef9bf535b4d1E>
    5231:	0f 0b                	ud2    
    5233:	bf 04 00 00 00       	mov    $0x4,%edi
    5238:	be 01 00 00 00       	mov    $0x1,%esi
    523d:	e8 7e 02 00 00       	callq  54c0 <_ZN5alloc5alloc18handle_alloc_error17hf7bb8682f6c8b1d7E>
    5242:	0f 0b                	ud2    
    5244:	48 8d 3d 0e 8c 03 00 	lea    0x38c0e(%rip),%rdi        # 3de59 <str.0+0x39>
    524b:	48 8d 15 4e 27 24 00 	lea    0x24274e(%rip),%rdx        # 2479a0 <__init_array_end+0x1990>
    5252:	be 27 00 00 00       	mov    $0x27,%esi
    5257:	e8 64 e2 01 00       	callq  234c0 <_ZN3std9panicking11begin_panic17hc5f3eabb2c219d56E>
    525c:	0f 0b                	ud2    
    525e:	48 8d 84 24 84 00 00 	lea    0x84(%rsp),%rax
    5265:	00 
    5266:	48 89 44 24 20       	mov    %rax,0x20(%rsp)
    526b:	48 8d 05 26 72 03 00 	lea    0x37226(%rip),%rax        # 3c498 <_ZN4core7unicode12unicode_data15grapheme_extend6BITSET17h68ce7f61ccfa32feE+0x9f8>
    5272:	48 89 44 24 28       	mov    %rax,0x28(%rsp)
    5277:	48 8d 44 24 20       	lea    0x20(%rsp),%rax
    527c:	48 89 44 24 60       	mov    %rax,0x60(%rsp)
    5281:	48 8d 05 48 e5 01 00 	lea    0x1e548(%rip),%rax        # 237d0 <_ZN42_$LT$$RF$T$u20$as$u20$core..fmt..Debug$GT$3fmt17h60ee9c74ee2aa888E>
    5288:	48 89 44 24 68       	mov    %rax,0x68(%rsp)
    528d:	48 8d 4c 24 28       	lea    0x28(%rsp),%rcx
    5292:	48 89 4c 24 70       	mov    %rcx,0x70(%rsp)
    5297:	48 89 44 24 78       	mov    %rax,0x78(%rsp)
    529c:	48 8d 05 f5 1b 24 00 	lea    0x241bf5(%rip),%rax        # 246e98 <__init_array_end+0xe88>
    52a3:	48 89 44 24 30       	mov    %rax,0x30(%rsp)
    52a8:	48 c7 44 24 38 03 00 	movq   $0x3,0x38(%rsp)
    52af:	00 00 
    52b1:	48 c7 44 24 40 00 00 	movq   $0x0,0x40(%rsp)
    52b8:	00 00 
    52ba:	48 8d 44 24 60       	lea    0x60(%rsp),%rax
    52bf:	48 89 44 24 50       	mov    %rax,0x50(%rsp)
    52c4:	48 c7 44 24 58 02 00 	movq   $0x2,0x58(%rsp)
    52cb:	00 00 
    52cd:	48 8d 35 6c 26 24 00 	lea    0x24266c(%rip),%rsi        # 247940 <__init_array_end+0x1930>
    52d4:	48 8d 7c 24 30       	lea    0x30(%rsp),%rdi
    52d9:	e8 02 e7 01 00       	callq  239e0 <_ZN3std9panicking15begin_panic_fmt17h7fd3ef9bf535b4d1E>
    52de:	0f 0b                	ud2    
    52e0:	48 8d 3d 39 8b 03 00 	lea    0x38b39(%rip),%rdi        # 3de20 <str.0>
    52e7:	48 8d 15 9a 26 24 00 	lea    0x24269a(%rip),%rdx        # 247988 <__init_array_end+0x1978>
    52ee:	be 39 00 00 00       	mov    $0x39,%esi
    52f3:	e8 b8 20 00 00       	callq  73b0 <_ZN4core9panicking5panic17h6861470adfbddef8E>
    52f8:	0f 0b                	ud2    
    52fa:	48 89 c3             	mov    %rax,%rbx
    52fd:	48 8d bc 24 c0 00 00 	lea    0xc0(%rsp),%rdi
    5304:	00 
    5305:	e8 c6 72 02 00       	callq  2c5d0 <_ZN4core3ptr13drop_in_place17h900fcba381d9a228E>
    530a:	48 89 df             	mov    %rbx,%rdi
    530d:	e8 8e ed ff ff       	callq  40a0 <_Unwind_Resume@plt>
    5312:	0f 0b                	ud2    
    5314:	48 89 c3             	mov    %rax,%rbx
    5317:	4c 89 f7             	mov    %r14,%rdi
    531a:	4c 89 fe             	mov    %r15,%rsi
    531d:	e8 ee f5 01 00       	callq  24910 <_ZN5alloc5alloc8box_free17h3741427eaa5804e6E>
    5322:	48 89 df             	mov    %rbx,%rdi
    5325:	e8 76 ed ff ff       	callq  40a0 <_Unwind_Resume@plt>
    532a:	0f 0b                	ud2    
    532c:	c5 fa 6f 40 40       	vmovdqu 0x40(%rax),%xmm0
    5331:	c5 f9 7f 84 24 90 00 	vmovdqa %xmm0,0x90(%rsp)
    5338:	00 00 
    533a:	48 89 c7             	mov    %rax,%rdi
    533d:	ff 15 35 2a 24 00    	callq  *0x242a35(%rip)        # 247d78 <free@GLIBC_2.2.5>
    5343:	64 48 83 3c 25 a0 ff 	cmpq   $0x1,%fs:0xffffffffffffffa0
    534a:	ff ff 01 
    534d:	75 0e                	jne    535d <main+0x60d>
    534f:	64 48 8b 04 25 a8 ff 	mov    %fs:0xffffffffffffffa8,%rax
    5356:	ff ff 
    5358:	48 ff c8             	dec    %rax
    535b:	eb 1b                	jmp    5378 <main+0x628>
    535d:	b8 01 00 00 00       	mov    $0x1,%eax
    5362:	c4 e1 f9 6e c0       	vmovq  %rax,%xmm0
    5367:	64 c5 f9 7f 04 25 a0 	vmovdqa %xmm0,%fs:0xffffffffffffffa0
    536e:	ff ff ff 
    5371:	48 c7 c0 ff ff ff ff 	mov    $0xffffffffffffffff,%rax
    5378:	64 48 89 04 25 a8 ff 	mov    %rax,%fs:0xffffffffffffffa8
    537f:	ff ff 
    5381:	c5 f8 28 84 24 90 00 	vmovaps 0x90(%rsp),%xmm0
    5388:	00 00 
    538a:	c5 f8 11 84 24 c8 00 	vmovups %xmm0,0xc8(%rsp)
    5391:	00 00 
    5393:	b8 01 00 00 00       	mov    $0x1,%eax
    5398:	89 84 24 c0 00 00 00 	mov    %eax,0xc0(%rsp)
    539f:	48 8b 05 42 2e 24 00 	mov    0x242e42(%rip),%rax        # 2481e8 <_ZN3std10sys_common7cleanup7CLEANUP17he74d084b7257e166E>
    53a6:	48 83 f8 03          	cmp    $0x3,%rax
    53aa:	0f 85 d7 fc ff ff    	jne    5087 <main+0x337>
    53b0:	e9 f9 fc ff ff       	jmpq   50ae <main+0x35e>
    53b5:	66 2e 0f 1f 84 00 00 	nopw   %cs:0x0(%rax,%rax,1)
    53bc:	00 00 00 
    53bf:	90                   	nop

00000000000053c0 <__rust_alloc>:
    53c0:	50                   	push   %rax
    53c1:	48 89 fa             	mov    %rdi,%rdx
    53c4:	48 83 fe 10          	cmp    $0x10,%rsi
    53c8:	77 0f                	ja     53d9 <__rust_alloc+0x19>
    53ca:	48 39 d6             	cmp    %rdx,%rsi
    53cd:	77 0a                	ja     53d9 <__rust_alloc+0x19>
    53cf:	48 89 d7             	mov    %rdx,%rdi
    53d2:	58                   	pop    %rax
    53d3:	ff 25 2f 2b 24 00    	jmpq   *0x242b2f(%rip)        # 247f08 <malloc@GLIBC_2.2.5>
    53d9:	48 c7 04 24 00 00 00 	movq   $0x0,(%rsp)
    53e0:	00 
    53e1:	48 83 fe 08          	cmp    $0x8,%rsi
    53e5:	b8 08 00 00 00       	mov    $0x8,%eax
    53ea:	48 0f 47 c6          	cmova  %rsi,%rax
    53ee:	48 89 e7             	mov    %rsp,%rdi
    53f1:	48 89 c6             	mov    %rax,%rsi
    53f4:	ff 15 a6 2b 24 00    	callq  *0x242ba6(%rip)        # 247fa0 <posix_memalign@GLIBC_2.2.5>
    53fa:	85 c0                	test   %eax,%eax
    53fc:	75 06                	jne    5404 <__rust_alloc+0x44>
    53fe:	48 8b 04 24          	mov    (%rsp),%rax
    5402:	59                   	pop    %rcx
    5403:	c3                   	retq   
    5404:	31 c0                	xor    %eax,%eax
    5406:	59                   	pop    %rcx
    5407:	c3                   	retq   
    5408:	0f 1f 84 00 00 00 00 	nopl   0x0(%rax,%rax,1)
    540f:	00 

0000000000005410 <__rust_dealloc>:
    5410:	ff 25 62 29 24 00    	jmpq   *0x242962(%rip)        # 247d78 <free@GLIBC_2.2.5>
    5416:	66 2e 0f 1f 84 00 00 	nopw   %cs:0x0(%rax,%rax,1)
    541d:	00 00 00 

0000000000005420 <__rust_realloc>:
    5420:	41 57                	push   %r15
    5422:	41 56                	push   %r14
    5424:	41 54                	push   %r12
    5426:	53                   	push   %rbx
    5427:	50                   	push   %rax
    5428:	48 89 cb             	mov    %rcx,%rbx
    542b:	49 89 f7             	mov    %rsi,%r15
    542e:	49 89 fe             	mov    %rdi,%r14
    5431:	48 83 fa 10          	cmp    $0x10,%rdx
    5435:	77 1c                	ja     5453 <__rust_realloc+0x33>
    5437:	48 39 da             	cmp    %rbx,%rdx
    543a:	77 17                	ja     5453 <__rust_realloc+0x33>
    543c:	4c 89 f7             	mov    %r14,%rdi
    543f:	48 89 de             	mov    %rbx,%rsi
    5442:	48 83 c4 08          	add    $0x8,%rsp
    5446:	5b                   	pop    %rbx
    5447:	41 5c                	pop    %r12
    5449:	41 5e                	pop    %r14
    544b:	41 5f                	pop    %r15
    544d:	ff 25 e5 2a 24 00    	jmpq   *0x242ae5(%rip)        # 247f38 <realloc@GLIBC_2.2.5>
    5453:	48 c7 04 24 00 00 00 	movq   $0x0,(%rsp)
    545a:	00 
    545b:	48 83 fa 08          	cmp    $0x8,%rdx
    545f:	be 08 00 00 00       	mov    $0x8,%esi
    5464:	48 0f 47 f2          	cmova  %rdx,%rsi
    5468:	48 89 e7             	mov    %rsp,%rdi
    546b:	48 89 da             	mov    %rbx,%rdx
    546e:	ff 15 2c 2b 24 00    	callq  *0x242b2c(%rip)        # 247fa0 <posix_memalign@GLIBC_2.2.5>
    5474:	89 c1                	mov    %eax,%ecx
    5476:	31 c0                	xor    %eax,%eax
    5478:	85 c9                	test   %ecx,%ecx
    547a:	75 2b                	jne    54a7 <__rust_realloc+0x87>
    547c:	4c 8b 24 24          	mov    (%rsp),%r12
    5480:	4d 85 e4             	test   %r12,%r12
    5483:	74 22                	je     54a7 <__rust_realloc+0x87>
    5485:	49 39 df             	cmp    %rbx,%r15
    5488:	4c 0f 47 fb          	cmova  %rbx,%r15
    548c:	4c 89 e7             	mov    %r12,%rdi
    548f:	4c 89 f6             	mov    %r14,%rsi
    5492:	4c 89 fa             	mov    %r15,%rdx
    5495:	ff 15 35 2a 24 00    	callq  *0x242a35(%rip)        # 247ed0 <memcpy@GLIBC_2.14>
    549b:	4c 89 f7             	mov    %r14,%rdi
    549e:	ff 15 d4 28 24 00    	callq  *0x2428d4(%rip)        # 247d78 <free@GLIBC_2.2.5>
    54a4:	4c 89 e0             	mov    %r12,%rax
    54a7:	48 83 c4 08          	add    $0x8,%rsp
    54ab:	5b                   	pop    %rbx
    54ac:	41 5c                	pop    %r12
    54ae:	41 5e                	pop    %r14
    54b0:	41 5f                	pop    %r15
    54b2:	c3                   	retq   
    54b3:	66 2e 0f 1f 84 00 00 	nopw   %cs:0x0(%rax,%rax,1)
    54ba:	00 00 00 
    54bd:	0f 1f 00             	nopl   (%rax)

00000000000054c0 <_ZN5alloc5alloc18handle_alloc_error17hf7bb8682f6c8b1d7E>:
    54c0:	50                   	push   %rax
    54c1:	e8 ea 6d 02 00       	callq  2c2b0 <rust_oom>
    54c6:	0f 0b                	ud2    
    54c8:	0f 1f 84 00 00 00 00 	nopl   0x0(%rax,%rax,1)
    54cf:	00 

00000000000054d0 <_ZN5alloc7raw_vec17capacity_overflow17h9be7d3ce681ac1a6E>:
    54d0:	50                   	push   %rax
    54d1:	48 8d 3d 16 5a 03 00 	lea    0x35a16(%rip),%rdi        # 3aeee <_ZN4core7unicode12unicode_data2cc19BITSET_INDEX_CHUNKS17h8a1f39cd536e9344E+0xa2e>
    54d8:	48 8d 15 c1 0b 24 00 	lea    0x240bc1(%rip),%rdx        # 2460a0 <__init_array_end+0x90>
    54df:	be 11 00 00 00       	mov    $0x11,%esi
    54e4:	e8 c7 1e 00 00       	callq  73b0 <_ZN4core9panicking5panic17h6861470adfbddef8E>
    54e9:	0f 0b                	ud2    
    54eb:	0f 1f 44 00 00       	nopl   0x0(%rax,%rax,1)

00000000000054f0 <_ZN50_$LT$$BP$mut$u20$T$u20$as$u20$core..fmt..Debug$GT$3fmt17h0c22205dba98029aE>:
    54f0:	55                   	push   %rbp
    54f1:	53                   	push   %rbx
    54f2:	48 81 ec 98 00 00 00 	sub    $0x98,%rsp
    54f9:	48 89 f3             	mov    %rsi,%rbx
    54fc:	48 8b 07             	mov    (%rdi),%rax
    54ff:	f3 0f 6f 0e          	movdqu (%rsi),%xmm1
    5503:	8b 6e 30             	mov    0x30(%rsi),%ebp
    5506:	89 e9                	mov    %ebp,%ecx
    5508:	40 f6 c5 04          	test   $0x4,%bpl
    550c:	74 1d                	je     552b <_ZN50_$LT$$BP$mut$u20$T$u20$as$u20$core..fmt..Debug$GT$3fmt17h0c22205dba98029aE+0x3b>
    550e:	66 48 0f 7e ca       	movq   %xmm1,%rdx
    5513:	89 e9                	mov    %ebp,%ecx
    5515:	83 c9 08             	or     $0x8,%ecx
    5518:	89 4b 30             	mov    %ecx,0x30(%rbx)
    551b:	48 83 fa 01          	cmp    $0x1,%rdx
    551f:	74 0a                	je     552b <_ZN50_$LT$$BP$mut$u20$T$u20$as$u20$core..fmt..Debug$GT$3fmt17h0c22205dba98029aE+0x3b>
    5521:	0f 28 05 48 4e 03 00 	movaps 0x34e48(%rip),%xmm0        # 3a370 <_fini+0x2c>
    5528:	0f 11 03             	movups %xmm0,(%rbx)
    552b:	83 c9 04             	or     $0x4,%ecx
    552e:	89 4b 30             	mov    %ecx,0x30(%rbx)
    5531:	4c 8d 84 24 98 00 00 	lea    0x98(%rsp),%r8
    5538:	00 
    5539:	45 31 c9             	xor    %r9d,%r9d
    553c:	48 89 c1             	mov    %rax,%rcx
    553f:	90                   	nop
    5540:	48 c1 e9 04          	shr    $0x4,%rcx
    5544:	24 0f                	and    $0xf,%al
    5546:	8d 50 30             	lea    0x30(%rax),%edx
    5549:	8d 70 57             	lea    0x57(%rax),%esi
    554c:	3c 0a                	cmp    $0xa,%al
    554e:	0f b6 c2             	movzbl %dl,%eax
    5551:	40 0f b6 d6          	movzbl %sil,%edx
    5555:	0f 42 d0             	cmovb  %eax,%edx
    5558:	41 88 50 ff          	mov    %dl,-0x1(%r8)
    555c:	49 83 c0 ff          	add    $0xffffffffffffffff,%r8
    5560:	49 83 c1 01          	add    $0x1,%r9
    5564:	48 89 c8             	mov    %rcx,%rax
    5567:	48 85 c9             	test   %rcx,%rcx
    556a:	75 d4                	jne    5540 <_ZN50_$LT$$BP$mut$u20$T$u20$as$u20$core..fmt..Debug$GT$3fmt17h0c22205dba98029aE+0x50>
    556c:	66 0f 7f 0c 24       	movdqa %xmm1,(%rsp)
    5571:	bf 80 00 00 00       	mov    $0x80,%edi
    5576:	4c 29 cf             	sub    %r9,%rdi
    5579:	48 81 ff 81 00 00 00 	cmp    $0x81,%rdi
    5580:	73 2d                	jae    55af <_ZN50_$LT$$BP$mut$u20$T$u20$as$u20$core..fmt..Debug$GT$3fmt17h0c22205dba98029aE+0xbf>
    5582:	48 8d 15 6d 7c 03 00 	lea    0x37c6d(%rip),%rdx        # 3d1f6 <_ZN4core7unicode12unicode_data2cc6BITSET17h5201257bcf8f09faE+0x896>
    5589:	b9 02 00 00 00       	mov    $0x2,%ecx
    558e:	48 89 df             	mov    %rbx,%rdi
    5591:	be 01 00 00 00       	mov    $0x1,%esi
    5596:	e8 55 20 00 00       	callq  75f0 <_ZN4core3fmt9Formatter12pad_integral17hc55c32e78eb96054E>
    559b:	0f 28 04 24          	movaps (%rsp),%xmm0
    559f:	0f 11 03             	movups %xmm0,(%rbx)
    55a2:	89 6b 30             	mov    %ebp,0x30(%rbx)
    55a5:	48 81 c4 98 00 00 00 	add    $0x98,%rsp
    55ac:	5b                   	pop    %rbx
    55ad:	5d                   	pop    %rbp
    55ae:	c3                   	retq   
    55af:	be 80 00 00 00       	mov    $0x80,%esi
    55b4:	e8 97 26 00 00       	callq  7c50 <_ZN4core5slice22slice_index_order_fail17h7bcf2f94ba9e06deE>
    55b9:	0f 0b                	ud2    
    55bb:	0f 1f 44 00 00       	nopl   0x0(%rax,%rax,1)

00000000000055c0 <_ZN9backtrace9symbolize6Symbol4name17h05b3ddd11e7b9af9E>:
    55c0:	41 57                	push   %r15
    55c2:	41 56                	push   %r14
    55c4:	53                   	push   %rbx
    55c5:	48 81 ec 00 01 00 00 	sub    $0x100,%rsp
    55cc:	48 89 fb             	mov    %rdi,%rbx
    55cf:	8b 06                	mov    (%rsi),%eax
    55d1:	48 85 c0             	test   %rax,%rax
    55d4:	0f 84 fe 00 00 00    	je     56d8 <_ZN9backtrace9symbolize6Symbol4name17h05b3ddd11e7b9af9E+0x118>
    55da:	48 83 f8 01          	cmp    $0x1,%rax
    55de:	0f 84 0e 01 00 00    	je     56f2 <_ZN9backtrace9symbolize6Symbol4name17h05b3ddd11e7b9af9E+0x132>
    55e4:	4c 8b 76 18          	mov    0x18(%rsi),%r14
    55e8:	4d 85 f6             	test   %r14,%r14
    55eb:	0f 84 f4 00 00 00    	je     56e5 <_ZN9backtrace9symbolize6Symbol4name17h05b3ddd11e7b9af9E+0x125>
    55f1:	4c 89 f7             	mov    %r14,%rdi
    55f4:	ff 15 1e 28 24 00    	callq  *0x24281e(%rip)        # 247e18 <strlen@GLIBC_2.2.5>
    55fa:	49 89 c7             	mov    %rax,%r15
    55fd:	48 89 e7             	mov    %rsp,%rdi
    5600:	4c 89 f6             	mov    %r14,%rsi
    5603:	48 89 c2             	mov    %rax,%rdx
    5606:	e8 55 61 00 00       	callq  b760 <_ZN4core3str9from_utf817ha5f1d279f7594d61E>
    560b:	48 83 3c 24 01       	cmpq   $0x1,(%rsp)
    5610:	b8 03 00 00 00       	mov    $0x3,%eax
    5615:	74 51                	je     5668 <_ZN9backtrace9symbolize6Symbol4name17h05b3ddd11e7b9af9E+0xa8>
    5617:	48 8b 74 24 08       	mov    0x8(%rsp),%rsi
    561c:	48 85 f6             	test   %rsi,%rsi
    561f:	74 47                	je     5668 <_ZN9backtrace9symbolize6Symbol4name17h05b3ddd11e7b9af9E+0xa8>
    5621:	48 8b 54 24 10       	mov    0x10(%rsp),%rdx
    5626:	48 89 e7             	mov    %rsp,%rdi
    5629:	e8 d2 c6 01 00       	callq  21d00 <_ZN14rustc_demangle12try_demangle17hf842abb1db86492cE>
    562e:	48 8b 0c 24          	mov    (%rsp),%rcx
    5632:	b8 03 00 00 00       	mov    $0x3,%eax
    5637:	48 83 f9 03          	cmp    $0x3,%rcx
    563b:	74 2b                	je     5668 <_ZN9backtrace9symbolize6Symbol4name17h05b3ddd11e7b9af9E+0xa8>
    563d:	48 8b 44 24 38       	mov    0x38(%rsp),%rax
    5642:	48 89 44 24 70       	mov    %rax,0x70(%rsp)
    5647:	0f 10 44 24 08       	movups 0x8(%rsp),%xmm0
    564c:	0f 10 4c 24 18       	movups 0x18(%rsp),%xmm1
    5651:	0f 10 54 24 28       	movups 0x28(%rsp),%xmm2
    5656:	0f 29 54 24 60       	movaps %xmm2,0x60(%rsp)
    565b:	0f 29 4c 24 50       	movaps %xmm1,0x50(%rsp)
    5660:	0f 29 44 24 40       	movaps %xmm0,0x40(%rsp)
    5665:	48 89 c8             	mov    %rcx,%rax
    5668:	48 8b 4c 24 70       	mov    0x70(%rsp),%rcx
    566d:	48 89 8c 24 b0 00 00 	mov    %rcx,0xb0(%rsp)
    5674:	00 
    5675:	0f 28 44 24 40       	movaps 0x40(%rsp),%xmm0
    567a:	0f 28 4c 24 50       	movaps 0x50(%rsp),%xmm1
    567f:	0f 28 54 24 60       	movaps 0x60(%rsp),%xmm2
    5684:	0f 29 94 24 a0 00 00 	movaps %xmm2,0xa0(%rsp)
    568b:	00 
    568c:	0f 29 8c 24 90 00 00 	movaps %xmm1,0x90(%rsp)
    5693:	00 
    5694:	0f 29 84 24 80 00 00 	movaps %xmm0,0x80(%rsp)
    569b:	00 
    569c:	4c 89 33             	mov    %r14,(%rbx)
    569f:	4c 89 7b 08          	mov    %r15,0x8(%rbx)
    56a3:	48 89 43 10          	mov    %rax,0x10(%rbx)
    56a7:	0f 28 84 24 80 00 00 	movaps 0x80(%rsp),%xmm0
    56ae:	00 
    56af:	0f 28 8c 24 90 00 00 	movaps 0x90(%rsp),%xmm1
    56b6:	00 
    56b7:	0f 28 94 24 a0 00 00 	movaps 0xa0(%rsp),%xmm2
    56be:	00 
    56bf:	0f 11 43 18          	movups %xmm0,0x18(%rbx)
    56c3:	0f 11 4b 28          	movups %xmm1,0x28(%rbx)
    56c7:	0f 11 53 38          	movups %xmm2,0x38(%rbx)
    56cb:	48 8b 84 24 b0 00 00 	mov    0xb0(%rsp),%rax
    56d2:	00 
    56d3:	e9 11 01 00 00       	jmpq   57e9 <_ZN9backtrace9symbolize6Symbol4name17h05b3ddd11e7b9af9E+0x229>
    56d8:	4c 8b 76 10          	mov    0x10(%rsi),%r14
    56dc:	4d 85 f6             	test   %r14,%r14
    56df:	0f 85 0c ff ff ff    	jne    55f1 <_ZN9backtrace9symbolize6Symbol4name17h05b3ddd11e7b9af9E+0x31>
    56e5:	48 c7 43 10 04 00 00 	movq   $0x4,0x10(%rbx)
    56ec:	00 
    56ed:	e9 fb 00 00 00       	jmpq   57ed <_ZN9backtrace9symbolize6Symbol4name17h05b3ddd11e7b9af9E+0x22d>
    56f2:	4c 8b 76 18          	mov    0x18(%rsi),%r14
    56f6:	4d 85 f6             	test   %r14,%r14
    56f9:	0f 84 fb 00 00 00    	je     57fa <_ZN9backtrace9symbolize6Symbol4name17h05b3ddd11e7b9af9E+0x23a>
    56ff:	4c 89 f7             	mov    %r14,%rdi
    5702:	ff 15 10 27 24 00    	callq  *0x242710(%rip)        # 247e18 <strlen@GLIBC_2.2.5>
    5708:	49 89 c7             	mov    %rax,%r15
    570b:	48 89 e7             	mov    %rsp,%rdi
    570e:	4c 89 f6             	mov    %r14,%rsi
    5711:	48 89 c2             	mov    %rax,%rdx
    5714:	e8 47 60 00 00       	callq  b760 <_ZN4core3str9from_utf817ha5f1d279f7594d61E>
    5719:	48 83 3c 24 01       	cmpq   $0x1,(%rsp)
    571e:	b8 03 00 00 00       	mov    $0x3,%eax
    5723:	74 51                	je     5776 <_ZN9backtrace9symbolize6Symbol4name17h05b3ddd11e7b9af9E+0x1b6>
    5725:	48 8b 74 24 08       	mov    0x8(%rsp),%rsi
    572a:	48 85 f6             	test   %rsi,%rsi
    572d:	74 47                	je     5776 <_ZN9backtrace9symbolize6Symbol4name17h05b3ddd11e7b9af9E+0x1b6>
    572f:	48 8b 54 24 10       	mov    0x10(%rsp),%rdx
    5734:	48 89 e7             	mov    %rsp,%rdi
    5737:	e8 c4 c5 01 00       	callq  21d00 <_ZN14rustc_demangle12try_demangle17hf842abb1db86492cE>
    573c:	48 8b 0c 24          	mov    (%rsp),%rcx
    5740:	b8 03 00 00 00       	mov    $0x3,%eax
    5745:	48 83 f9 03          	cmp    $0x3,%rcx
    5749:	74 2b                	je     5776 <_ZN9backtrace9symbolize6Symbol4name17h05b3ddd11e7b9af9E+0x1b6>
    574b:	48 8b 44 24 38       	mov    0x38(%rsp),%rax
    5750:	48 89 44 24 70       	mov    %rax,0x70(%rsp)
    5755:	0f 10 44 24 08       	movups 0x8(%rsp),%xmm0
    575a:	0f 10 4c 24 18       	movups 0x18(%rsp),%xmm1
    575f:	0f 10 54 24 28       	movups 0x28(%rsp),%xmm2
    5764:	0f 29 54 24 60       	movaps %xmm2,0x60(%rsp)
    5769:	0f 29 4c 24 50       	movaps %xmm1,0x50(%rsp)
    576e:	0f 29 44 24 40       	movaps %xmm0,0x40(%rsp)
    5773:	48 89 c8             	mov    %rcx,%rax
    5776:	48 8b 4c 24 70       	mov    0x70(%rsp),%rcx
    577b:	48 89 8c 24 b0 00 00 	mov    %rcx,0xb0(%rsp)
    5782:	00 
    5783:	0f 28 44 24 40       	movaps 0x40(%rsp),%xmm0
    5788:	0f 28 4c 24 50       	movaps 0x50(%rsp),%xmm1
    578d:	0f 28 54 24 60       	movaps 0x60(%rsp),%xmm2
    5792:	0f 29 84 24 c0 00 00 	movaps %xmm0,0xc0(%rsp)
    5799:	00 
    579a:	0f 29 8c 24 d0 00 00 	movaps %xmm1,0xd0(%rsp)
    57a1:	00 
    57a2:	0f 29 94 24 e0 00 00 	movaps %xmm2,0xe0(%rsp)
    57a9:	00 
    57aa:	48 89 8c 24 f0 00 00 	mov    %rcx,0xf0(%rsp)
    57b1:	00 
    57b2:	4c 89 33             	mov    %r14,(%rbx)
    57b5:	4c 89 7b 08          	mov    %r15,0x8(%rbx)
    57b9:	48 89 43 10          	mov    %rax,0x10(%rbx)
    57bd:	0f 28 84 24 c0 00 00 	movaps 0xc0(%rsp),%xmm0
    57c4:	00 
    57c5:	0f 28 8c 24 d0 00 00 	movaps 0xd0(%rsp),%xmm1
    57cc:	00 
    57cd:	0f 28 94 24 e0 00 00 	movaps 0xe0(%rsp),%xmm2
    57d4:	00 
    57d5:	0f 11 43 18          	movups %xmm0,0x18(%rbx)
    57d9:	0f 11 4b 28          	movups %xmm1,0x28(%rbx)
    57dd:	0f 11 53 38          	movups %xmm2,0x38(%rbx)
    57e1:	48 8b 84 24 f0 00 00 	mov    0xf0(%rsp),%rax
    57e8:	00 
    57e9:	48 89 43 48          	mov    %rax,0x48(%rbx)
    57ed:	48 81 c4 00 01 00 00 	add    $0x100,%rsp
    57f4:	5b                   	pop    %rbx
    57f5:	41 5e                	pop    %r14
    57f7:	41 5f                	pop    %r15
    57f9:	c3                   	retq   
    57fa:	4c 8b 76 20          	mov    0x20(%rsi),%r14
    57fe:	4d 85 f6             	test   %r14,%r14
    5801:	0f 85 ea fd ff ff    	jne    55f1 <_ZN9backtrace9symbolize6Symbol4name17h05b3ddd11e7b9af9E+0x31>
    5807:	e9 d9 fe ff ff       	jmpq   56e5 <_ZN9backtrace9symbolize6Symbol4name17h05b3ddd11e7b9af9E+0x125>
    580c:	0f 1f 40 00          	nopl   0x0(%rax)

0000000000005810 <_ZN9backtrace5print17BacktraceFrameFmt9print_raw17h69930da516f47357E>:
    5810:	55                   	push   %rbp
    5811:	41 57                	push   %r15
    5813:	41 56                	push   %r14
    5815:	41 55                	push   %r13
    5817:	41 54                	push   %r12
    5819:	53                   	push   %rbx
    581a:	48 81 ec 58 01 00 00 	sub    $0x158,%rsp
    5821:	45 89 ce             	mov    %r9d,%r14d
    5824:	45 89 c4             	mov    %r8d,%r12d
    5827:	48 89 fb             	mov    %rdi,%rbx
    582a:	0f 10 02             	movups (%rdx),%xmm0
    582d:	0f 29 84 24 30 01 00 	movaps %xmm0,0x130(%rsp)
    5834:	00 
    5835:	48 8b 6a 10          	mov    0x10(%rdx),%rbp
    5839:	0f 10 42 28          	movups 0x28(%rdx),%xmm0
    583d:	0f 29 84 24 00 01 00 	movaps %xmm0,0x100(%rsp)
    5844:	00 
    5845:	0f 10 42 38          	movups 0x38(%rdx),%xmm0
    5849:	0f 29 84 24 10 01 00 	movaps %xmm0,0x110(%rsp)
    5850:	00 
    5851:	48 8b 42 48          	mov    0x48(%rdx),%rax
    5855:	48 89 84 24 20 01 00 	mov    %rax,0x120(%rsp)
    585c:	00 
    585d:	0f 10 42 18          	movups 0x18(%rdx),%xmm0
    5861:	0f 29 84 24 f0 00 00 	movaps %xmm0,0xf0(%rsp)
    5868:	00 
    5869:	4c 8b 39             	mov    (%rcx),%r15
    586c:	f3 0f 6f 41 08       	movdqu 0x8(%rcx),%xmm0
    5871:	66 0f 7f 84 24 40 01 	movdqa %xmm0,0x140(%rsp)
    5878:	00 00 
    587a:	48 89 b4 24 e8 00 00 	mov    %rsi,0xe8(%rsp)
    5881:	00 
    5882:	48 8b 07             	mov    (%rdi),%rax
    5885:	48 85 f6             	test   %rsi,%rsi
    5888:	75 12                	jne    589c <_ZN9backtrace5print17BacktraceFrameFmt9print_raw17h69930da516f47357E+0x8c>
    588a:	80 78 20 00          	cmpb   $0x0,0x20(%rax)
    588e:	75 0c                	jne    589c <_ZN9backtrace5print17BacktraceFrameFmt9print_raw17h69930da516f47357E+0x8c>
    5890:	48 83 43 08 01       	addq   $0x1,0x8(%rbx)
    5895:	31 c0                	xor    %eax,%eax
    5897:	e9 1f 04 00 00       	jmpq   5cbb <_ZN9backtrace5print17BacktraceFrameFmt9print_raw17h69930da516f47357E+0x4ab>
    589c:	48 83 7b 08 00       	cmpq   $0x0,0x8(%rbx)
    58a1:	48 8b 08             	mov    (%rax),%rcx
    58a4:	0f 84 d7 00 00 00    	je     5981 <_ZN9backtrace5print17BacktraceFrameFmt9print_raw17h69930da516f47357E+0x171>
    58aa:	48 8b 79 20          	mov    0x20(%rcx),%rdi
    58ae:	48 8b 71 28          	mov    0x28(%rcx),%rsi
    58b2:	48 8d 05 ff 07 24 00 	lea    0x2407ff(%rip),%rax        # 2460b8 <__init_array_end+0xa8>
    58b9:	48 89 04 24          	mov    %rax,(%rsp)
    58bd:	48 c7 44 24 08 01 00 	movq   $0x1,0x8(%rsp)
    58c4:	00 00 
    58c6:	48 c7 44 24 10 00 00 	movq   $0x0,0x10(%rsp)
    58cd:	00 00 
    58cf:	48 8d 05 62 7b 03 00 	lea    0x37b62(%rip),%rax        # 3d438 <_ZN4core7unicode12unicode_data2cc6BITSET17h5201257bcf8f09faE+0xad8>
    58d6:	48 89 44 24 20       	mov    %rax,0x20(%rsp)
    58db:	48 c7 44 24 28 00 00 	movq   $0x0,0x28(%rsp)
    58e2:	00 00 
    58e4:	48 89 e2             	mov    %rsp,%rdx
    58e7:	e8 44 31 00 00       	callq  8a30 <_ZN4core3fmt5write17h0db54a985afb558eE>
    58ec:	84 c0                	test   %al,%al
    58ee:	0f 85 c5 03 00 00    	jne    5cb9 <_ZN9backtrace5print17BacktraceFrameFmt9print_raw17h69930da516f47357E+0x4a9>
    58f4:	48 8b 03             	mov    (%rbx),%rax
    58f7:	80 78 20 01          	cmpb   $0x1,0x20(%rax)
    58fb:	0f 85 83 01 00 00    	jne    5a84 <_ZN9backtrace5print17BacktraceFrameFmt9print_raw17h69930da516f47357E+0x274>
    5901:	48 8b 00             	mov    (%rax),%rax
    5904:	48 8d 0d f5 f9 01 00 	lea    0x1f9f5(%rip),%rcx        # 25300 <_ZN44_$LT$$RF$T$u20$as$u20$core..fmt..Display$GT$3fmt17h9716022a15e5b13cE>
    590b:	66 48 0f 6e c1       	movq   %rcx,%xmm0
    5910:	48 8d 0d 89 18 24 00 	lea    0x241889(%rip),%rcx        # 2471a0 <__init_array_end+0x1190>
    5917:	66 48 0f 6e c9       	movq   %rcx,%xmm1
    591c:	66 0f 6c c8          	punpcklqdq %xmm0,%xmm1
    5920:	66 0f 7f 4c 24 60    	movdqa %xmm1,0x60(%rsp)
    5926:	48 8d 15 b3 33 00 00 	lea    0x33b3(%rip),%rdx        # 8ce0 <_ZN4core3fmt10ArgumentV110show_usize17h2a88cb8749ea423eE>
    592d:	66 48 0f 6e c2       	movq   %rdx,%xmm0
    5932:	48 8d 15 bf 4d 03 00 	lea    0x34dbf(%rip),%rdx        # 3a6f8 <_ZN4core7unicode12unicode_data2cc19BITSET_INDEX_CHUNKS17h8a1f39cd536e9344E+0x238>
    5939:	66 48 0f 6e ca       	movq   %rdx,%xmm1
    593e:	66 0f 6c c8          	punpcklqdq %xmm0,%xmm1
    5942:	66 0f 7f 4c 24 70    	movdqa %xmm1,0x70(%rsp)
    5948:	48 8b 78 20          	mov    0x20(%rax),%rdi
    594c:	48 8b 70 28          	mov    0x28(%rax),%rsi
    5950:	48 89 0c 24          	mov    %rcx,(%rsp)
    5954:	48 c7 44 24 08 01 00 	movq   $0x1,0x8(%rsp)
    595b:	00 00 
    595d:	48 8d 05 f4 55 03 00 	lea    0x355f4(%rip),%rax        # 3af58 <_ZN4core7unicode12unicode_data2cc19BITSET_INDEX_CHUNKS17h8a1f39cd536e9344E+0xa98>
    5964:	48 89 44 24 10       	mov    %rax,0x10(%rsp)
    5969:	48 c7 44 24 18 01 00 	movq   $0x1,0x18(%rsp)
    5970:	00 00 
    5972:	48 8d 44 24 60       	lea    0x60(%rsp),%rax
    5977:	48 89 44 24 20       	mov    %rax,0x20(%rsp)
    597c:	e9 ea 00 00 00       	jmpq   5a6b <_ZN9backtrace5print17BacktraceFrameFmt9print_raw17h69930da516f47357E+0x25b>
    5981:	48 83 c0 08          	add    $0x8,%rax
    5985:	48 89 44 24 60       	mov    %rax,0x60(%rsp)
    598a:	48 8d 05 ef 1a 00 00 	lea    0x1aef(%rip),%rax        # 7480 <_ZN4core3fmt3num3imp52_$LT$impl$u20$core..fmt..Display$u20$for$u20$u64$GT$3fmt17h29103e8b1c853837E>
    5991:	48 89 44 24 68       	mov    %rax,0x68(%rsp)
    5996:	48 8b 79 20          	mov    0x20(%rcx),%rdi
    599a:	48 8b 71 28          	mov    0x28(%rcx),%rsi
    599e:	48 8d 05 a3 0c 24 00 	lea    0x240ca3(%rip),%rax        # 246648 <__init_array_end+0x638>
    59a5:	48 89 04 24          	mov    %rax,(%rsp)
    59a9:	48 c7 44 24 08 02 00 	movq   $0x2,0x8(%rsp)
    59b0:	00 00 
    59b2:	48 8d 05 67 55 03 00 	lea    0x35567(%rip),%rax        # 3af20 <_ZN4core7unicode12unicode_data2cc19BITSET_INDEX_CHUNKS17h8a1f39cd536e9344E+0xa60>
    59b9:	48 89 44 24 10       	mov    %rax,0x10(%rsp)
    59be:	48 c7 44 24 18 01 00 	movq   $0x1,0x18(%rsp)
    59c5:	00 00 
    59c7:	4c 8d 6c 24 60       	lea    0x60(%rsp),%r13
    59cc:	4c 89 6c 24 20       	mov    %r13,0x20(%rsp)
    59d1:	48 c7 44 24 28 01 00 	movq   $0x1,0x28(%rsp)
    59d8:	00 00 
    59da:	48 89 e2             	mov    %rsp,%rdx
    59dd:	e8 4e 30 00 00       	callq  8a30 <_ZN4core3fmt5write17h0db54a985afb558eE>
    59e2:	84 c0                	test   %al,%al
    59e4:	0f 85 cf 02 00 00    	jne    5cb9 <_ZN9backtrace5print17BacktraceFrameFmt9print_raw17h69930da516f47357E+0x4a9>
    59ea:	48 8b 03             	mov    (%rbx),%rax
    59ed:	80 78 20 01          	cmpb   $0x1,0x20(%rax)
    59f1:	0f 85 8d 00 00 00    	jne    5a84 <_ZN9backtrace5print17BacktraceFrameFmt9print_raw17h69930da516f47357E+0x274>
    59f7:	48 8b 00             	mov    (%rax),%rax
    59fa:	48 8d 8c 24 e8 00 00 	lea    0xe8(%rsp),%rcx
    5a01:	00 
    5a02:	48 89 4c 24 60       	mov    %rcx,0x60(%rsp)
    5a07:	48 8d 0d e2 4c 03 00 	lea    0x34ce2(%rip),%rcx        # 3a6f0 <_ZN4core7unicode12unicode_data2cc19BITSET_INDEX_CHUNKS17h8a1f39cd536e9344E+0x230>
    5a0e:	66 48 0f 6e c1       	movq   %rcx,%xmm0
    5a13:	48 8d 0d d6 fa ff ff 	lea    -0x52a(%rip),%rcx        # 54f0 <_ZN50_$LT$$BP$mut$u20$T$u20$as$u20$core..fmt..Debug$GT$3fmt17h0c22205dba98029aE>
    5a1a:	66 48 0f 6e c9       	movq   %rcx,%xmm1
    5a1f:	66 0f 6c c8          	punpcklqdq %xmm0,%xmm1
    5a23:	f3 0f 7f 4c 24 68    	movdqu %xmm1,0x68(%rsp)
    5a29:	48 8d 0d b0 32 00 00 	lea    0x32b0(%rip),%rcx        # 8ce0 <_ZN4core3fmt10ArgumentV110show_usize17h2a88cb8749ea423eE>
    5a30:	48 89 4c 24 78       	mov    %rcx,0x78(%rsp)
    5a35:	48 8b 78 20          	mov    0x20(%rax),%rdi
    5a39:	48 8b 70 28          	mov    0x28(%rax),%rsi
    5a3d:	48 8d 05 84 06 24 00 	lea    0x240684(%rip),%rax        # 2460c8 <__init_array_end+0xb8>
    5a44:	48 89 04 24          	mov    %rax,(%rsp)
    5a48:	48 c7 44 24 08 02 00 	movq   $0x2,0x8(%rsp)
    5a4f:	00 00 
    5a51:	48 8d 05 00 55 03 00 	lea    0x35500(%rip),%rax        # 3af58 <_ZN4core7unicode12unicode_data2cc19BITSET_INDEX_CHUNKS17h8a1f39cd536e9344E+0xa98>
    5a58:	48 89 44 24 10       	mov    %rax,0x10(%rsp)
    5a5d:	48 c7 44 24 18 01 00 	movq   $0x1,0x18(%rsp)
    5a64:	00 00 
    5a66:	4c 89 6c 24 20       	mov    %r13,0x20(%rsp)
    5a6b:	48 c7 44 24 28 02 00 	movq   $0x2,0x28(%rsp)
    5a72:	00 00 
    5a74:	48 89 e2             	mov    %rsp,%rdx
    5a77:	e8 b4 2f 00 00       	callq  8a30 <_ZN4core3fmt5write17h0db54a985afb558eE>
    5a7c:	84 c0                	test   %al,%al
    5a7e:	0f 85 35 02 00 00    	jne    5cb9 <_ZN9backtrace5print17BacktraceFrameFmt9print_raw17h69930da516f47357E+0x4a9>
    5a84:	0f 28 84 24 30 01 00 	movaps 0x130(%rsp),%xmm0
    5a8b:	00 
    5a8c:	0f 29 84 24 a0 00 00 	movaps %xmm0,0xa0(%rsp)
    5a93:	00 
    5a94:	48 8b 84 24 20 01 00 	mov    0x120(%rsp),%rax
    5a9b:	00 
    5a9c:	48 89 84 24 90 00 00 	mov    %rax,0x90(%rsp)
    5aa3:	00 
    5aa4:	66 0f 6f 84 24 f0 00 	movdqa 0xf0(%rsp),%xmm0
    5aab:	00 00 
    5aad:	66 0f 6f 8c 24 00 01 	movdqa 0x100(%rsp),%xmm1
    5ab4:	00 00 
    5ab6:	0f 28 94 24 10 01 00 	movaps 0x110(%rsp),%xmm2
    5abd:	00 
    5abe:	0f 29 94 24 80 00 00 	movaps %xmm2,0x80(%rsp)
    5ac5:	00 
    5ac6:	66 0f 7f 4c 24 70    	movdqa %xmm1,0x70(%rsp)
    5acc:	66 0f 7f 44 24 60    	movdqa %xmm0,0x60(%rsp)
    5ad2:	48 8b 03             	mov    (%rbx),%rax
    5ad5:	48 83 fd 04          	cmp    $0x4,%rbp
    5ad9:	0f 84 b4 00 00 00    	je     5b93 <_ZN9backtrace5print17BacktraceFrameFmt9print_raw17h69930da516f47357E+0x383>
    5adf:	0f b6 48 20          	movzbl 0x20(%rax),%ecx
    5ae3:	48 83 f9 01          	cmp    $0x1,%rcx
    5ae7:	0f 84 f8 00 00 00    	je     5be5 <_ZN9backtrace5print17BacktraceFrameFmt9print_raw17h69930da516f47357E+0x3d5>
    5aed:	48 85 c9             	test   %rcx,%rcx
    5af0:	0f 85 9d 00 00 00    	jne    5b93 <_ZN9backtrace5print17BacktraceFrameFmt9print_raw17h69930da516f47357E+0x383>
    5af6:	0f 28 84 24 a0 00 00 	movaps 0xa0(%rsp),%xmm0
    5afd:	00 
    5afe:	0f 29 04 24          	movaps %xmm0,(%rsp)
    5b02:	48 89 6c 24 10       	mov    %rbp,0x10(%rsp)
    5b07:	66 0f 6f 44 24 60    	movdqa 0x60(%rsp),%xmm0
    5b0d:	66 0f 6f 4c 24 70    	movdqa 0x70(%rsp),%xmm1
    5b13:	0f 28 94 24 80 00 00 	movaps 0x80(%rsp),%xmm2
    5b1a:	00 
    5b1b:	f3 0f 7f 44 24 18    	movdqu %xmm0,0x18(%rsp)
    5b21:	f3 0f 7f 4c 24 28    	movdqu %xmm1,0x28(%rsp)
    5b27:	0f 11 54 24 38       	movups %xmm2,0x38(%rsp)
    5b2c:	48 8b 8c 24 90 00 00 	mov    0x90(%rsp),%rcx
    5b33:	00 
    5b34:	48 89 4c 24 48       	mov    %rcx,0x48(%rsp)
    5b39:	48 8b 00             	mov    (%rax),%rax
    5b3c:	48 89 e1             	mov    %rsp,%rcx
    5b3f:	48 89 4c 24 50       	mov    %rcx,0x50(%rsp)
    5b44:	48 8d 0d 55 03 00 00 	lea    0x355(%rip),%rcx        # 5ea0 <_ZN71_$LT$backtrace..symbolize..SymbolName$u20$as$u20$core..fmt..Display$GT$3fmt17h17077a10756a9dedE>
    5b4b:	48 89 4c 24 58       	mov    %rcx,0x58(%rsp)
    5b50:	48 8b 78 20          	mov    0x20(%rax),%rdi
    5b54:	48 8b 70 28          	mov    0x28(%rax),%rsi
    5b58:	48 8d 05 41 16 24 00 	lea    0x241641(%rip),%rax        # 2471a0 <__init_array_end+0x1190>
    5b5f:	48 89 84 24 b0 00 00 	mov    %rax,0xb0(%rsp)
    5b66:	00 
    5b67:	48 c7 84 24 b8 00 00 	movq   $0x1,0xb8(%rsp)
    5b6e:	00 01 00 00 00 
    5b73:	48 8d 05 16 54 03 00 	lea    0x35416(%rip),%rax        # 3af90 <_ZN4core7unicode12unicode_data2cc19BITSET_INDEX_CHUNKS17h8a1f39cd536e9344E+0xad0>
    5b7a:	48 89 84 24 c0 00 00 	mov    %rax,0xc0(%rsp)
    5b81:	00 
    5b82:	48 c7 84 24 c8 00 00 	movq   $0x1,0xc8(%rsp)
    5b89:	00 01 00 00 00 
    5b8e:	e9 db 00 00 00       	jmpq   5c6e <_ZN9backtrace5print17BacktraceFrameFmt9print_raw17h69930da516f47357E+0x45e>
    5b93:	48 8b 00             	mov    (%rax),%rax
    5b96:	48 8b 78 20          	mov    0x20(%rax),%rdi
    5b9a:	48 8b 70 28          	mov    0x28(%rax),%rsi
    5b9e:	48 8d 05 43 05 24 00 	lea    0x240543(%rip),%rax        # 2460e8 <__init_array_end+0xd8>
    5ba5:	48 89 04 24          	mov    %rax,(%rsp)
    5ba9:	48 c7 44 24 08 01 00 	movq   $0x1,0x8(%rsp)
    5bb0:	00 00 
    5bb2:	48 c7 44 24 10 00 00 	movq   $0x0,0x10(%rsp)
    5bb9:	00 00 
    5bbb:	48 8d 05 76 78 03 00 	lea    0x37876(%rip),%rax        # 3d438 <_ZN4core7unicode12unicode_data2cc6BITSET17h5201257bcf8f09faE+0xad8>
    5bc2:	48 89 44 24 20       	mov    %rax,0x20(%rsp)
    5bc7:	48 c7 44 24 28 00 00 	movq   $0x0,0x28(%rsp)
    5bce:	00 00 
    5bd0:	48 89 e2             	mov    %rsp,%rdx
    5bd3:	e8 58 2e 00 00       	callq  8a30 <_ZN4core3fmt5write17h0db54a985afb558eE>
    5bd8:	84 c0                	test   %al,%al
    5bda:	0f 84 b8 00 00 00    	je     5c98 <_ZN9backtrace5print17BacktraceFrameFmt9print_raw17h69930da516f47357E+0x488>
    5be0:	e9 d4 00 00 00       	jmpq   5cb9 <_ZN9backtrace5print17BacktraceFrameFmt9print_raw17h69930da516f47357E+0x4a9>
    5be5:	0f 28 84 24 a0 00 00 	movaps 0xa0(%rsp),%xmm0
    5bec:	00 
    5bed:	0f 29 04 24          	movaps %xmm0,(%rsp)
    5bf1:	48 89 6c 24 10       	mov    %rbp,0x10(%rsp)
    5bf6:	66 0f 6f 44 24 60    	movdqa 0x60(%rsp),%xmm0
    5bfc:	66 0f 6f 4c 24 70    	movdqa 0x70(%rsp),%xmm1
    5c02:	0f 28 94 24 80 00 00 	movaps 0x80(%rsp),%xmm2
    5c09:	00 
    5c0a:	f3 0f 7f 44 24 18    	movdqu %xmm0,0x18(%rsp)
    5c10:	f3 0f 7f 4c 24 28    	movdqu %xmm1,0x28(%rsp)
    5c16:	0f 11 54 24 38       	movups %xmm2,0x38(%rsp)
    5c1b:	48 8b 8c 24 90 00 00 	mov    0x90(%rsp),%rcx
    5c22:	00 
    5c23:	48 89 4c 24 48       	mov    %rcx,0x48(%rsp)
    5c28:	48 8b 00             	mov    (%rax),%rax
    5c2b:	48 89 e1             	mov    %rsp,%rcx
    5c2e:	48 89 4c 24 50       	mov    %rcx,0x50(%rsp)
    5c33:	48 8d 0d 66 02 00 00 	lea    0x266(%rip),%rcx        # 5ea0 <_ZN71_$LT$backtrace..symbolize..SymbolName$u20$as$u20$core..fmt..Display$GT$3fmt17h17077a10756a9dedE>
    5c3a:	48 89 4c 24 58       	mov    %rcx,0x58(%rsp)
    5c3f:	48 8b 78 20          	mov    0x20(%rax),%rdi
    5c43:	48 8b 70 28          	mov    0x28(%rax),%rsi
    5c47:	48 8d 05 52 15 24 00 	lea    0x241552(%rip),%rax        # 2471a0 <__init_array_end+0x1190>
    5c4e:	48 89 84 24 b0 00 00 	mov    %rax,0xb0(%rsp)
    5c55:	00 
    5c56:	48 c7 84 24 b8 00 00 	movq   $0x1,0xb8(%rsp)
    5c5d:	00 01 00 00 00 
    5c62:	48 c7 84 24 c0 00 00 	movq   $0x0,0xc0(%rsp)
    5c69:	00 00 00 00 00 
    5c6e:	48 8d 44 24 50       	lea    0x50(%rsp),%rax
    5c73:	48 89 84 24 d0 00 00 	mov    %rax,0xd0(%rsp)
    5c7a:	00 
    5c7b:	48 c7 84 24 d8 00 00 	movq   $0x1,0xd8(%rsp)
    5c82:	00 01 00 00 00 
    5c87:	48 8d 94 24 b0 00 00 	lea    0xb0(%rsp),%rdx
    5c8e:	00 
    5c8f:	e8 9c 2d 00 00       	callq  8a30 <_ZN4core3fmt5write17h0db54a985afb558eE>
    5c94:	84 c0                	test   %al,%al
    5c96:	75 21                	jne    5cb9 <_ZN9backtrace5print17BacktraceFrameFmt9print_raw17h69930da516f47357E+0x4a9>
    5c98:	48 8b 03             	mov    (%rbx),%rax
    5c9b:	48 8b 00             	mov    (%rax),%rax
    5c9e:	48 8b 78 20          	mov    0x20(%rax),%rdi
    5ca2:	48 8b 40 28          	mov    0x28(%rax),%rax
    5ca6:	48 8d 35 18 78 03 00 	lea    0x37818(%rip),%rsi        # 3d4c5 <_ZN4core7unicode12unicode_data2cc6BITSET17h5201257bcf8f09faE+0xb65>
    5cad:	ba 01 00 00 00       	mov    $0x1,%edx
    5cb2:	ff 50 18             	callq  *0x18(%rax)
    5cb5:	84 c0                	test   %al,%al
    5cb7:	74 14                	je     5ccd <_ZN9backtrace5print17BacktraceFrameFmt9print_raw17h69930da516f47357E+0x4bd>
    5cb9:	b0 01                	mov    $0x1,%al
    5cbb:	48 81 c4 58 01 00 00 	add    $0x158,%rsp
    5cc2:	5b                   	pop    %rbx
    5cc3:	41 5c                	pop    %r12
    5cc5:	41 5d                	pop    %r13
    5cc7:	41 5e                	pop    %r14
    5cc9:	41 5f                	pop    %r15
    5ccb:	5d                   	pop    %rbp
    5ccc:	c3                   	retq   
    5ccd:	66 0f 6f 84 24 40 01 	movdqa 0x140(%rsp),%xmm0
    5cd4:	00 00 
    5cd6:	66 0f 7f 44 24 50    	movdqa %xmm0,0x50(%rsp)
    5cdc:	41 83 fc 01          	cmp    $0x1,%r12d
    5ce0:	0f 85 aa fb ff ff    	jne    5890 <_ZN9backtrace5print17BacktraceFrameFmt9print_raw17h69930da516f47357E+0x80>
    5ce6:	49 83 ff 02          	cmp    $0x2,%r15
    5cea:	0f 84 a0 fb ff ff    	je     5890 <_ZN9backtrace5print17BacktraceFrameFmt9print_raw17h69930da516f47357E+0x80>
    5cf0:	66 0f 6f 44 24 50    	movdqa 0x50(%rsp),%xmm0
    5cf6:	66 0f 7f 84 24 b0 00 	movdqa %xmm0,0xb0(%rsp)
    5cfd:	00 00 
    5cff:	44 89 b4 24 a0 00 00 	mov    %r14d,0xa0(%rsp)
    5d06:	00 
    5d07:	48 8b 03             	mov    (%rbx),%rax
    5d0a:	80 78 20 01          	cmpb   $0x1,0x20(%rax)
    5d0e:	0f 85 97 00 00 00    	jne    5dab <_ZN9backtrace5print17BacktraceFrameFmt9print_raw17h69930da516f47357E+0x59b>
    5d14:	48 8b 00             	mov    (%rax),%rax
    5d17:	48 8d 0d e2 f5 01 00 	lea    0x1f5e2(%rip),%rcx        # 25300 <_ZN44_$LT$$RF$T$u20$as$u20$core..fmt..Display$GT$3fmt17h9716022a15e5b13cE>
    5d1e:	66 48 0f 6e c1       	movq   %rcx,%xmm0
    5d23:	48 8d 0d 76 14 24 00 	lea    0x241476(%rip),%rcx        # 2471a0 <__init_array_end+0x1190>
    5d2a:	66 48 0f 6e c9       	movq   %rcx,%xmm1
    5d2f:	66 0f 6c c8          	punpcklqdq %xmm0,%xmm1
    5d33:	66 0f 7f 4c 24 60    	movdqa %xmm1,0x60(%rsp)
    5d39:	48 8d 15 a0 2f 00 00 	lea    0x2fa0(%rip),%rdx        # 8ce0 <_ZN4core3fmt10ArgumentV110show_usize17h2a88cb8749ea423eE>
    5d40:	66 48 0f 6e c2       	movq   %rdx,%xmm0
    5d45:	48 8d 15 a4 49 03 00 	lea    0x349a4(%rip),%rdx        # 3a6f0 <_ZN4core7unicode12unicode_data2cc19BITSET_INDEX_CHUNKS17h8a1f39cd536e9344E+0x230>
    5d4c:	66 48 0f 6e ca       	movq   %rdx,%xmm1
    5d51:	66 0f 6c c8          	punpcklqdq %xmm0,%xmm1
    5d55:	66 0f 7f 4c 24 70    	movdqa %xmm1,0x70(%rsp)
    5d5b:	48 8b 78 20          	mov    0x20(%rax),%rdi
    5d5f:	48 8b 70 28          	mov    0x28(%rax),%rsi
    5d63:	48 89 0c 24          	mov    %rcx,(%rsp)
    5d67:	48 c7 44 24 08 01 00 	movq   $0x1,0x8(%rsp)
    5d6e:	00 00 
    5d70:	48 8d 05 e1 51 03 00 	lea    0x351e1(%rip),%rax        # 3af58 <_ZN4core7unicode12unicode_data2cc19BITSET_INDEX_CHUNKS17h8a1f39cd536e9344E+0xa98>
    5d77:	48 89 44 24 10       	mov    %rax,0x10(%rsp)
    5d7c:	48 c7 44 24 18 01 00 	movq   $0x1,0x18(%rsp)
    5d83:	00 00 
    5d85:	48 8d 44 24 60       	lea    0x60(%rsp),%rax
    5d8a:	48 89 44 24 20       	mov    %rax,0x20(%rsp)
    5d8f:	48 c7 44 24 28 02 00 	movq   $0x2,0x28(%rsp)
    5d96:	00 00 
    5d98:	48 89 e2             	mov    %rsp,%rdx
    5d9b:	e8 90 2c 00 00       	callq  8a30 <_ZN4core3fmt5write17h0db54a985afb558eE>
    5da0:	84 c0                	test   %al,%al
    5da2:	0f 85 11 ff ff ff    	jne    5cb9 <_ZN9backtrace5print17BacktraceFrameFmt9print_raw17h69930da516f47357E+0x4a9>
    5da8:	48 8b 03             	mov    (%rbx),%rax
    5dab:	48 8b 00             	mov    (%rax),%rax
    5dae:	48 8b 78 20          	mov    0x20(%rax),%rdi
    5db2:	48 8b 70 28          	mov    0x28(%rax),%rsi
    5db6:	48 8d 05 3b 03 24 00 	lea    0x24033b(%rip),%rax        # 2460f8 <__init_array_end+0xe8>
    5dbd:	48 89 04 24          	mov    %rax,(%rsp)
    5dc1:	48 c7 44 24 08 01 00 	movq   $0x1,0x8(%rsp)
    5dc8:	00 00 
    5dca:	48 c7 44 24 10 00 00 	movq   $0x0,0x10(%rsp)
    5dd1:	00 00 
    5dd3:	48 8d 05 5e 76 03 00 	lea    0x3765e(%rip),%rax        # 3d438 <_ZN4core7unicode12unicode_data2cc6BITSET17h5201257bcf8f09faE+0xad8>
    5dda:	48 89 44 24 20       	mov    %rax,0x20(%rsp)
    5ddf:	48 c7 44 24 28 00 00 	movq   $0x0,0x28(%rsp)
    5de6:	00 00 
    5de8:	48 89 e2             	mov    %rsp,%rdx
    5deb:	e8 40 2c 00 00       	callq  8a30 <_ZN4core3fmt5write17h0db54a985afb558eE>
    5df0:	84 c0                	test   %al,%al
    5df2:	0f 85 c1 fe ff ff    	jne    5cb9 <_ZN9backtrace5print17BacktraceFrameFmt9print_raw17h69930da516f47357E+0x4a9>
    5df8:	48 8b 03             	mov    (%rbx),%rax
    5dfb:	48 8b 78 10          	mov    0x10(%rax),%rdi
    5dff:	48 8b 48 18          	mov    0x18(%rax),%rcx
    5e03:	48 8b 30             	mov    (%rax),%rsi
    5e06:	48 89 34 24          	mov    %rsi,(%rsp)
    5e0a:	48 8d 54 24 08       	lea    0x8(%rsp),%rdx
    5e0f:	4c 89 7c 24 08       	mov    %r15,0x8(%rsp)
    5e14:	66 0f 6f 84 24 b0 00 	movdqa 0xb0(%rsp),%xmm0
    5e1b:	00 00 
    5e1d:	f3 0f 7f 44 24 10    	movdqu %xmm0,0x10(%rsp)
    5e23:	ff 51 18             	callq  *0x18(%rcx)
    5e26:	84 c0                	test   %al,%al
    5e28:	0f 85 8b fe ff ff    	jne    5cb9 <_ZN9backtrace5print17BacktraceFrameFmt9print_raw17h69930da516f47357E+0x4a9>
    5e2e:	48 8b 03             	mov    (%rbx),%rax
    5e31:	48 8b 00             	mov    (%rax),%rax
    5e34:	48 8d 8c 24 a0 00 00 	lea    0xa0(%rsp),%rcx
    5e3b:	00 
    5e3c:	48 89 4c 24 60       	mov    %rcx,0x60(%rsp)
    5e41:	48 8d 0d b8 3e 00 00 	lea    0x3eb8(%rip),%rcx        # 9d00 <_ZN4core3fmt3num3imp52_$LT$impl$u20$core..fmt..Display$u20$for$u20$u32$GT$3fmt17h0d5c971f484cf42aE>
    5e48:	48 89 4c 24 68       	mov    %rcx,0x68(%rsp)
    5e4d:	48 8b 78 20          	mov    0x20(%rax),%rdi
    5e51:	48 8b 70 28          	mov    0x28(%rax),%rsi
    5e55:	48 8d 05 ac 02 24 00 	lea    0x2402ac(%rip),%rax        # 246108 <__init_array_end+0xf8>
    5e5c:	48 89 04 24          	mov    %rax,(%rsp)
    5e60:	48 c7 44 24 08 02 00 	movq   $0x2,0x8(%rsp)
    5e67:	00 00 
    5e69:	48 c7 44 24 10 00 00 	movq   $0x0,0x10(%rsp)
    5e70:	00 00 
    5e72:	48 8d 44 24 60       	lea    0x60(%rsp),%rax
    5e77:	48 89 44 24 20       	mov    %rax,0x20(%rsp)
    5e7c:	48 c7 44 24 28 01 00 	movq   $0x1,0x28(%rsp)
    5e83:	00 00 
    5e85:	48 89 e2             	mov    %rsp,%rdx
    5e88:	e8 a3 2b 00 00       	callq  8a30 <_ZN4core3fmt5write17h0db54a985afb558eE>
    5e8d:	84 c0                	test   %al,%al
    5e8f:	0f 84 fb f9 ff ff    	je     5890 <_ZN9backtrace5print17BacktraceFrameFmt9print_raw17h69930da516f47357E+0x80>
    5e95:	e9 1f fe ff ff       	jmpq   5cb9 <_ZN9backtrace5print17BacktraceFrameFmt9print_raw17h69930da516f47357E+0x4a9>
    5e9a:	66 0f 1f 44 00 00    	nopw   0x0(%rax,%rax,1)

0000000000005ea0 <_ZN71_$LT$backtrace..symbolize..SymbolName$u20$as$u20$core..fmt..Display$GT$3fmt17h17077a10756a9dedE>:
    5ea0:	55                   	push   %rbp
    5ea1:	41 57                	push   %r15
    5ea3:	41 56                	push   %r14
    5ea5:	41 55                	push   %r13
    5ea7:	41 54                	push   %r12
    5ea9:	53                   	push   %rbx
    5eaa:	48 81 ec 98 00 00 00 	sub    $0x98,%rsp
    5eb1:	48 89 74 24 28       	mov    %rsi,0x28(%rsp)
    5eb6:	48 8b 47 10          	mov    0x10(%rdi),%rax
    5eba:	48 83 f8 02          	cmp    $0x2,%rax
    5ebe:	0f 84 97 00 00 00    	je     5f5b <_ZN71_$LT$backtrace..symbolize..SymbolName$u20$as$u20$core..fmt..Display$GT$3fmt17h17077a10756a9dedE+0xbb>
    5ec4:	48 83 f8 03          	cmp    $0x3,%rax
    5ec8:	0f 85 be 00 00 00    	jne    5f8c <_ZN71_$LT$backtrace..symbolize..SymbolName$u20$as$u20$core..fmt..Display$GT$3fmt17h17077a10756a9dedE+0xec>
    5ece:	48 8b 5f 08          	mov    0x8(%rdi),%rbx
    5ed2:	48 85 db             	test   %rbx,%rbx
    5ed5:	0f 84 35 12 00 00    	je     7110 <_ZN71_$LT$backtrace..symbolize..SymbolName$u20$as$u20$core..fmt..Display$GT$3fmt17h17077a10756a9dedE+0x1270>
    5edb:	4c 8b 27             	mov    (%rdi),%r12
    5ede:	4c 8d 74 24 30       	lea    0x30(%rsp),%r14
    5ee3:	66 2e 0f 1f 84 00 00 	nopw   %cs:0x0(%rax,%rax,1)
    5eea:	00 00 00 
    5eed:	0f 1f 00             	nopl   (%rax)
    5ef0:	4c 89 f7             	mov    %r14,%rdi
    5ef3:	4c 89 e6             	mov    %r12,%rsi
    5ef6:	48 89 da             	mov    %rbx,%rdx
    5ef9:	e8 62 58 00 00       	callq  b760 <_ZN4core3str9from_utf817ha5f1d279f7594d61E>
    5efe:	48 83 7c 24 30 01    	cmpq   $0x1,0x30(%rsp)
    5f04:	0f 85 ea 11 00 00    	jne    70f4 <_ZN71_$LT$backtrace..symbolize..SymbolName$u20$as$u20$core..fmt..Display$GT$3fmt17h17077a10756a9dedE+0x1254>
    5f0a:	48 8b 6c 24 38       	mov    0x38(%rsp),%rbp
    5f0f:	44 0f b6 7c 24 40    	movzbl 0x40(%rsp),%r15d
    5f15:	44 0f b6 6c 24 41    	movzbl 0x41(%rsp),%r13d
    5f1b:	ba 03 00 00 00       	mov    $0x3,%edx
    5f20:	48 8b 7c 24 28       	mov    0x28(%rsp),%rdi
    5f25:	48 8d 35 ea 4f 03 00 	lea    0x34fea(%rip),%rsi        # 3af16 <_ZN4core7unicode12unicode_data2cc19BITSET_INDEX_CHUNKS17h8a1f39cd536e9344E+0xa56>
    5f2c:	e8 9f 1d 00 00       	callq  7cd0 <_ZN4core3fmt9Formatter3pad17h7ef001ba65c2db9cE>
    5f31:	84 c0                	test   %al,%al
    5f33:	0f 85 d3 11 00 00    	jne    710c <_ZN71_$LT$backtrace..symbolize..SymbolName$u20$as$u20$core..fmt..Display$GT$3fmt17h17077a10756a9dedE+0x126c>
    5f39:	45 84 ff             	test   %r15b,%r15b
    5f3c:	0f 84 ce 11 00 00    	je     7110 <_ZN71_$LT$backtrace..symbolize..SymbolName$u20$as$u20$core..fmt..Display$GT$3fmt17h17077a10756a9dedE+0x1270>
    5f42:	4c 01 ed             	add    %r13,%rbp
    5f45:	48 39 eb             	cmp    %rbp,%rbx
    5f48:	0f 82 55 12 00 00    	jb     71a3 <_ZN71_$LT$backtrace..symbolize..SymbolName$u20$as$u20$core..fmt..Display$GT$3fmt17h17077a10756a9dedE+0x1303>
    5f4e:	49 01 ec             	add    %rbp,%r12
    5f51:	48 29 eb             	sub    %rbp,%rbx
    5f54:	75 9a                	jne    5ef0 <_ZN71_$LT$backtrace..symbolize..SymbolName$u20$as$u20$core..fmt..Display$GT$3fmt17h17077a10756a9dedE+0x50>
    5f56:	e9 b5 11 00 00       	jmpq   7110 <_ZN71_$LT$backtrace..symbolize..SymbolName$u20$as$u20$core..fmt..Display$GT$3fmt17h17077a10756a9dedE+0x1270>
    5f5b:	48 8b 77 30          	mov    0x30(%rdi),%rsi
    5f5f:	48 89 bc 24 88 00 00 	mov    %rdi,0x88(%rsp)
    5f66:	00 
    5f67:	48 8b 57 38          	mov    0x38(%rdi),%rdx
    5f6b:	48 8b 44 24 28       	mov    0x28(%rsp),%rax
    5f70:	48 8b 78 20          	mov    0x20(%rax),%rdi
    5f74:	48 8b 40 28          	mov    0x28(%rax),%rax
    5f78:	ff 50 18             	callq  *0x18(%rax)
    5f7b:	89 c1                	mov    %eax,%ecx
    5f7d:	b0 01                	mov    $0x1,%al
    5f7f:	84 c9                	test   %cl,%cl
    5f81:	0f 85 8b 11 00 00    	jne    7112 <_ZN71_$LT$backtrace..symbolize..SymbolName$u20$as$u20$core..fmt..Display$GT$3fmt17h17077a10756a9dedE+0x1272>
    5f87:	e9 46 11 00 00       	jmpq   70d2 <_ZN71_$LT$backtrace..symbolize..SymbolName$u20$as$u20$core..fmt..Display$GT$3fmt17h17077a10756a9dedE+0x1232>
    5f8c:	48 83 f8 01          	cmp    $0x1,%rax
    5f90:	48 89 bc 24 88 00 00 	mov    %rdi,0x88(%rsp)
    5f97:	00 
    5f98:	75 46                	jne    5fe0 <_ZN71_$LT$backtrace..symbolize..SymbolName$u20$as$u20$core..fmt..Display$GT$3fmt17h17077a10756a9dedE+0x140>
    5f9a:	f3 0f 6f 47 18       	movdqu 0x18(%rdi),%xmm0
    5f9f:	66 0f 7f 44 24 30    	movdqa %xmm0,0x30(%rsp)
    5fa5:	48 c7 44 24 40 00 00 	movq   $0x0,0x40(%rsp)
    5fac:	00 00 
    5fae:	48 8b 44 24 28       	mov    0x28(%rsp),%rax
    5fb3:	48 89 44 24 48       	mov    %rax,0x48(%rsp)
    5fb8:	c7 44 24 50 00 00 00 	movl   $0x0,0x50(%rsp)
    5fbf:	00 
    5fc0:	48 8d 7c 24 30       	lea    0x30(%rsp),%rdi
    5fc5:	be 01 00 00 00       	mov    $0x1,%esi
    5fca:	e8 41 7d 01 00       	callq  1dd10 <_ZN14rustc_demangle2v07Printer10print_path17haa095a98ac60aefaE>
    5fcf:	89 c1                	mov    %eax,%ecx
    5fd1:	b0 01                	mov    $0x1,%al
    5fd3:	84 c9                	test   %cl,%cl
    5fd5:	0f 84 f7 10 00 00    	je     70d2 <_ZN71_$LT$backtrace..symbolize..SymbolName$u20$as$u20$core..fmt..Display$GT$3fmt17h17077a10756a9dedE+0x1232>
    5fdb:	e9 32 11 00 00       	jmpq   7112 <_ZN71_$LT$backtrace..symbolize..SymbolName$u20$as$u20$core..fmt..Display$GT$3fmt17h17077a10756a9dedE+0x1272>
    5fe0:	4c 8b 67 18          	mov    0x18(%rdi),%r12
    5fe4:	4c 8b 77 20          	mov    0x20(%rdi),%r14
    5fe8:	48 8b 47 28          	mov    0x28(%rdi),%rax
    5fec:	48 89 84 24 90 00 00 	mov    %rax,0x90(%rsp)
    5ff3:	00 
    5ff4:	31 c0                	xor    %eax,%eax
    5ff6:	48 89 84 24 80 00 00 	mov    %rax,0x80(%rsp)
    5ffd:	00 
    5ffe:	66 0f 6f 15 7a 43 03 	movdqa 0x3437a(%rip),%xmm2        # 3a380 <_fini+0x3c>
    6005:	00 
    6006:	66 0f 6f 1d 82 43 03 	movdqa 0x34382(%rip),%xmm3        # 3a390 <_fini+0x4c>
    600d:	00 
    600e:	66 0f 6f 25 8a 43 03 	movdqa 0x3438a(%rip),%xmm4        # 3a3a0 <_fini+0x5c>
    6015:	00 
    6016:	4c 8b 84 24 80 00 00 	mov    0x80(%rsp),%r8
    601d:	00 
    601e:	4c 3b 84 24 90 00 00 	cmp    0x90(%rsp),%r8
    6025:	00 
    6026:	75 64                	jne    608c <_ZN71_$LT$backtrace..symbolize..SymbolName$u20$as$u20$core..fmt..Display$GT$3fmt17h17077a10756a9dedE+0x1ec>
    6028:	e9 a5 10 00 00       	jmpq   70d2 <_ZN71_$LT$backtrace..symbolize..SymbolName$u20$as$u20$core..fmt..Display$GT$3fmt17h17077a10756a9dedE+0x1232>
    602d:	4c 89 64 24 40       	mov    %r12,0x40(%rsp)
    6032:	4c 8b 64 24 60       	mov    0x60(%rsp),%r12
    6037:	48 8b 44 24 28       	mov    0x28(%rsp),%rax
    603c:	48 8b 78 20          	mov    0x20(%rax),%rdi
    6040:	48 8b 40 28          	mov    0x28(%rax),%rax
    6044:	4c 89 ee             	mov    %r13,%rsi
    6047:	4c 89 e2             	mov    %r12,%rdx
    604a:	ff 50 18             	callq  *0x18(%rax)
    604d:	66 0f 6f 25 4b 43 03 	movdqa 0x3434b(%rip),%xmm4        # 3a3a0 <_fini+0x5c>
    6054:	00 
    6055:	66 0f 6f 1d 33 43 03 	movdqa 0x34333(%rip),%xmm3        # 3a390 <_fini+0x4c>
    605c:	00 
    605d:	66 0f 6f 15 1b 43 03 	movdqa 0x3431b(%rip),%xmm2        # 3a380 <_fini+0x3c>
    6064:	00 
    6065:	89 c1                	mov    %eax,%ecx
    6067:	b0 01                	mov    $0x1,%al
    6069:	4c 8b 64 24 68       	mov    0x68(%rsp),%r12
    606e:	84 c9                	test   %cl,%cl
    6070:	0f 85 9c 10 00 00    	jne    7112 <_ZN71_$LT$backtrace..symbolize..SymbolName$u20$as$u20$core..fmt..Display$GT$3fmt17h17077a10756a9dedE+0x1272>
    6076:	4c 8b 84 24 80 00 00 	mov    0x80(%rsp),%r8
    607d:	00 
    607e:	4c 3b 84 24 90 00 00 	cmp    0x90(%rsp),%r8
    6085:	00 
    6086:	0f 84 46 10 00 00    	je     70d2 <_ZN71_$LT$backtrace..symbolize..SymbolName$u20$as$u20$core..fmt..Display$GT$3fmt17h17077a10756a9dedE+0x1232>
    608c:	4d 85 f6             	test   %r14,%r14
    608f:	0f 84 b9 10 00 00    	je     714e <_ZN71_$LT$backtrace..symbolize..SymbolName$u20$as$u20$core..fmt..Display$GT$3fmt17h17077a10756a9dedE+0x12ae>
    6095:	49 8d 40 01          	lea    0x1(%r8),%rax
    6099:	48 89 84 24 80 00 00 	mov    %rax,0x80(%rsp)
    60a0:	00 
    60a1:	4f 8d 14 34          	lea    (%r12,%r14,1),%r10
    60a5:	4d 8d 4e ff          	lea    -0x1(%r14),%r9
    60a9:	31 db                	xor    %ebx,%ebx
    60ab:	4c 89 f6             	mov    %r14,%rsi
    60ae:	41 0f b6 0c 1c       	movzbl (%r12,%rbx,1),%ecx
    60b3:	84 c9                	test   %cl,%cl
    60b5:	79 23                	jns    60da <_ZN71_$LT$backtrace..symbolize..SymbolName$u20$as$u20$core..fmt..Display$GT$3fmt17h17077a10756a9dedE+0x23a>
    60b7:	eb 47                	jmp    6100 <_ZN71_$LT$backtrace..symbolize..SymbolName$u20$as$u20$core..fmt..Display$GT$3fmt17h17077a10756a9dedE+0x260>
    60b9:	0f 1f 80 00 00 00 00 	nopl   0x0(%rax)
    60c0:	48 83 c6 ff          	add    $0xffffffffffffffff,%rsi
    60c4:	48 83 c3 01          	add    $0x1,%rbx
    60c8:	49 39 de             	cmp    %rbx,%r14
    60cb:	0f 84 7d 10 00 00    	je     714e <_ZN71_$LT$backtrace..symbolize..SymbolName$u20$as$u20$core..fmt..Display$GT$3fmt17h17077a10756a9dedE+0x12ae>
    60d1:	41 0f b6 0c 1c       	movzbl (%r12,%rbx,1),%ecx
    60d6:	84 c9                	test   %cl,%cl
    60d8:	78 26                	js     6100 <_ZN71_$LT$backtrace..symbolize..SymbolName$u20$as$u20$core..fmt..Display$GT$3fmt17h17077a10756a9dedE+0x260>
    60da:	89 cf                	mov    %ecx,%edi
    60dc:	4d 8d 2c 1c          	lea    (%r12,%rbx,1),%r13
    60e0:	83 c7 d0             	add    $0xffffffd0,%edi
    60e3:	83 ff 0a             	cmp    $0xa,%edi
    60e6:	0f 82 b0 00 00 00    	jb     619c <_ZN71_$LT$backtrace..symbolize..SymbolName$u20$as$u20$core..fmt..Display$GT$3fmt17h17077a10756a9dedE+0x2fc>
    60ec:	e9 ef 00 00 00       	jmpq   61e0 <_ZN71_$LT$backtrace..symbolize..SymbolName$u20$as$u20$core..fmt..Display$GT$3fmt17h17077a10756a9dedE+0x340>
    60f1:	66 2e 0f 1f 84 00 00 	nopw   %cs:0x0(%rax,%rax,1)
    60f8:	00 00 00 
    60fb:	0f 1f 44 00 00       	nopl   0x0(%rax,%rax,1)
    6100:	31 ff                	xor    %edi,%edi
    6102:	4c 89 d0             	mov    %r10,%rax
    6105:	49 39 d9             	cmp    %rbx,%r9
    6108:	74 11                	je     611b <_ZN71_$LT$backtrace..symbolize..SymbolName$u20$as$u20$core..fmt..Display$GT$3fmt17h17077a10756a9dedE+0x27b>
    610a:	49 8d 04 1c          	lea    (%r12,%rbx,1),%rax
    610e:	48 83 c0 02          	add    $0x2,%rax
    6112:	41 0f b6 7c 1c 01    	movzbl 0x1(%r12,%rbx,1),%edi
    6118:	83 e7 3f             	and    $0x3f,%edi
    611b:	89 ca                	mov    %ecx,%edx
    611d:	83 e2 1f             	and    $0x1f,%edx
    6120:	80 f9 df             	cmp    $0xdf,%cl
    6123:	76 26                	jbe    614b <_ZN71_$LT$backtrace..symbolize..SymbolName$u20$as$u20$core..fmt..Display$GT$3fmt17h17077a10756a9dedE+0x2ab>
    6125:	4c 39 d0             	cmp    %r10,%rax
    6128:	74 26                	je     6150 <_ZN71_$LT$backtrace..symbolize..SymbolName$u20$as$u20$core..fmt..Display$GT$3fmt17h17077a10756a9dedE+0x2b0>
    612a:	0f b6 28             	movzbl (%rax),%ebp
    612d:	48 83 c0 01          	add    $0x1,%rax
    6131:	83 e5 3f             	and    $0x3f,%ebp
    6134:	c1 e7 06             	shl    $0x6,%edi
    6137:	09 ef                	or     %ebp,%edi
    6139:	80 f9 f0             	cmp    $0xf0,%cl
    613c:	72 21                	jb     615f <_ZN71_$LT$backtrace..symbolize..SymbolName$u20$as$u20$core..fmt..Display$GT$3fmt17h17077a10756a9dedE+0x2bf>
    613e:	4c 39 d0             	cmp    %r10,%rax
    6141:	74 2f                	je     6172 <_ZN71_$LT$backtrace..symbolize..SymbolName$u20$as$u20$core..fmt..Display$GT$3fmt17h17077a10756a9dedE+0x2d2>
    6143:	0f b6 00             	movzbl (%rax),%eax
    6146:	83 e0 3f             	and    $0x3f,%eax
    6149:	eb 29                	jmp    6174 <_ZN71_$LT$backtrace..symbolize..SymbolName$u20$as$u20$core..fmt..Display$GT$3fmt17h17077a10756a9dedE+0x2d4>
    614b:	c1 e2 06             	shl    $0x6,%edx
    614e:	eb 12                	jmp    6162 <_ZN71_$LT$backtrace..symbolize..SymbolName$u20$as$u20$core..fmt..Display$GT$3fmt17h17077a10756a9dedE+0x2c2>
    6150:	31 ed                	xor    %ebp,%ebp
    6152:	4c 89 d0             	mov    %r10,%rax
    6155:	c1 e7 06             	shl    $0x6,%edi
    6158:	09 ef                	or     %ebp,%edi
    615a:	80 f9 f0             	cmp    $0xf0,%cl
    615d:	73 df                	jae    613e <_ZN71_$LT$backtrace..symbolize..SymbolName$u20$as$u20$core..fmt..Display$GT$3fmt17h17077a10756a9dedE+0x29e>
    615f:	c1 e2 0c             	shl    $0xc,%edx
    6162:	09 d7                	or     %edx,%edi
    6164:	4d 8d 2c 1c          	lea    (%r12,%rbx,1),%r13
    6168:	83 c7 d0             	add    $0xffffffd0,%edi
    616b:	83 ff 0a             	cmp    $0xa,%edi
    616e:	72 2c                	jb     619c <_ZN71_$LT$backtrace..symbolize..SymbolName$u20$as$u20$core..fmt..Display$GT$3fmt17h17077a10756a9dedE+0x2fc>
    6170:	eb 6e                	jmp    61e0 <_ZN71_$LT$backtrace..symbolize..SymbolName$u20$as$u20$core..fmt..Display$GT$3fmt17h17077a10756a9dedE+0x340>
    6172:	31 c0                	xor    %eax,%eax
    6174:	83 e2 07             	and    $0x7,%edx
    6177:	c1 e2 12             	shl    $0x12,%edx
    617a:	c1 e7 06             	shl    $0x6,%edi
    617d:	09 d7                	or     %edx,%edi
    617f:	09 c7                	or     %eax,%edi
    6181:	81 ff 00 00 11 00    	cmp    $0x110000,%edi
    6187:	0f 84 c1 0f 00 00    	je     714e <_ZN71_$LT$backtrace..symbolize..SymbolName$u20$as$u20$core..fmt..Display$GT$3fmt17h17077a10756a9dedE+0x12ae>
    618d:	0f 1f 00             	nopl   (%rax)
    6190:	4d 8d 2c 1c          	lea    (%r12,%rbx,1),%r13
    6194:	83 c7 d0             	add    $0xffffffd0,%edi
    6197:	83 ff 0a             	cmp    $0xa,%edi
    619a:	73 44                	jae    61e0 <_ZN71_$LT$backtrace..symbolize..SymbolName$u20$as$u20$core..fmt..Display$GT$3fmt17h17077a10756a9dedE+0x340>
    619c:	4c 89 6c 24 18       	mov    %r13,0x18(%rsp)
    61a1:	48 89 74 24 20       	mov    %rsi,0x20(%rsp)
    61a6:	48 c7 44 24 08 01 00 	movq   $0x1,0x8(%rsp)
    61ad:	00 00 
    61af:	48 89 74 24 10       	mov    %rsi,0x10(%rsp)
    61b4:	48 83 fe 01          	cmp    $0x1,%rsi
    61b8:	0f 84 02 ff ff ff    	je     60c0 <_ZN71_$LT$backtrace..symbolize..SymbolName$u20$as$u20$core..fmt..Display$GT$3fmt17h17077a10756a9dedE+0x220>
    61be:	48 85 f6             	test   %rsi,%rsi
    61c1:	0f 84 5d 0f 00 00    	je     7124 <_ZN71_$LT$backtrace..symbolize..SymbolName$u20$as$u20$core..fmt..Display$GT$3fmt17h17077a10756a9dedE+0x1284>
    61c7:	41 80 7c 1c 01 bf    	cmpb   $0xbf,0x1(%r12,%rbx,1)
    61cd:	0f 8f ed fe ff ff    	jg     60c0 <_ZN71_$LT$backtrace..symbolize..SymbolName$u20$as$u20$core..fmt..Display$GT$3fmt17h17077a10756a9dedE+0x220>
    61d3:	e9 4c 0f 00 00       	jmpq   7124 <_ZN71_$LT$backtrace..symbolize..SymbolName$u20$as$u20$core..fmt..Display$GT$3fmt17h17077a10756a9dedE+0x1284>
    61d8:	0f 1f 84 00 00 00 00 	nopl   0x0(%rax,%rax,1)
    61df:	00 
    61e0:	4c 89 64 24 30       	mov    %r12,0x30(%rsp)
    61e5:	4c 89 74 24 38       	mov    %r14,0x38(%rsp)
    61ea:	49 39 de             	cmp    %rbx,%r14
    61ed:	74 21                	je     6210 <_ZN71_$LT$backtrace..symbolize..SymbolName$u20$as$u20$core..fmt..Display$GT$3fmt17h17077a10756a9dedE+0x370>
    61ef:	48 85 db             	test   %rbx,%rbx
    61f2:	74 1c                	je     6210 <_ZN71_$LT$backtrace..symbolize..SymbolName$u20$as$u20$core..fmt..Display$GT$3fmt17h17077a10756a9dedE+0x370>
    61f4:	49 39 de             	cmp    %rbx,%r14
    61f7:	41 ba 0a 00 00 00    	mov    $0xa,%r10d
    61fd:	0f 86 91 0f 00 00    	jbe    7194 <_ZN71_$LT$backtrace..symbolize..SymbolName$u20$as$u20$core..fmt..Display$GT$3fmt17h17077a10756a9dedE+0x12f4>
    6203:	41 80 3c 1c c0       	cmpb   $0xc0,(%r12,%rbx,1)
    6208:	7d 15                	jge    621f <_ZN71_$LT$backtrace..symbolize..SymbolName$u20$as$u20$core..fmt..Display$GT$3fmt17h17077a10756a9dedE+0x37f>
    620a:	e9 85 0f 00 00       	jmpq   7194 <_ZN71_$LT$backtrace..symbolize..SymbolName$u20$as$u20$core..fmt..Display$GT$3fmt17h17077a10756a9dedE+0x12f4>
    620f:	90                   	nop
    6210:	48 85 db             	test   %rbx,%rbx
    6213:	41 ba 0a 00 00 00    	mov    $0xa,%r10d
    6219:	0f 84 c7 0f 00 00    	je     71e6 <_ZN71_$LT$backtrace..symbolize..SymbolName$u20$as$u20$core..fmt..Display$GT$3fmt17h17077a10756a9dedE+0x1346>
    621f:	41 80 3c 24 2b       	cmpb   $0x2b,(%r12)
    6224:	48 89 d9             	mov    %rbx,%rcx
    6227:	4d 89 e1             	mov    %r12,%r9
    622a:	75 13                	jne    623f <_ZN71_$LT$backtrace..symbolize..SymbolName$u20$as$u20$core..fmt..Display$GT$3fmt17h17077a10756a9dedE+0x39f>
    622c:	48 83 fb 01          	cmp    $0x1,%rbx
    6230:	0f 84 b0 0f 00 00    	je     71e6 <_ZN71_$LT$backtrace..symbolize..SymbolName$u20$as$u20$core..fmt..Display$GT$3fmt17h17077a10756a9dedE+0x1346>
    6236:	4d 8d 4c 24 01       	lea    0x1(%r12),%r9
    623b:	48 8d 4b ff          	lea    -0x1(%rbx),%rcx
    623f:	48 8d 05 23 6f 03 00 	lea    0x36f23(%rip),%rax        # 3d169 <_ZN4core7unicode12unicode_data2cc6BITSET17h5201257bcf8f09faE+0x809>
    6246:	4c 29 e0             	sub    %r12,%rax
    6249:	48 89 44 24 78       	mov    %rax,0x78(%rsp)
    624e:	4d 8d 1c 1c          	lea    (%r12,%rbx,1),%r11
    6252:	49 83 c3 01          	add    $0x1,%r11
    6256:	31 ed                	xor    %ebp,%ebp
    6258:	45 31 ff             	xor    %r15d,%r15d
    625b:	0f 1f 44 00 00       	nopl   0x0(%rax,%rax,1)
    6260:	48 39 e9             	cmp    %rbp,%rcx
    6263:	74 3b                	je     62a0 <_ZN71_$LT$backtrace..symbolize..SymbolName$u20$as$u20$core..fmt..Display$GT$3fmt17h17077a10756a9dedE+0x400>
    6265:	49 8d 04 29          	lea    (%r9,%rbp,1),%rax
    6269:	0f b6 38             	movzbl (%rax),%edi
    626c:	83 c7 d0             	add    $0xffffffd0,%edi
    626f:	83 ff 09             	cmp    $0x9,%edi
    6272:	0f 87 f0 0e 00 00    	ja     7168 <_ZN71_$LT$backtrace..symbolize..SymbolName$u20$as$u20$core..fmt..Display$GT$3fmt17h17077a10756a9dedE+0x12c8>
    6278:	4c 89 f8             	mov    %r15,%rax
    627b:	49 f7 e2             	mul    %r10
    627e:	b2 02                	mov    $0x2,%dl
    6280:	0f 80 e4 0e 00 00    	jo     716a <_ZN71_$LT$backtrace..symbolize..SymbolName$u20$as$u20$core..fmt..Display$GT$3fmt17h17077a10756a9dedE+0x12ca>
    6286:	49 89 c7             	mov    %rax,%r15
    6289:	89 f8                	mov    %edi,%eax
    628b:	48 83 c5 01          	add    $0x1,%rbp
    628f:	49 01 c7             	add    %rax,%r15
    6292:	73 cc                	jae    6260 <_ZN71_$LT$backtrace..symbolize..SymbolName$u20$as$u20$core..fmt..Display$GT$3fmt17h17077a10756a9dedE+0x3c0>
    6294:	e9 d1 0e 00 00       	jmpq   716a <_ZN71_$LT$backtrace..symbolize..SymbolName$u20$as$u20$core..fmt..Display$GT$3fmt17h17077a10756a9dedE+0x12ca>
    6299:	0f 1f 80 00 00 00 00 	nopl   0x0(%rax)
    62a0:	4c 89 6c 24 18       	mov    %r13,0x18(%rsp)
    62a5:	48 89 74 24 20       	mov    %rsi,0x20(%rsp)
    62aa:	4c 89 7c 24 08       	mov    %r15,0x8(%rsp)
    62af:	48 89 74 24 10       	mov    %rsi,0x10(%rsp)
    62b4:	4d 85 ff             	test   %r15,%r15
    62b7:	0f 94 c1             	sete   %cl
    62ba:	4d 29 fe             	sub    %r15,%r14
    62bd:	49 29 de             	sub    %rbx,%r14
    62c0:	0f 94 c0             	sete   %al
    62c3:	08 c8                	or     %cl,%al
    62c5:	75 17                	jne    62de <_ZN71_$LT$backtrace..symbolize..SymbolName$u20$as$u20$core..fmt..Display$GT$3fmt17h17077a10756a9dedE+0x43e>
    62c7:	4c 39 fe             	cmp    %r15,%rsi
    62ca:	0f 86 54 0e 00 00    	jbe    7124 <_ZN71_$LT$backtrace..symbolize..SymbolName$u20$as$u20$core..fmt..Display$GT$3fmt17h17077a10756a9dedE+0x1284>
    62d0:	4b 8d 0c 3c          	lea    (%r12,%r15,1),%rcx
    62d4:	80 3c 0b bf          	cmpb   $0xbf,(%rbx,%rcx,1)
    62d8:	0f 8e 46 0e 00 00    	jle    7124 <_ZN71_$LT$backtrace..symbolize..SymbolName$u20$as$u20$core..fmt..Display$GT$3fmt17h17077a10756a9dedE+0x1284>
    62de:	4c 89 6c 24 30       	mov    %r13,0x30(%rsp)
    62e3:	48 89 74 24 38       	mov    %rsi,0x38(%rsp)
    62e8:	84 c0                	test   %al,%al
    62ea:	75 17                	jne    6303 <_ZN71_$LT$backtrace..symbolize..SymbolName$u20$as$u20$core..fmt..Display$GT$3fmt17h17077a10756a9dedE+0x463>
    62ec:	4c 39 fe             	cmp    %r15,%rsi
    62ef:	0f 86 e2 0e 00 00    	jbe    71d7 <_ZN71_$LT$backtrace..symbolize..SymbolName$u20$as$u20$core..fmt..Display$GT$3fmt17h17077a10756a9dedE+0x1337>
    62f5:	4b 8d 04 3c          	lea    (%r12,%r15,1),%rax
    62f9:	80 3c 18 bf          	cmpb   $0xbf,(%rax,%rbx,1)
    62fd:	0f 8e d4 0e 00 00    	jle    71d7 <_ZN71_$LT$backtrace..symbolize..SymbolName$u20$as$u20$core..fmt..Display$GT$3fmt17h17077a10756a9dedE+0x1337>
    6303:	4b 8d 04 2f          	lea    (%r15,%r13,1),%rax
    6307:	48 89 44 24 68       	mov    %rax,0x68(%rsp)
    630c:	4d 85 ff             	test   %r15,%r15
    630f:	0f 84 ab 01 00 00    	je     64c0 <_ZN71_$LT$backtrace..symbolize..SymbolName$u20$as$u20$core..fmt..Display$GT$3fmt17h17077a10756a9dedE+0x620>
    6315:	48 8b 84 24 80 00 00 	mov    0x80(%rsp),%rax
    631c:	00 
    631d:	48 3b 84 24 90 00 00 	cmp    0x90(%rsp),%rax
    6324:	00 
    6325:	0f 85 95 01 00 00    	jne    64c0 <_ZN71_$LT$backtrace..symbolize..SymbolName$u20$as$u20$core..fmt..Display$GT$3fmt17h17077a10756a9dedE+0x620>
    632b:	48 8b 44 24 28       	mov    0x28(%rsp),%rax
    6330:	8b 40 30             	mov    0x30(%rax),%eax
    6333:	83 e0 04             	and    $0x4,%eax
    6336:	0f 84 84 01 00 00    	je     64c0 <_ZN71_$LT$backtrace..symbolize..SymbolName$u20$as$u20$core..fmt..Display$GT$3fmt17h17077a10756a9dedE+0x620>
    633c:	41 80 7d 00 68       	cmpb   $0x68,0x0(%r13)
    6341:	0f 85 79 01 00 00    	jne    64c0 <_ZN71_$LT$backtrace..symbolize..SymbolName$u20$as$u20$core..fmt..Display$GT$3fmt17h17077a10756a9dedE+0x620>
    6347:	4c 89 6c 24 18       	mov    %r13,0x18(%rsp)
    634c:	4c 89 7c 24 20       	mov    %r15,0x20(%rsp)
    6351:	48 c7 44 24 08 01 00 	movq   $0x1,0x8(%rsp)
    6358:	00 00 
    635a:	4c 89 7c 24 10       	mov    %r15,0x10(%rsp)
    635f:	49 83 ff 01          	cmp    $0x1,%r15
    6363:	0f 84 69 0d 00 00    	je     70d2 <_ZN71_$LT$backtrace..symbolize..SymbolName$u20$as$u20$core..fmt..Display$GT$3fmt17h17077a10756a9dedE+0x1232>
    6369:	41 8a 0b             	mov    (%r11),%cl
    636c:	80 f9 bf             	cmp    $0xbf,%cl
    636f:	0f 8e af 0d 00 00    	jle    7124 <_ZN71_$LT$backtrace..symbolize..SymbolName$u20$as$u20$core..fmt..Display$GT$3fmt17h17077a10756a9dedE+0x1284>
    6375:	4d 89 f9             	mov    %r15,%r9
    6378:	49 f7 d9             	neg    %r9
    637b:	4c 89 e2             	mov    %r12,%rdx
    637e:	48 f7 da             	neg    %rdx
    6381:	4c 89 de             	mov    %r11,%rsi
    6384:	84 c9                	test   %cl,%cl
    6386:	0f 89 16 01 00 00    	jns    64a2 <_ZN71_$LT$backtrace..symbolize..SymbolName$u20$as$u20$core..fmt..Display$GT$3fmt17h17077a10756a9dedE+0x602>
    638c:	0f 1f 40 00          	nopl   0x0(%rax)
    6390:	4a 8d 04 0e          	lea    (%rsi,%r9,1),%rax
    6394:	48 8d 3c 02          	lea    (%rdx,%rax,1),%rdi
    6398:	48 83 c7 01          	add    $0x1,%rdi
    639c:	89 c8                	mov    %ecx,%eax
    639e:	24 1f                	and    $0x1f,%al
    63a0:	48 39 df             	cmp    %rbx,%rdi
    63a3:	74 4b                	je     63f0 <_ZN71_$LT$backtrace..symbolize..SymbolName$u20$as$u20$core..fmt..Display$GT$3fmt17h17077a10756a9dedE+0x550>
    63a5:	0f b6 7e 01          	movzbl 0x1(%rsi),%edi
    63a9:	48 83 c6 02          	add    $0x2,%rsi
    63ad:	83 e7 3f             	and    $0x3f,%edi
    63b0:	0f b6 c0             	movzbl %al,%eax
    63b3:	80 f9 df             	cmp    $0xdf,%cl
    63b6:	76 47                	jbe    63ff <_ZN71_$LT$backtrace..symbolize..SymbolName$u20$as$u20$core..fmt..Display$GT$3fmt17h17077a10756a9dedE+0x55f>
    63b8:	4a 8d 2c 0e          	lea    (%rsi,%r9,1),%rbp
    63bc:	48 01 d5             	add    %rdx,%rbp
    63bf:	48 39 dd             	cmp    %rbx,%rbp
    63c2:	74 76                	je     643a <_ZN71_$LT$backtrace..symbolize..SymbolName$u20$as$u20$core..fmt..Display$GT$3fmt17h17077a10756a9dedE+0x59a>
    63c4:	0f b6 2e             	movzbl (%rsi),%ebp
    63c7:	48 83 c6 01          	add    $0x1,%rsi
    63cb:	83 e5 3f             	and    $0x3f,%ebp
    63ce:	c1 e7 06             	shl    $0x6,%edi
    63d1:	09 ef                	or     %ebp,%edi
    63d3:	80 f9 f0             	cmp    $0xf0,%cl
    63d6:	72 73                	jb     644b <_ZN71_$LT$backtrace..symbolize..SymbolName$u20$as$u20$core..fmt..Display$GT$3fmt17h17077a10756a9dedE+0x5ab>
    63d8:	4a 8d 0c 0e          	lea    (%rsi,%r9,1),%rcx
    63dc:	48 01 d1             	add    %rdx,%rcx
    63df:	48 39 d9             	cmp    %rbx,%rcx
    63e2:	74 76                	je     645a <_ZN71_$LT$backtrace..symbolize..SymbolName$u20$as$u20$core..fmt..Display$GT$3fmt17h17077a10756a9dedE+0x5ba>
    63e4:	0f b6 0e             	movzbl (%rsi),%ecx
    63e7:	48 83 c6 01          	add    $0x1,%rsi
    63eb:	83 e1 3f             	and    $0x3f,%ecx
    63ee:	eb 71                	jmp    6461 <_ZN71_$LT$backtrace..symbolize..SymbolName$u20$as$u20$core..fmt..Display$GT$3fmt17h17077a10756a9dedE+0x5c1>
    63f0:	31 ff                	xor    %edi,%edi
    63f2:	48 8b 74 24 68       	mov    0x68(%rsp),%rsi
    63f7:	0f b6 c0             	movzbl %al,%eax
    63fa:	80 f9 df             	cmp    $0xdf,%cl
    63fd:	77 b9                	ja     63b8 <_ZN71_$LT$backtrace..symbolize..SymbolName$u20$as$u20$core..fmt..Display$GT$3fmt17h17077a10756a9dedE+0x518>
    63ff:	c1 e0 06             	shl    $0x6,%eax
    6402:	09 c7                	or     %eax,%edi
    6404:	8d 47 d0             	lea    -0x30(%rdi),%eax
    6407:	83 f8 0a             	cmp    $0xa,%eax
    640a:	72 7c                	jb     6488 <_ZN71_$LT$backtrace..symbolize..SymbolName$u20$as$u20$core..fmt..Display$GT$3fmt17h17077a10756a9dedE+0x5e8>
    640c:	0f 1f 40 00          	nopl   0x0(%rax)
    6410:	8d 4f 9f             	lea    -0x61(%rdi),%ecx
    6413:	b8 a9 ff ff ff       	mov    $0xffffffa9,%eax
    6418:	83 f9 1a             	cmp    $0x1a,%ecx
    641b:	72 11                	jb     642e <_ZN71_$LT$backtrace..symbolize..SymbolName$u20$as$u20$core..fmt..Display$GT$3fmt17h17077a10756a9dedE+0x58e>
    641d:	8d 4f bf             	lea    -0x41(%rdi),%ecx
    6420:	b8 c9 ff ff ff       	mov    $0xffffffc9,%eax
    6425:	83 f9 19             	cmp    $0x19,%ecx
    6428:	0f 87 92 00 00 00    	ja     64c0 <_ZN71_$LT$backtrace..symbolize..SymbolName$u20$as$u20$core..fmt..Display$GT$3fmt17h17077a10756a9dedE+0x620>
    642e:	01 c7                	add    %eax,%edi
    6430:	83 ff 0f             	cmp    $0xf,%edi
    6433:	76 53                	jbe    6488 <_ZN71_$LT$backtrace..symbolize..SymbolName$u20$as$u20$core..fmt..Display$GT$3fmt17h17077a10756a9dedE+0x5e8>
    6435:	e9 86 00 00 00       	jmpq   64c0 <_ZN71_$LT$backtrace..symbolize..SymbolName$u20$as$u20$core..fmt..Display$GT$3fmt17h17077a10756a9dedE+0x620>
    643a:	31 ed                	xor    %ebp,%ebp
    643c:	48 8b 74 24 68       	mov    0x68(%rsp),%rsi
    6441:	c1 e7 06             	shl    $0x6,%edi
    6444:	09 ef                	or     %ebp,%edi
    6446:	80 f9 f0             	cmp    $0xf0,%cl
    6449:	73 8d                	jae    63d8 <_ZN71_$LT$backtrace..symbolize..SymbolName$u20$as$u20$core..fmt..Display$GT$3fmt17h17077a10756a9dedE+0x538>
    644b:	c1 e0 0c             	shl    $0xc,%eax
    644e:	09 c7                	or     %eax,%edi
    6450:	8d 47 d0             	lea    -0x30(%rdi),%eax
    6453:	83 f8 0a             	cmp    $0xa,%eax
    6456:	73 b8                	jae    6410 <_ZN71_$LT$backtrace..symbolize..SymbolName$u20$as$u20$core..fmt..Display$GT$3fmt17h17077a10756a9dedE+0x570>
    6458:	eb 2e                	jmp    6488 <_ZN71_$LT$backtrace..symbolize..SymbolName$u20$as$u20$core..fmt..Display$GT$3fmt17h17077a10756a9dedE+0x5e8>
    645a:	31 c9                	xor    %ecx,%ecx
    645c:	48 8b 74 24 68       	mov    0x68(%rsp),%rsi
    6461:	83 e0 07             	and    $0x7,%eax
    6464:	c1 e0 12             	shl    $0x12,%eax
    6467:	c1 e7 06             	shl    $0x6,%edi
    646a:	09 c7                	or     %eax,%edi
    646c:	09 cf                	or     %ecx,%edi
    646e:	81 ff 00 00 11 00    	cmp    $0x110000,%edi
    6474:	0f 84 58 0c 00 00    	je     70d2 <_ZN71_$LT$backtrace..symbolize..SymbolName$u20$as$u20$core..fmt..Display$GT$3fmt17h17077a10756a9dedE+0x1232>
    647a:	66 0f 1f 44 00 00    	nopw   0x0(%rax,%rax,1)
    6480:	8d 47 d0             	lea    -0x30(%rdi),%eax
    6483:	83 f8 0a             	cmp    $0xa,%eax
    6486:	73 88                	jae    6410 <_ZN71_$LT$backtrace..symbolize..SymbolName$u20$as$u20$core..fmt..Display$GT$3fmt17h17077a10756a9dedE+0x570>
    6488:	4a 8d 04 0e          	lea    (%rsi,%r9,1),%rax
    648c:	48 01 d0             	add    %rdx,%rax
    648f:	48 39 d8             	cmp    %rbx,%rax
    6492:	0f 84 3a 0c 00 00    	je     70d2 <_ZN71_$LT$backtrace..symbolize..SymbolName$u20$as$u20$core..fmt..Display$GT$3fmt17h17077a10756a9dedE+0x1232>
    6498:	8a 0e                	mov    (%rsi),%cl
    649a:	84 c9                	test   %cl,%cl
    649c:	0f 88 ee fe ff ff    	js     6390 <_ZN71_$LT$backtrace..symbolize..SymbolName$u20$as$u20$core..fmt..Display$GT$3fmt17h17077a10756a9dedE+0x4f0>
    64a2:	48 83 c6 01          	add    $0x1,%rsi
    64a6:	0f b6 f9             	movzbl %cl,%edi
    64a9:	8d 47 d0             	lea    -0x30(%rdi),%eax
    64ac:	83 f8 0a             	cmp    $0xa,%eax
    64af:	0f 83 5b ff ff ff    	jae    6410 <_ZN71_$LT$backtrace..symbolize..SymbolName$u20$as$u20$core..fmt..Display$GT$3fmt17h17077a10756a9dedE+0x570>
    64b5:	eb d1                	jmp    6488 <_ZN71_$LT$backtrace..symbolize..SymbolName$u20$as$u20$core..fmt..Display$GT$3fmt17h17077a10756a9dedE+0x5e8>
    64b7:	66 0f 1f 84 00 00 00 	nopw   0x0(%rax,%rax,1)
    64be:	00 00 
    64c0:	4d 85 c0             	test   %r8,%r8
    64c3:	74 42                	je     6507 <_ZN71_$LT$backtrace..symbolize..SymbolName$u20$as$u20$core..fmt..Display$GT$3fmt17h17077a10756a9dedE+0x667>
    64c5:	48 8b 44 24 28       	mov    0x28(%rsp),%rax
    64ca:	48 8b 78 20          	mov    0x20(%rax),%rdi
    64ce:	48 8b 40 28          	mov    0x28(%rax),%rax
    64d2:	ba 02 00 00 00       	mov    $0x2,%edx
    64d7:	48 8d 35 89 6c 03 00 	lea    0x36c89(%rip),%rsi        # 3d167 <_ZN4core7unicode12unicode_data2cc6BITSET17h5201257bcf8f09faE+0x807>
    64de:	4c 89 dd             	mov    %r11,%rbp
    64e1:	ff 50 18             	callq  *0x18(%rax)
    64e4:	49 89 eb             	mov    %rbp,%r11
    64e7:	66 0f 6f 25 b1 3e 03 	movdqa 0x33eb1(%rip),%xmm4        # 3a3a0 <_fini+0x5c>
    64ee:	00 
    64ef:	66 0f 6f 1d 99 3e 03 	movdqa 0x33e99(%rip),%xmm3        # 3a390 <_fini+0x4c>
    64f6:	00 
    64f7:	66 0f 6f 15 81 3e 03 	movdqa 0x33e81(%rip),%xmm2        # 3a380 <_fini+0x3c>
    64fe:	00 
    64ff:	84 c0                	test   %al,%al
    6501:	0f 85 05 0c 00 00    	jne    710c <_ZN71_$LT$backtrace..symbolize..SymbolName$u20$as$u20$core..fmt..Display$GT$3fmt17h17077a10756a9dedE+0x126c>
    6507:	49 83 ff 02          	cmp    $0x2,%r15
    650b:	72 53                	jb     6560 <_ZN71_$LT$backtrace..symbolize..SymbolName$u20$as$u20$core..fmt..Display$GT$3fmt17h17077a10756a9dedE+0x6c0>
    650d:	48 8d 05 55 6c 03 00 	lea    0x36c55(%rip),%rax        # 3d169 <_ZN4core7unicode12unicode_data2cc6BITSET17h5201257bcf8f09faE+0x809>
    6514:	48 39 5c 24 78       	cmp    %rbx,0x78(%rsp)
    6519:	74 10                	je     652b <_ZN71_$LT$backtrace..symbolize..SymbolName$u20$as$u20$core..fmt..Display$GT$3fmt17h17077a10756a9dedE+0x68b>
    651b:	41 0f b7 4d 00       	movzwl 0x0(%r13),%ecx
    6520:	4c 89 e8             	mov    %r13,%rax
    6523:	81 f9 5f 24 00 00    	cmp    $0x245f,%ecx
    6529:	75 35                	jne    6560 <_ZN71_$LT$backtrace..symbolize..SymbolName$u20$as$u20$core..fmt..Display$GT$3fmt17h17077a10756a9dedE+0x6c0>
    652b:	48 89 44 24 18       	mov    %rax,0x18(%rsp)
    6530:	4c 89 7c 24 20       	mov    %r15,0x20(%rsp)
    6535:	48 c7 44 24 08 01 00 	movq   $0x1,0x8(%rsp)
    653c:	00 00 
    653e:	4c 89 7c 24 10       	mov    %r15,0x10(%rsp)
    6543:	41 80 3b bf          	cmpb   $0xbf,(%r11)
    6547:	0f 8e d7 0b 00 00    	jle    7124 <_ZN71_$LT$backtrace..symbolize..SymbolName$u20$as$u20$core..fmt..Display$GT$3fmt17h17077a10756a9dedE+0x1284>
    654d:	49 83 c7 ff          	add    $0xffffffffffffffff,%r15
    6551:	4d 8d 2c 1c          	lea    (%r12,%rbx,1),%r13
    6555:	49 83 c5 01          	add    $0x1,%r13
    6559:	0f 1f 80 00 00 00 00 	nopl   0x0(%rax)
    6560:	4d 89 fc             	mov    %r15,%r12
    6563:	4d 85 ff             	test   %r15,%r15
    6566:	0f 84 b4 09 00 00    	je     6f20 <_ZN71_$LT$backtrace..symbolize..SymbolName$u20$as$u20$core..fmt..Display$GT$3fmt17h17077a10756a9dedE+0x1080>
    656c:	41 8a 45 00          	mov    0x0(%r13),%al
    6570:	3c 24                	cmp    $0x24,%al
    6572:	0f 84 b8 00 00 00    	je     6630 <_ZN71_$LT$backtrace..symbolize..SymbolName$u20$as$u20$core..fmt..Display$GT$3fmt17h17077a10756a9dedE+0x790>
    6578:	3c 2e                	cmp    $0x2e,%al
    657a:	0f 85 a0 09 00 00    	jne    6f20 <_ZN71_$LT$backtrace..symbolize..SymbolName$u20$as$u20$core..fmt..Display$GT$3fmt17h17077a10756a9dedE+0x1080>
    6580:	4c 89 6c 24 18       	mov    %r13,0x18(%rsp)
    6585:	4c 89 64 24 20       	mov    %r12,0x20(%rsp)
    658a:	48 c7 44 24 08 01 00 	movq   $0x1,0x8(%rsp)
    6591:	00 00 
    6593:	4c 89 64 24 10       	mov    %r12,0x10(%rsp)
    6598:	49 83 fc 01          	cmp    $0x1,%r12
    659c:	74 0b                	je     65a9 <_ZN71_$LT$backtrace..symbolize..SymbolName$u20$as$u20$core..fmt..Display$GT$3fmt17h17077a10756a9dedE+0x709>
    659e:	41 80 7d 01 bf       	cmpb   $0xbf,0x1(%r13)
    65a3:	0f 8e 7b 0b 00 00    	jle    7124 <_ZN71_$LT$backtrace..symbolize..SymbolName$u20$as$u20$core..fmt..Display$GT$3fmt17h17077a10756a9dedE+0x1284>
    65a9:	49 83 fc 01          	cmp    $0x1,%r12
    65ad:	0f 84 13 04 00 00    	je     69c6 <_ZN71_$LT$backtrace..symbolize..SymbolName$u20$as$u20$core..fmt..Display$GT$3fmt17h17077a10756a9dedE+0xb26>
    65b3:	41 0f b6 55 01       	movzbl 0x1(%r13),%edx
    65b8:	84 d2                	test   %dl,%dl
    65ba:	0f 88 9e 03 00 00    	js     695e <_ZN71_$LT$backtrace..symbolize..SymbolName$u20$as$u20$core..fmt..Display$GT$3fmt17h17077a10756a9dedE+0xabe>
    65c0:	89 d0                	mov    %edx,%eax
    65c2:	83 f8 2e             	cmp    $0x2e,%eax
    65c5:	0f 85 fb 03 00 00    	jne    69c6 <_ZN71_$LT$backtrace..symbolize..SymbolName$u20$as$u20$core..fmt..Display$GT$3fmt17h17077a10756a9dedE+0xb26>
    65cb:	48 8b 44 24 28       	mov    0x28(%rsp),%rax
    65d0:	48 8b 78 20          	mov    0x20(%rax),%rdi
    65d4:	48 8b 40 28          	mov    0x28(%rax),%rax
    65d8:	ba 02 00 00 00       	mov    $0x2,%edx
    65dd:	48 8d 35 83 6b 03 00 	lea    0x36b83(%rip),%rsi        # 3d167 <_ZN4core7unicode12unicode_data2cc6BITSET17h5201257bcf8f09faE+0x807>
    65e4:	ff 50 18             	callq  *0x18(%rax)
    65e7:	84 c0                	test   %al,%al
    65e9:	0f 85 1d 0b 00 00    	jne    710c <_ZN71_$LT$backtrace..symbolize..SymbolName$u20$as$u20$core..fmt..Display$GT$3fmt17h17077a10756a9dedE+0x126c>
    65ef:	4c 89 6c 24 18       	mov    %r13,0x18(%rsp)
    65f4:	49 83 c5 02          	add    $0x2,%r13
    65f8:	4c 89 64 24 20       	mov    %r12,0x20(%rsp)
    65fd:	48 c7 44 24 08 02 00 	movq   $0x2,0x8(%rsp)
    6604:	00 00 
    6606:	4c 89 64 24 10       	mov    %r12,0x10(%rsp)
    660b:	49 83 fc 02          	cmp    $0x2,%r12
    660f:	74 0b                	je     661c <_ZN71_$LT$backtrace..symbolize..SymbolName$u20$as$u20$core..fmt..Display$GT$3fmt17h17077a10756a9dedE+0x77c>
    6611:	41 80 7d 00 bf       	cmpb   $0xbf,0x0(%r13)
    6616:	0f 8e 08 0b 00 00    	jle    7124 <_ZN71_$LT$backtrace..symbolize..SymbolName$u20$as$u20$core..fmt..Display$GT$3fmt17h17077a10756a9dedE+0x1284>
    661c:	49 83 c4 fe          	add    $0xfffffffffffffffe,%r12
    6620:	e9 f6 03 00 00       	jmpq   6a1b <_ZN71_$LT$backtrace..symbolize..SymbolName$u20$as$u20$core..fmt..Display$GT$3fmt17h17077a10756a9dedE+0xb7b>
    6625:	66 2e 0f 1f 84 00 00 	nopw   %cs:0x0(%rax,%rax,1)
    662c:	00 00 00 
    662f:	90                   	nop
    6630:	4c 89 6c 24 18       	mov    %r13,0x18(%rsp)
    6635:	4c 89 64 24 20       	mov    %r12,0x20(%rsp)
    663a:	48 c7 44 24 08 01 00 	movq   $0x1,0x8(%rsp)
    6641:	00 00 
    6643:	4c 89 64 24 10       	mov    %r12,0x10(%rsp)
    6648:	49 83 fc 01          	cmp    $0x1,%r12
    664c:	74 0b                	je     6659 <_ZN71_$LT$backtrace..symbolize..SymbolName$u20$as$u20$core..fmt..Display$GT$3fmt17h17077a10756a9dedE+0x7b9>
    664e:	41 80 7d 01 bf       	cmpb   $0xbf,0x1(%r13)
    6653:	0f 8e cb 0a 00 00    	jle    7124 <_ZN71_$LT$backtrace..symbolize..SymbolName$u20$as$u20$core..fmt..Display$GT$3fmt17h17077a10756a9dedE+0x1284>
    6659:	4d 8d 4d 01          	lea    0x1(%r13),%r9
    665d:	4c 89 64 24 60       	mov    %r12,0x60(%rsp)
    6662:	49 83 c4 ff          	add    $0xffffffffffffffff,%r12
    6666:	4c 89 4c 24 30       	mov    %r9,0x30(%rsp)
    666b:	4c 89 64 24 38       	mov    %r12,0x38(%rsp)
    6670:	48 c7 44 24 40 00 00 	movq   $0x0,0x40(%rsp)
    6677:	00 00 
    6679:	4c 89 64 24 48       	mov    %r12,0x48(%rsp)
    667e:	48 b8 24 00 00 00 24 	movabs $0x2400000024,%rax
    6685:	00 00 00 
    6688:	48 89 44 24 58       	mov    %rax,0x58(%rsp)
    668d:	48 c7 44 24 50 01 00 	movq   $0x1,0x50(%rsp)
    6694:	00 00 
    6696:	44 89 c9             	mov    %r9d,%ecx
    6699:	83 e1 07             	and    $0x7,%ecx
    669c:	48 85 c9             	test   %rcx,%rcx
    669f:	0f 84 ad 00 00 00    	je     6752 <_ZN71_$LT$backtrace..symbolize..SymbolName$u20$as$u20$core..fmt..Display$GT$3fmt17h17077a10756a9dedE+0x8b2>
    66a5:	b8 08 00 00 00       	mov    $0x8,%eax
    66aa:	bf 00 00 00 00       	mov    $0x0,%edi
    66af:	48 29 c8             	sub    %rcx,%rax
    66b2:	74 48                	je     66fc <_ZN71_$LT$backtrace..symbolize..SymbolName$u20$as$u20$core..fmt..Display$GT$3fmt17h17077a10756a9dedE+0x85c>
    66b4:	4c 39 e0             	cmp    %r12,%rax
    66b7:	49 0f 47 c4          	cmova  %r12,%rax
    66bb:	48 89 c2             	mov    %rax,%rdx
    66be:	48 f7 da             	neg    %rdx
    66c1:	48 c7 c1 ff ff ff ff 	mov    $0xffffffffffffffff,%rcx
    66c8:	0f 1f 84 00 00 00 00 	nopl   0x0(%rax,%rax,1)
    66cf:	00 
    66d0:	48 8d 3c 0a          	lea    (%rdx,%rcx,1),%rdi
    66d4:	48 83 ff ff          	cmp    $0xffffffffffffffff,%rdi
    66d8:	74 1f                	je     66f9 <_ZN71_$LT$backtrace..symbolize..SymbolName$u20$as$u20$core..fmt..Display$GT$3fmt17h17077a10756a9dedE+0x859>
    66da:	41 80 7c 0d 02 24    	cmpb   $0x24,0x2(%r13,%rcx,1)
    66e0:	48 8d 49 01          	lea    0x1(%rcx),%rcx
    66e4:	75 ea                	jne    66d0 <_ZN71_$LT$backtrace..symbolize..SymbolName$u20$as$u20$core..fmt..Display$GT$3fmt17h17077a10756a9dedE+0x830>
    66e6:	0f 94 c0             	sete   %al
    66e9:	04 01                	add    $0x1,%al
    66eb:	0f b6 d8             	movzbl %al,%ebx
    66ee:	83 e3 01             	and    $0x1,%ebx
    66f1:	48 01 cb             	add    %rcx,%rbx
    66f4:	e9 a1 00 00 00       	jmpq   679a <_ZN71_$LT$backtrace..symbolize..SymbolName$u20$as$u20$core..fmt..Display$GT$3fmt17h17077a10756a9dedE+0x8fa>
    66f9:	48 89 c7             	mov    %rax,%rdi
    66fc:	49 83 fc 10          	cmp    $0x10,%r12
    6700:	72 58                	jb     675a <_ZN71_$LT$backtrace..symbolize..SymbolName$u20$as$u20$core..fmt..Display$GT$3fmt17h17077a10756a9dedE+0x8ba>
    6702:	48 8b 44 24 60       	mov    0x60(%rsp),%rax
    6707:	48 83 c0 ef          	add    $0xffffffffffffffef,%rax
    670b:	48 39 c7             	cmp    %rax,%rdi
    670e:	77 4a                	ja     675a <_ZN71_$LT$backtrace..symbolize..SymbolName$u20$as$u20$core..fmt..Display$GT$3fmt17h17077a10756a9dedE+0x8ba>
    6710:	f3 41 0f 6f 44 3d 01 	movdqu 0x1(%r13,%rdi,1),%xmm0
    6717:	66 0f 6f c8          	movdqa %xmm0,%xmm1
    671b:	66 0f ef ca          	pxor   %xmm2,%xmm1
    671f:	66 0f d4 cb          	paddq  %xmm3,%xmm1
    6723:	66 0f df c1          	pandn  %xmm1,%xmm0
    6727:	66 0f db c4          	pand   %xmm4,%xmm0
    672b:	66 48 0f 7e c1       	movq   %xmm0,%rcx
    6730:	66 0f 70 c0 4e       	pshufd $0x4e,%xmm0,%xmm0
    6735:	66 48 0f 7e c2       	movq   %xmm0,%rdx
    673a:	48 09 ca             	or     %rcx,%rdx
    673d:	75 09                	jne    6748 <_ZN71_$LT$backtrace..symbolize..SymbolName$u20$as$u20$core..fmt..Display$GT$3fmt17h17077a10756a9dedE+0x8a8>
    673f:	48 83 c7 10          	add    $0x10,%rdi
    6743:	48 39 c7             	cmp    %rax,%rdi
    6746:	76 c8                	jbe    6710 <_ZN71_$LT$backtrace..symbolize..SymbolName$u20$as$u20$core..fmt..Display$GT$3fmt17h17077a10756a9dedE+0x870>
    6748:	4c 39 e7             	cmp    %r12,%rdi
    674b:	76 0d                	jbe    675a <_ZN71_$LT$backtrace..symbolize..SymbolName$u20$as$u20$core..fmt..Display$GT$3fmt17h17077a10756a9dedE+0x8ba>
    674d:	e9 5e 0a 00 00       	jmpq   71b0 <_ZN71_$LT$backtrace..symbolize..SymbolName$u20$as$u20$core..fmt..Display$GT$3fmt17h17077a10756a9dedE+0x1310>
    6752:	31 ff                	xor    %edi,%edi
    6754:	49 83 fc 10          	cmp    $0x10,%r12
    6758:	73 a8                	jae    6702 <_ZN71_$LT$backtrace..symbolize..SymbolName$u20$as$u20$core..fmt..Display$GT$3fmt17h17077a10756a9dedE+0x862>
    675a:	4a 8d 0c 2f          	lea    (%rdi,%r13,1),%rcx
    675e:	48 83 c1 01          	add    $0x1,%rcx
    6762:	48 89 fa             	mov    %rdi,%rdx
    6765:	48 f7 d2             	not    %rdx
    6768:	48 03 54 24 60       	add    0x60(%rsp),%rdx
    676d:	31 c0                	xor    %eax,%eax
    676f:	90                   	nop
    6770:	48 39 c2             	cmp    %rax,%rdx
    6773:	0f 84 b4 f8 ff ff    	je     602d <_ZN71_$LT$backtrace..symbolize..SymbolName$u20$as$u20$core..fmt..Display$GT$3fmt17h17077a10756a9dedE+0x18d>
    6779:	80 3c 01 24          	cmpb   $0x24,(%rcx,%rax,1)
    677d:	48 8d 40 01          	lea    0x1(%rax),%rax
    6781:	75 ed                	jne    6770 <_ZN71_$LT$backtrace..symbolize..SymbolName$u20$as$u20$core..fmt..Display$GT$3fmt17h17077a10756a9dedE+0x8d0>
    6783:	0f 94 c1             	sete   %cl
    6786:	80 c1 01             	add    $0x1,%cl
    6789:	0f b6 c9             	movzbl %cl,%ecx
    678c:	83 e1 01             	and    $0x1,%ecx
    678f:	48 01 cf             	add    %rcx,%rdi
    6792:	48 8d 1c 38          	lea    (%rax,%rdi,1),%rbx
    6796:	48 83 c3 ff          	add    $0xffffffffffffffff,%rbx
    679a:	49 8d 6d 02          	lea    0x2(%r13),%rbp
    679e:	48 8b 44 24 60       	mov    0x60(%rsp),%rax
    67a3:	48 83 c0 fe          	add    $0xfffffffffffffffe,%rax
    67a7:	48 89 44 24 78       	mov    %rax,0x78(%rsp)
    67ac:	45 31 ff             	xor    %r15d,%r15d
    67af:	48 89 6c 24 70       	mov    %rbp,0x70(%rsp)
    67b4:	eb 1b                	jmp    67d1 <_ZN71_$LT$backtrace..symbolize..SymbolName$u20$as$u20$core..fmt..Display$GT$3fmt17h17077a10756a9dedE+0x931>
    67b6:	66 2e 0f 1f 84 00 00 	nopw   %cs:0x0(%rax,%rax,1)
    67bd:	00 00 00 
    67c0:	31 c0                	xor    %eax,%eax
    67c2:	48 01 fb             	add    %rdi,%rbx
    67c5:	4d 89 df             	mov    %r11,%r15
    67c8:	48 85 c0             	test   %rax,%rax
    67cb:	0f 84 5c f8 ff ff    	je     602d <_ZN71_$LT$backtrace..symbolize..SymbolName$u20$as$u20$core..fmt..Display$GT$3fmt17h17077a10756a9dedE+0x18d>
    67d1:	4a 8d 34 3b          	lea    (%rbx,%r15,1),%rsi
    67d5:	49 89 f3             	mov    %rsi,%r11
    67d8:	49 ff c3             	inc    %r11
    67db:	4c 89 5c 24 40       	mov    %r11,0x40(%rsp)
    67e0:	74 13                	je     67f5 <_ZN71_$LT$backtrace..symbolize..SymbolName$u20$as$u20$core..fmt..Display$GT$3fmt17h17077a10756a9dedE+0x955>
    67e2:	4d 39 dc             	cmp    %r11,%r12
    67e5:	72 0e                	jb     67f5 <_ZN71_$LT$backtrace..symbolize..SymbolName$u20$as$u20$core..fmt..Display$GT$3fmt17h17077a10756a9dedE+0x955>
    67e7:	41 8a 04 31          	mov    (%r9,%rsi,1),%al
    67eb:	3a 44 24 5c          	cmp    0x5c(%rsp),%al
    67ef:	0f 84 2e 02 00 00    	je     6a23 <_ZN71_$LT$backtrace..symbolize..SymbolName$u20$as$u20$core..fmt..Display$GT$3fmt17h17077a10756a9dedE+0xb83>
    67f5:	4c 89 e0             	mov    %r12,%rax
    67f8:	4c 29 d8             	sub    %r11,%rax
    67fb:	0f 82 31 f8 ff ff    	jb     6032 <_ZN71_$LT$backtrace..symbolize..SymbolName$u20$as$u20$core..fmt..Display$GT$3fmt17h17077a10756a9dedE+0x192>
    6801:	4b 8d 0c 19          	lea    (%r9,%r11,1),%rcx
    6805:	83 e1 07             	and    $0x7,%ecx
    6808:	48 85 c9             	test   %rcx,%rcx
    680b:	0f 84 df 00 00 00    	je     68f0 <_ZN71_$LT$backtrace..symbolize..SymbolName$u20$as$u20$core..fmt..Display$GT$3fmt17h17077a10756a9dedE+0xa50>
    6811:	41 b8 08 00 00 00    	mov    $0x8,%r8d
    6817:	bf 00 00 00 00       	mov    $0x0,%edi
    681c:	49 29 c8             	sub    %rcx,%r8
    681f:	74 65                	je     6886 <_ZN71_$LT$backtrace..symbolize..SymbolName$u20$as$u20$core..fmt..Display$GT$3fmt17h17077a10756a9dedE+0x9e6>
    6821:	4d 89 ca             	mov    %r9,%r10
    6824:	49 39 c0             	cmp    %rax,%r8
    6827:	4c 0f 47 c0          	cmova  %rax,%r8
    682b:	48 8d 14 2e          	lea    (%rsi,%rbp,1),%rdx
    682f:	4c 89 c1             	mov    %r8,%rcx
    6832:	48 f7 d9             	neg    %rcx
    6835:	48 c7 c7 ff ff ff ff 	mov    $0xffffffffffffffff,%rdi
    683c:	0f 1f 40 00          	nopl   0x0(%rax)
    6840:	4c 8d 0c 39          	lea    (%rcx,%rdi,1),%r9
    6844:	49 83 f9 ff          	cmp    $0xffffffffffffffff,%r9
    6848:	74 36                	je     6880 <_ZN71_$LT$backtrace..symbolize..SymbolName$u20$as$u20$core..fmt..Display$GT$3fmt17h17077a10756a9dedE+0x9e0>
    684a:	80 7c 3a 01 24       	cmpb   $0x24,0x1(%rdx,%rdi,1)
    684f:	48 8d 7f 01          	lea    0x1(%rdi),%rdi
    6853:	75 eb                	jne    6840 <_ZN71_$LT$backtrace..symbolize..SymbolName$u20$as$u20$core..fmt..Display$GT$3fmt17h17077a10756a9dedE+0x9a0>
    6855:	0f 94 c0             	sete   %al
    6858:	04 01                	add    $0x1,%al
    685a:	0f b6 d8             	movzbl %al,%ebx
    685d:	83 e3 01             	and    $0x1,%ebx
    6860:	48 01 fb             	add    %rdi,%rbx
    6863:	b8 01 00 00 00       	mov    $0x1,%eax
    6868:	4d 89 d1             	mov    %r10,%r9
    686b:	4d 89 df             	mov    %r11,%r15
    686e:	48 85 c0             	test   %rax,%rax
    6871:	0f 85 5a ff ff ff    	jne    67d1 <_ZN71_$LT$backtrace..symbolize..SymbolName$u20$as$u20$core..fmt..Display$GT$3fmt17h17077a10756a9dedE+0x931>
    6877:	e9 b1 f7 ff ff       	jmpq   602d <_ZN71_$LT$backtrace..symbolize..SymbolName$u20$as$u20$core..fmt..Display$GT$3fmt17h17077a10756a9dedE+0x18d>
    687c:	0f 1f 40 00          	nopl   0x0(%rax)
    6880:	4c 89 c7             	mov    %r8,%rdi
    6883:	4d 89 d1             	mov    %r10,%r9
    6886:	48 83 f8 10          	cmp    $0x10,%rax
    688a:	72 74                	jb     6900 <_ZN71_$LT$backtrace..symbolize..SymbolName$u20$as$u20$core..fmt..Display$GT$3fmt17h17077a10756a9dedE+0xa60>
    688c:	48 8d 48 f0          	lea    -0x10(%rax),%rcx
    6890:	48 39 cf             	cmp    %rcx,%rdi
    6893:	77 6b                	ja     6900 <_ZN71_$LT$backtrace..symbolize..SymbolName$u20$as$u20$core..fmt..Display$GT$3fmt17h17077a10756a9dedE+0xa60>
    6895:	48 01 ee             	add    %rbp,%rsi
    6898:	0f 1f 84 00 00 00 00 	nopl   0x0(%rax,%rax,1)
    689f:	00 
    68a0:	f3 0f 6f 04 3e       	movdqu (%rsi,%rdi,1),%xmm0
    68a5:	66 0f 6f c8          	movdqa %xmm0,%xmm1
    68a9:	66 0f ef ca          	pxor   %xmm2,%xmm1
    68ad:	66 0f d4 cb          	paddq  %xmm3,%xmm1
    68b1:	66 0f df c1          	pandn  %xmm1,%xmm0
    68b5:	66 0f db c4          	pand   %xmm4,%xmm0
    68b9:	66 48 0f 7e c2       	movq   %xmm0,%rdx
    68be:	66 0f 70 c0 4e       	pshufd $0x4e,%xmm0,%xmm0
    68c3:	66 48 0f 7e c5       	movq   %xmm0,%rbp
    68c8:	48 09 d5             	or     %rdx,%rbp
    68cb:	75 09                	jne    68d6 <_ZN71_$LT$backtrace..symbolize..SymbolName$u20$as$u20$core..fmt..Display$GT$3fmt17h17077a10756a9dedE+0xa36>
    68cd:	48 83 c7 10          	add    $0x10,%rdi
    68d1:	48 39 cf             	cmp    %rcx,%rdi
    68d4:	76 ca                	jbe    68a0 <_ZN71_$LT$backtrace..symbolize..SymbolName$u20$as$u20$core..fmt..Display$GT$3fmt17h17077a10756a9dedE+0xa00>
    68d6:	48 39 c7             	cmp    %rax,%rdi
    68d9:	0f 87 db 08 00 00    	ja     71ba <_ZN71_$LT$backtrace..symbolize..SymbolName$u20$as$u20$core..fmt..Display$GT$3fmt17h17077a10756a9dedE+0x131a>
    68df:	48 8b 6c 24 70       	mov    0x70(%rsp),%rbp
    68e4:	eb 1a                	jmp    6900 <_ZN71_$LT$backtrace..symbolize..SymbolName$u20$as$u20$core..fmt..Display$GT$3fmt17h17077a10756a9dedE+0xa60>
    68e6:	66 2e 0f 1f 84 00 00 	nopw   %cs:0x0(%rax,%rax,1)
    68ed:	00 00 00 
    68f0:	31 ff                	xor    %edi,%edi
    68f2:	48 83 f8 10          	cmp    $0x10,%rax
    68f6:	73 94                	jae    688c <_ZN71_$LT$backtrace..symbolize..SymbolName$u20$as$u20$core..fmt..Display$GT$3fmt17h17077a10756a9dedE+0x9ec>
    68f8:	0f 1f 84 00 00 00 00 	nopl   0x0(%rax,%rax,1)
    68ff:	00 
    6900:	48 01 fb             	add    %rdi,%rbx
    6903:	4c 01 fb             	add    %r15,%rbx
    6906:	48 8d 04 2b          	lea    (%rbx,%rbp,1),%rax
    690a:	48 8b 4c 24 78       	mov    0x78(%rsp),%rcx
    690f:	48 29 d9             	sub    %rbx,%rcx
    6912:	31 db                	xor    %ebx,%ebx
    6914:	66 2e 0f 1f 84 00 00 	nopw   %cs:0x0(%rax,%rax,1)
    691b:	00 00 00 
    691e:	66 90                	xchg   %ax,%ax
    6920:	48 39 d9             	cmp    %rbx,%rcx
    6923:	0f 84 97 fe ff ff    	je     67c0 <_ZN71_$LT$backtrace..symbolize..SymbolName$u20$as$u20$core..fmt..Display$GT$3fmt17h17077a10756a9dedE+0x920>
    6929:	80 3c 18 24          	cmpb   $0x24,(%rax,%rbx,1)
    692d:	48 8d 5b 01          	lea    0x1(%rbx),%rbx
    6931:	75 ed                	jne    6920 <_ZN71_$LT$backtrace..symbolize..SymbolName$u20$as$u20$core..fmt..Display$GT$3fmt17h17077a10756a9dedE+0xa80>
    6933:	0f 94 c0             	sete   %al
    6936:	04 01                	add    $0x1,%al
    6938:	0f b6 c0             	movzbl %al,%eax
    693b:	83 e0 01             	and    $0x1,%eax
    693e:	48 01 c3             	add    %rax,%rbx
    6941:	48 83 c3 ff          	add    $0xffffffffffffffff,%rbx
    6945:	b8 01 00 00 00       	mov    $0x1,%eax
    694a:	48 01 fb             	add    %rdi,%rbx
    694d:	4d 89 df             	mov    %r11,%r15
    6950:	48 85 c0             	test   %rax,%rax
    6953:	0f 85 78 fe ff ff    	jne    67d1 <_ZN71_$LT$backtrace..symbolize..SymbolName$u20$as$u20$core..fmt..Display$GT$3fmt17h17077a10756a9dedE+0x931>
    6959:	e9 cf f6 ff ff       	jmpq   602d <_ZN71_$LT$backtrace..symbolize..SymbolName$u20$as$u20$core..fmt..Display$GT$3fmt17h17077a10756a9dedE+0x18d>
    695e:	4b 8d 34 2c          	lea    (%r12,%r13,1),%rsi
    6962:	31 c0                	xor    %eax,%eax
    6964:	48 89 f7             	mov    %rsi,%rdi
    6967:	49 83 fc 02          	cmp    $0x2,%r12
    696b:	74 0c                	je     6979 <_ZN71_$LT$backtrace..symbolize..SymbolName$u20$as$u20$core..fmt..Display$GT$3fmt17h17077a10756a9dedE+0xad9>
    696d:	49 8d 7d 03          	lea    0x3(%r13),%rdi
    6971:	41 0f b6 45 02       	movzbl 0x2(%r13),%eax
    6976:	83 e0 3f             	and    $0x3f,%eax
    6979:	89 d1                	mov    %edx,%ecx
    697b:	83 e1 1f             	and    $0x1f,%ecx
    697e:	80 fa df             	cmp    $0xdf,%dl
    6981:	76 35                	jbe    69b8 <_ZN71_$LT$backtrace..symbolize..SymbolName$u20$as$u20$core..fmt..Display$GT$3fmt17h17077a10756a9dedE+0xb18>
    6983:	48 39 f7             	cmp    %rsi,%rdi
    6986:	0f 84 3c 01 00 00    	je     6ac8 <_ZN71_$LT$backtrace..symbolize..SymbolName$u20$as$u20$core..fmt..Display$GT$3fmt17h17077a10756a9dedE+0xc28>
    698c:	0f b6 2f             	movzbl (%rdi),%ebp
    698f:	48 83 c7 01          	add    $0x1,%rdi
    6993:	83 e5 3f             	and    $0x3f,%ebp
    6996:	c1 e0 06             	shl    $0x6,%eax
    6999:	09 e8                	or     %ebp,%eax
    699b:	80 fa f0             	cmp    $0xf0,%dl
    699e:	0f 82 37 01 00 00    	jb     6adb <_ZN71_$LT$backtrace..symbolize..SymbolName$u20$as$u20$core..fmt..Display$GT$3fmt17h17077a10756a9dedE+0xc3b>
    69a4:	48 39 f7             	cmp    %rsi,%rdi
    69a7:	0f 84 19 04 00 00    	je     6dc6 <_ZN71_$LT$backtrace..symbolize..SymbolName$u20$as$u20$core..fmt..Display$GT$3fmt17h17077a10756a9dedE+0xf26>
    69ad:	0f b6 17             	movzbl (%rdi),%edx
    69b0:	83 e2 3f             	and    $0x3f,%edx
    69b3:	e9 10 04 00 00       	jmpq   6dc8 <_ZN71_$LT$backtrace..symbolize..SymbolName$u20$as$u20$core..fmt..Display$GT$3fmt17h17077a10756a9dedE+0xf28>
    69b8:	c1 e1 06             	shl    $0x6,%ecx
    69bb:	09 c8                	or     %ecx,%eax
    69bd:	83 f8 2e             	cmp    $0x2e,%eax
    69c0:	0f 84 05 fc ff ff    	je     65cb <_ZN71_$LT$backtrace..symbolize..SymbolName$u20$as$u20$core..fmt..Display$GT$3fmt17h17077a10756a9dedE+0x72b>
    69c6:	48 8b 44 24 28       	mov    0x28(%rsp),%rax
    69cb:	48 8b 78 20          	mov    0x20(%rax),%rdi
    69cf:	48 8b 40 28          	mov    0x28(%rax),%rax
    69d3:	ba 01 00 00 00       	mov    $0x1,%edx
    69d8:	48 8d 35 3f 6c 03 00 	lea    0x36c3f(%rip),%rsi        # 3d61e <_ZN4core7unicode12unicode_data2cc6BITSET17h5201257bcf8f09faE+0xcbe>
    69df:	ff 50 18             	callq  *0x18(%rax)
    69e2:	84 c0                	test   %al,%al
    69e4:	0f 85 22 07 00 00    	jne    710c <_ZN71_$LT$backtrace..symbolize..SymbolName$u20$as$u20$core..fmt..Display$GT$3fmt17h17077a10756a9dedE+0x126c>
    69ea:	4c 89 6c 24 18       	mov    %r13,0x18(%rsp)
    69ef:	49 83 c5 01          	add    $0x1,%r13
    69f3:	4c 89 64 24 20       	mov    %r12,0x20(%rsp)
    69f8:	48 c7 44 24 08 01 00 	movq   $0x1,0x8(%rsp)
    69ff:	00 00 
    6a01:	4c 89 64 24 10       	mov    %r12,0x10(%rsp)
    6a06:	49 83 fc 01          	cmp    $0x1,%r12
    6a0a:	74 0b                	je     6a17 <_ZN71_$LT$backtrace..symbolize..SymbolName$u20$as$u20$core..fmt..Display$GT$3fmt17h17077a10756a9dedE+0xb77>
    6a0c:	41 80 7d 00 bf       	cmpb   $0xbf,0x0(%r13)
    6a11:	0f 8e 0d 07 00 00    	jle    7124 <_ZN71_$LT$backtrace..symbolize..SymbolName$u20$as$u20$core..fmt..Display$GT$3fmt17h17077a10756a9dedE+0x1284>
    6a17:	49 83 c4 ff          	add    $0xffffffffffffffff,%r12
    6a1b:	4d 89 e7             	mov    %r12,%r15
    6a1e:	e9 86 06 00 00       	jmpq   70a9 <_ZN71_$LT$backtrace..symbolize..SymbolName$u20$as$u20$core..fmt..Display$GT$3fmt17h17077a10756a9dedE+0x1209>
    6a23:	4c 89 6c 24 18       	mov    %r13,0x18(%rsp)
    6a28:	4c 8b 64 24 60       	mov    0x60(%rsp),%r12
    6a2d:	4c 89 64 24 20       	mov    %r12,0x20(%rsp)
    6a32:	48 c7 44 24 08 01 00 	movq   $0x1,0x8(%rsp)
    6a39:	00 00 
    6a3b:	4c 89 5c 24 10       	mov    %r11,0x10(%rsp)
    6a40:	49 83 fc 01          	cmp    $0x1,%r12
    6a44:	74 0a                	je     6a50 <_ZN71_$LT$backtrace..symbolize..SymbolName$u20$as$u20$core..fmt..Display$GT$3fmt17h17077a10756a9dedE+0xbb0>
    6a46:	41 80 39 bf          	cmpb   $0xbf,(%r9)
    6a4a:	0f 8e d4 06 00 00    	jle    7124 <_ZN71_$LT$backtrace..symbolize..SymbolName$u20$as$u20$core..fmt..Display$GT$3fmt17h17077a10756a9dedE+0x1284>
    6a50:	4d 39 dc             	cmp    %r11,%r12
    6a53:	74 12                	je     6a67 <_ZN71_$LT$backtrace..symbolize..SymbolName$u20$as$u20$core..fmt..Display$GT$3fmt17h17077a10756a9dedE+0xbc7>
    6a55:	0f 86 c9 06 00 00    	jbe    7124 <_ZN71_$LT$backtrace..symbolize..SymbolName$u20$as$u20$core..fmt..Display$GT$3fmt17h17077a10756a9dedE+0x1284>
    6a5b:	43 80 7c 1d 00 bf    	cmpb   $0xbf,0x0(%r13,%r11,1)
    6a61:	0f 8e bd 06 00 00    	jle    7124 <_ZN71_$LT$backtrace..symbolize..SymbolName$u20$as$u20$core..fmt..Display$GT$3fmt17h17077a10756a9dedE+0x1284>
    6a67:	48 89 f0             	mov    %rsi,%rax
    6a6a:	4c 89 6c 24 18       	mov    %r13,0x18(%rsp)
    6a6f:	4c 89 64 24 20       	mov    %r12,0x20(%rsp)
    6a74:	4c 89 64 24 10       	mov    %r12,0x10(%rsp)
    6a79:	48 83 c0 02          	add    $0x2,%rax
    6a7d:	48 89 44 24 08       	mov    %rax,0x8(%rsp)
    6a82:	74 17                	je     6a9b <_ZN71_$LT$backtrace..symbolize..SymbolName$u20$as$u20$core..fmt..Display$GT$3fmt17h17077a10756a9dedE+0xbfb>
    6a84:	49 39 c4             	cmp    %rax,%r12
    6a87:	74 12                	je     6a9b <_ZN71_$LT$backtrace..symbolize..SymbolName$u20$as$u20$core..fmt..Display$GT$3fmt17h17077a10756a9dedE+0xbfb>
    6a89:	0f 86 95 06 00 00    	jbe    7124 <_ZN71_$LT$backtrace..symbolize..SymbolName$u20$as$u20$core..fmt..Display$GT$3fmt17h17077a10756a9dedE+0x1284>
    6a8f:	41 80 7c 05 00 bf    	cmpb   $0xbf,0x0(%r13,%rax,1)
    6a95:	0f 8e 89 06 00 00    	jle    7124 <_ZN71_$LT$backtrace..symbolize..SymbolName$u20$as$u20$core..fmt..Display$GT$3fmt17h17077a10756a9dedE+0x1284>
    6a9b:	4e 8d 14 28          	lea    (%rax,%r13,1),%r10
    6a9f:	4d 89 e7             	mov    %r12,%r15
    6aa2:	49 29 c7             	sub    %rax,%r15
    6aa5:	48 83 fe 01          	cmp    $0x1,%rsi
    6aa9:	0f 84 6c 01 00 00    	je     6c1b <_ZN71_$LT$backtrace..symbolize..SymbolName$u20$as$u20$core..fmt..Display$GT$3fmt17h17077a10756a9dedE+0xd7b>
    6aaf:	48 83 fe 02          	cmp    $0x2,%rsi
    6ab3:	74 39                	je     6aee <_ZN71_$LT$backtrace..symbolize..SymbolName$u20$as$u20$core..fmt..Display$GT$3fmt17h17077a10756a9dedE+0xc4e>
    6ab5:	48 85 f6             	test   %rsi,%rsi
    6ab8:	0f 84 79 f5 ff ff    	je     6037 <_ZN71_$LT$backtrace..symbolize..SymbolName$u20$as$u20$core..fmt..Display$GT$3fmt17h17077a10756a9dedE+0x197>
    6abe:	41 8a 09             	mov    (%r9),%cl
    6ac1:	31 c0                	xor    %eax,%eax
    6ac3:	e9 b7 01 00 00       	jmpq   6c7f <_ZN71_$LT$backtrace..symbolize..SymbolName$u20$as$u20$core..fmt..Display$GT$3fmt17h17077a10756a9dedE+0xddf>
    6ac8:	31 ed                	xor    %ebp,%ebp
    6aca:	48 89 f7             	mov    %rsi,%rdi
    6acd:	c1 e0 06             	shl    $0x6,%eax
    6ad0:	09 e8                	or     %ebp,%eax
    6ad2:	80 fa f0             	cmp    $0xf0,%dl
    6ad5:	0f 83 c9 fe ff ff    	jae    69a4 <_ZN71_$LT$backtrace..symbolize..SymbolName$u20$as$u20$core..fmt..Display$GT$3fmt17h17077a10756a9dedE+0xb04>
    6adb:	c1 e1 0c             	shl    $0xc,%ecx
    6ade:	09 c8                	or     %ecx,%eax
    6ae0:	83 f8 2e             	cmp    $0x2e,%eax
    6ae3:	0f 84 e2 fa ff ff    	je     65cb <_ZN71_$LT$backtrace..symbolize..SymbolName$u20$as$u20$core..fmt..Display$GT$3fmt17h17077a10756a9dedE+0x72b>
    6ae9:	e9 d8 fe ff ff       	jmpq   69c6 <_ZN71_$LT$backtrace..symbolize..SymbolName$u20$as$u20$core..fmt..Display$GT$3fmt17h17077a10756a9dedE+0xb26>
    6aee:	48 8d 2d 85 66 03 00 	lea    0x36685(%rip),%rbp        # 3d17a <_ZN4core7unicode12unicode_data2cc6BITSET17h5201257bcf8f09faE+0x81a>
    6af5:	48 8d 05 6f 66 03 00 	lea    0x3666f(%rip),%rax        # 3d16b <_ZN4core7unicode12unicode_data2cc6BITSET17h5201257bcf8f09faE+0x80b>
    6afc:	49 39 c1             	cmp    %rax,%r9
    6aff:	0f 84 3a 01 00 00    	je     6c3f <_ZN71_$LT$backtrace..symbolize..SymbolName$u20$as$u20$core..fmt..Display$GT$3fmt17h17077a10756a9dedE+0xd9f>
    6b05:	41 0f b7 01          	movzwl (%r9),%eax
    6b09:	48 8d 2d 6a 66 03 00 	lea    0x3666a(%rip),%rbp        # 3d17a <_ZN4core7unicode12unicode_data2cc6BITSET17h5201257bcf8f09faE+0x81a>
    6b10:	3d 53 50 00 00       	cmp    $0x5053,%eax
    6b15:	0f 84 24 01 00 00    	je     6c3f <_ZN71_$LT$backtrace..symbolize..SymbolName$u20$as$u20$core..fmt..Display$GT$3fmt17h17077a10756a9dedE+0xd9f>
    6b1b:	48 8d 2d 59 66 03 00 	lea    0x36659(%rip),%rbp        # 3d17b <_ZN4core7unicode12unicode_data2cc6BITSET17h5201257bcf8f09faE+0x81b>
    6b22:	48 8d 05 44 66 03 00 	lea    0x36644(%rip),%rax        # 3d16d <_ZN4core7unicode12unicode_data2cc6BITSET17h5201257bcf8f09faE+0x80d>
    6b29:	49 39 c1             	cmp    %rax,%r9
    6b2c:	0f 84 0d 01 00 00    	je     6c3f <_ZN71_$LT$backtrace..symbolize..SymbolName$u20$as$u20$core..fmt..Display$GT$3fmt17h17077a10756a9dedE+0xd9f>
    6b32:	41 0f b7 01          	movzwl (%r9),%eax
    6b36:	48 8d 2d 3e 66 03 00 	lea    0x3663e(%rip),%rbp        # 3d17b <_ZN4core7unicode12unicode_data2cc6BITSET17h5201257bcf8f09faE+0x81b>
    6b3d:	3d 42 50 00 00       	cmp    $0x5042,%eax
    6b42:	0f 84 f7 00 00 00    	je     6c3f <_ZN71_$LT$backtrace..symbolize..SymbolName$u20$as$u20$core..fmt..Display$GT$3fmt17h17077a10756a9dedE+0xd9f>
    6b48:	48 8d 2d 2d 66 03 00 	lea    0x3662d(%rip),%rbp        # 3d17c <_ZN4core7unicode12unicode_data2cc6BITSET17h5201257bcf8f09faE+0x81c>
    6b4f:	48 8d 05 19 66 03 00 	lea    0x36619(%rip),%rax        # 3d16f <_ZN4core7unicode12unicode_data2cc6BITSET17h5201257bcf8f09faE+0x80f>
    6b56:	49 39 c1             	cmp    %rax,%r9
    6b59:	0f 84 e0 00 00 00    	je     6c3f <_ZN71_$LT$backtrace..symbolize..SymbolName$u20$as$u20$core..fmt..Display$GT$3fmt17h17077a10756a9dedE+0xd9f>
    6b5f:	41 0f b7 01          	movzwl (%r9),%eax
    6b63:	48 8d 2d 12 66 03 00 	lea    0x36612(%rip),%rbp        # 3d17c <_ZN4core7unicode12unicode_data2cc6BITSET17h5201257bcf8f09faE+0x81c>
    6b6a:	3d 52 46 00 00       	cmp    $0x4652,%eax
    6b6f:	0f 84 ca 00 00 00    	je     6c3f <_ZN71_$LT$backtrace..symbolize..SymbolName$u20$as$u20$core..fmt..Display$GT$3fmt17h17077a10756a9dedE+0xd9f>
    6b75:	48 8d 2d 01 66 03 00 	lea    0x36601(%rip),%rbp        # 3d17d <_ZN4core7unicode12unicode_data2cc6BITSET17h5201257bcf8f09faE+0x81d>
    6b7c:	48 8d 05 ee 65 03 00 	lea    0x365ee(%rip),%rax        # 3d171 <_ZN4core7unicode12unicode_data2cc6BITSET17h5201257bcf8f09faE+0x811>
    6b83:	49 39 c1             	cmp    %rax,%r9
    6b86:	0f 84 b3 00 00 00    	je     6c3f <_ZN71_$LT$backtrace..symbolize..SymbolName$u20$as$u20$core..fmt..Display$GT$3fmt17h17077a10756a9dedE+0xd9f>
    6b8c:	41 0f b7 01          	movzwl (%r9),%eax
    6b90:	48 8d 2d e6 65 03 00 	lea    0x365e6(%rip),%rbp        # 3d17d <_ZN4core7unicode12unicode_data2cc6BITSET17h5201257bcf8f09faE+0x81d>
    6b97:	3d 4c 54 00 00       	cmp    $0x544c,%eax
    6b9c:	0f 84 9d 00 00 00    	je     6c3f <_ZN71_$LT$backtrace..symbolize..SymbolName$u20$as$u20$core..fmt..Display$GT$3fmt17h17077a10756a9dedE+0xd9f>
    6ba2:	48 8d 2d d5 65 03 00 	lea    0x365d5(%rip),%rbp        # 3d17e <_ZN4core7unicode12unicode_data2cc6BITSET17h5201257bcf8f09faE+0x81e>
    6ba9:	48 8d 05 c3 65 03 00 	lea    0x365c3(%rip),%rax        # 3d173 <_ZN4core7unicode12unicode_data2cc6BITSET17h5201257bcf8f09faE+0x813>
    6bb0:	49 39 c1             	cmp    %rax,%r9
    6bb3:	0f 84 86 00 00 00    	je     6c3f <_ZN71_$LT$backtrace..symbolize..SymbolName$u20$as$u20$core..fmt..Display$GT$3fmt17h17077a10756a9dedE+0xd9f>
    6bb9:	41 0f b7 01          	movzwl (%r9),%eax
    6bbd:	48 8d 2d ba 65 03 00 	lea    0x365ba(%rip),%rbp        # 3d17e <_ZN4core7unicode12unicode_data2cc6BITSET17h5201257bcf8f09faE+0x81e>
    6bc4:	3d 47 54 00 00       	cmp    $0x5447,%eax
    6bc9:	74 74                	je     6c3f <_ZN71_$LT$backtrace..symbolize..SymbolName$u20$as$u20$core..fmt..Display$GT$3fmt17h17077a10756a9dedE+0xd9f>
    6bcb:	48 8d 2d ad 65 03 00 	lea    0x365ad(%rip),%rbp        # 3d17f <_ZN4core7unicode12unicode_data2cc6BITSET17h5201257bcf8f09faE+0x81f>
    6bd2:	48 8d 05 9c 65 03 00 	lea    0x3659c(%rip),%rax        # 3d175 <_ZN4core7unicode12unicode_data2cc6BITSET17h5201257bcf8f09faE+0x815>
    6bd9:	49 39 c1             	cmp    %rax,%r9
    6bdc:	74 61                	je     6c3f <_ZN71_$LT$backtrace..symbolize..SymbolName$u20$as$u20$core..fmt..Display$GT$3fmt17h17077a10756a9dedE+0xd9f>
    6bde:	41 0f b7 01          	movzwl (%r9),%eax
    6be2:	48 8d 2d 96 65 03 00 	lea    0x36596(%rip),%rbp        # 3d17f <_ZN4core7unicode12unicode_data2cc6BITSET17h5201257bcf8f09faE+0x81f>
    6be9:	3d 4c 50 00 00       	cmp    $0x504c,%eax
    6bee:	74 4f                	je     6c3f <_ZN71_$LT$backtrace..symbolize..SymbolName$u20$as$u20$core..fmt..Display$GT$3fmt17h17077a10756a9dedE+0xd9f>
    6bf0:	48 8d 2d c9 6c 03 00 	lea    0x36cc9(%rip),%rbp        # 3d8c0 <_ZN4core7unicode12unicode_data2cc6BITSET17h5201257bcf8f09faE+0xf60>
    6bf7:	48 8d 05 79 65 03 00 	lea    0x36579(%rip),%rax        # 3d177 <_ZN4core7unicode12unicode_data2cc6BITSET17h5201257bcf8f09faE+0x817>
    6bfe:	49 39 c1             	cmp    %rax,%r9
    6c01:	74 3c                	je     6c3f <_ZN71_$LT$backtrace..symbolize..SymbolName$u20$as$u20$core..fmt..Display$GT$3fmt17h17077a10756a9dedE+0xd9f>
    6c03:	41 0f b7 01          	movzwl (%r9),%eax
    6c07:	48 8d 2d b2 6c 03 00 	lea    0x36cb2(%rip),%rbp        # 3d8c0 <_ZN4core7unicode12unicode_data2cc6BITSET17h5201257bcf8f09faE+0xf60>
    6c0e:	3d 52 50 00 00       	cmp    $0x5052,%eax
    6c13:	0f 85 a5 fe ff ff    	jne    6abe <_ZN71_$LT$backtrace..symbolize..SymbolName$u20$as$u20$core..fmt..Display$GT$3fmt17h17077a10756a9dedE+0xc1e>
    6c19:	eb 24                	jmp    6c3f <_ZN71_$LT$backtrace..symbolize..SymbolName$u20$as$u20$core..fmt..Display$GT$3fmt17h17077a10756a9dedE+0xd9f>
    6c1b:	48 8d 2d 5e 65 03 00 	lea    0x3655e(%rip),%rbp        # 3d180 <_ZN4core7unicode12unicode_data2cc6BITSET17h5201257bcf8f09faE+0x820>
    6c22:	48 8d 05 50 65 03 00 	lea    0x36550(%rip),%rax        # 3d179 <_ZN4core7unicode12unicode_data2cc6BITSET17h5201257bcf8f09faE+0x819>
    6c29:	49 39 c1             	cmp    %rax,%r9
    6c2c:	74 11                	je     6c3f <_ZN71_$LT$backtrace..symbolize..SymbolName$u20$as$u20$core..fmt..Display$GT$3fmt17h17077a10756a9dedE+0xd9f>
    6c2e:	41 8a 09             	mov    (%r9),%cl
    6c31:	b0 01                	mov    $0x1,%al
    6c33:	48 8d 2d 46 65 03 00 	lea    0x36546(%rip),%rbp        # 3d180 <_ZN4core7unicode12unicode_data2cc6BITSET17h5201257bcf8f09faE+0x820>
    6c3a:	80 f9 43             	cmp    $0x43,%cl
    6c3d:	75 40                	jne    6c7f <_ZN71_$LT$backtrace..symbolize..SymbolName$u20$as$u20$core..fmt..Display$GT$3fmt17h17077a10756a9dedE+0xddf>
    6c3f:	48 8b 44 24 28       	mov    0x28(%rsp),%rax
    6c44:	48 8b 78 20          	mov    0x20(%rax),%rdi
    6c48:	48 8b 40 28          	mov    0x28(%rax),%rax
    6c4c:	ba 01 00 00 00       	mov    $0x1,%edx
    6c51:	48 89 ee             	mov    %rbp,%rsi
    6c54:	4d 89 d5             	mov    %r10,%r13
    6c57:	ff 50 18             	callq  *0x18(%rax)
    6c5a:	66 0f 6f 25 3e 37 03 	movdqa 0x3373e(%rip),%xmm4        # 3a3a0 <_fini+0x5c>
    6c61:	00 
    6c62:	66 0f 6f 1d 26 37 03 	movdqa 0x33726(%rip),%xmm3        # 3a390 <_fini+0x4c>
    6c69:	00 
    6c6a:	66 0f 6f 15 0e 37 03 	movdqa 0x3370e(%rip),%xmm2        # 3a380 <_fini+0x3c>
    6c71:	00 
    6c72:	84 c0                	test   %al,%al
    6c74:	0f 84 e6 f8 ff ff    	je     6560 <_ZN71_$LT$backtrace..symbolize..SymbolName$u20$as$u20$core..fmt..Display$GT$3fmt17h17077a10756a9dedE+0x6c0>
    6c7a:	e9 8d 04 00 00       	jmpq   710c <_ZN71_$LT$backtrace..symbolize..SymbolName$u20$as$u20$core..fmt..Display$GT$3fmt17h17077a10756a9dedE+0x126c>
    6c7f:	80 f9 75             	cmp    $0x75,%cl
    6c82:	0f 85 af f3 ff ff    	jne    6037 <_ZN71_$LT$backtrace..symbolize..SymbolName$u20$as$u20$core..fmt..Display$GT$3fmt17h17077a10756a9dedE+0x197>
    6c88:	4c 89 4c 24 18       	mov    %r9,0x18(%rsp)
    6c8d:	48 89 74 24 20       	mov    %rsi,0x20(%rsp)
    6c92:	48 c7 44 24 08 01 00 	movq   $0x1,0x8(%rsp)
    6c99:	00 00 
    6c9b:	48 89 74 24 10       	mov    %rsi,0x10(%rsp)
    6ca0:	84 c0                	test   %al,%al
    6ca2:	75 15                	jne    6cb9 <_ZN71_$LT$backtrace..symbolize..SymbolName$u20$as$u20$core..fmt..Display$GT$3fmt17h17077a10756a9dedE+0xe19>
    6ca4:	48 83 fe 02          	cmp    $0x2,%rsi
    6ca8:	0f 82 76 04 00 00    	jb     7124 <_ZN71_$LT$backtrace..symbolize..SymbolName$u20$as$u20$core..fmt..Display$GT$3fmt17h17077a10756a9dedE+0x1284>
    6cae:	41 80 7d 02 bf       	cmpb   $0xbf,0x2(%r13)
    6cb3:	0f 8e 6b 04 00 00    	jle    7124 <_ZN71_$LT$backtrace..symbolize..SymbolName$u20$as$u20$core..fmt..Display$GT$3fmt17h17077a10756a9dedE+0x1284>
    6cb9:	4c 8d 46 ff          	lea    -0x1(%rsi),%r8
    6cbd:	4a 8d 04 2e          	lea    (%rsi,%r13,1),%rax
    6cc1:	48 83 c0 01          	add    $0x1,%rax
    6cc5:	48 8b 54 24 70       	mov    0x70(%rsp),%rdx
    6cca:	48 39 c2             	cmp    %rax,%rdx
    6ccd:	75 27                	jne    6cf6 <_ZN71_$LT$backtrace..symbolize..SymbolName$u20$as$u20$core..fmt..Display$GT$3fmt17h17077a10756a9dedE+0xe56>
    6ccf:	e9 e6 00 00 00       	jmpq   6dba <_ZN71_$LT$backtrace..symbolize..SymbolName$u20$as$u20$core..fmt..Display$GT$3fmt17h17077a10756a9dedE+0xf1a>
    6cd4:	c1 e3 06             	shl    $0x6,%ebx
    6cd7:	09 df                	or     %ebx,%edi
    6cd9:	8d 4f 9f             	lea    -0x61(%rdi),%ecx
    6cdc:	83 f9 06             	cmp    $0x6,%ecx
    6cdf:	72 0c                	jb     6ced <_ZN71_$LT$backtrace..symbolize..SymbolName$u20$as$u20$core..fmt..Display$GT$3fmt17h17077a10756a9dedE+0xe4d>
    6ce1:	83 c7 d0             	add    $0xffffffd0,%edi
    6ce4:	83 ff 0a             	cmp    $0xa,%edi
    6ce7:	0f 83 f6 00 00 00    	jae    6de3 <_ZN71_$LT$backtrace..symbolize..SymbolName$u20$as$u20$core..fmt..Display$GT$3fmt17h17077a10756a9dedE+0xf43>
    6ced:	48 39 c2             	cmp    %rax,%rdx
    6cf0:	0f 84 c4 00 00 00    	je     6dba <_ZN71_$LT$backtrace..symbolize..SymbolName$u20$as$u20$core..fmt..Display$GT$3fmt17h17077a10756a9dedE+0xf1a>
    6cf6:	48 8d 4a 01          	lea    0x1(%rdx),%rcx
    6cfa:	0f b6 2a             	movzbl (%rdx),%ebp
    6cfd:	40 84 ed             	test   %bpl,%bpl
    6d00:	78 0f                	js     6d11 <_ZN71_$LT$backtrace..symbolize..SymbolName$u20$as$u20$core..fmt..Display$GT$3fmt17h17077a10756a9dedE+0xe71>
    6d02:	48 89 ca             	mov    %rcx,%rdx
    6d05:	89 ef                	mov    %ebp,%edi
    6d07:	8d 4f 9f             	lea    -0x61(%rdi),%ecx
    6d0a:	83 f9 06             	cmp    $0x6,%ecx
    6d0d:	73 d2                	jae    6ce1 <_ZN71_$LT$backtrace..symbolize..SymbolName$u20$as$u20$core..fmt..Display$GT$3fmt17h17077a10756a9dedE+0xe41>
    6d0f:	eb dc                	jmp    6ced <_ZN71_$LT$backtrace..symbolize..SymbolName$u20$as$u20$core..fmt..Display$GT$3fmt17h17077a10756a9dedE+0xe4d>
    6d11:	48 39 c1             	cmp    %rax,%rcx
    6d14:	74 18                	je     6d2e <_ZN71_$LT$backtrace..symbolize..SymbolName$u20$as$u20$core..fmt..Display$GT$3fmt17h17077a10756a9dedE+0xe8e>
    6d16:	0f b6 7a 01          	movzbl 0x1(%rdx),%edi
    6d1a:	48 83 c2 02          	add    $0x2,%rdx
    6d1e:	83 e7 3f             	and    $0x3f,%edi
    6d21:	89 eb                	mov    %ebp,%ebx
    6d23:	83 e3 1f             	and    $0x1f,%ebx
    6d26:	40 80 fd df          	cmp    $0xdf,%bpl
    6d2a:	76 a8                	jbe    6cd4 <_ZN71_$LT$backtrace..symbolize..SymbolName$u20$as$u20$core..fmt..Display$GT$3fmt17h17077a10756a9dedE+0xe34>
    6d2c:	eb 10                	jmp    6d3e <_ZN71_$LT$backtrace..symbolize..SymbolName$u20$as$u20$core..fmt..Display$GT$3fmt17h17077a10756a9dedE+0xe9e>
    6d2e:	31 ff                	xor    %edi,%edi
    6d30:	48 89 c2             	mov    %rax,%rdx
    6d33:	89 eb                	mov    %ebp,%ebx
    6d35:	83 e3 1f             	and    $0x1f,%ebx
    6d38:	40 80 fd df          	cmp    $0xdf,%bpl
    6d3c:	76 96                	jbe    6cd4 <_ZN71_$LT$backtrace..symbolize..SymbolName$u20$as$u20$core..fmt..Display$GT$3fmt17h17077a10756a9dedE+0xe34>
    6d3e:	48 39 c2             	cmp    %rax,%rdx
    6d41:	74 26                	je     6d69 <_ZN71_$LT$backtrace..symbolize..SymbolName$u20$as$u20$core..fmt..Display$GT$3fmt17h17077a10756a9dedE+0xec9>
    6d43:	0f b6 0a             	movzbl (%rdx),%ecx
    6d46:	48 83 c2 01          	add    $0x1,%rdx
    6d4a:	83 e1 3f             	and    $0x3f,%ecx
    6d4d:	c1 e7 06             	shl    $0x6,%edi
    6d50:	09 cf                	or     %ecx,%edi
    6d52:	40 80 fd f0          	cmp    $0xf0,%bpl
    6d56:	72 21                	jb     6d79 <_ZN71_$LT$backtrace..symbolize..SymbolName$u20$as$u20$core..fmt..Display$GT$3fmt17h17077a10756a9dedE+0xed9>
    6d58:	48 39 c2             	cmp    %rax,%rdx
    6d5b:	74 32                	je     6d8f <_ZN71_$LT$backtrace..symbolize..SymbolName$u20$as$u20$core..fmt..Display$GT$3fmt17h17077a10756a9dedE+0xeef>
    6d5d:	0f b6 0a             	movzbl (%rdx),%ecx
    6d60:	48 83 c2 01          	add    $0x1,%rdx
    6d64:	83 e1 3f             	and    $0x3f,%ecx
    6d67:	eb 2b                	jmp    6d94 <_ZN71_$LT$backtrace..symbolize..SymbolName$u20$as$u20$core..fmt..Display$GT$3fmt17h17077a10756a9dedE+0xef4>
    6d69:	31 c9                	xor    %ecx,%ecx
    6d6b:	48 89 c2             	mov    %rax,%rdx
    6d6e:	c1 e7 06             	shl    $0x6,%edi
    6d71:	09 cf                	or     %ecx,%edi
    6d73:	40 80 fd f0          	cmp    $0xf0,%bpl
    6d77:	73 df                	jae    6d58 <_ZN71_$LT$backtrace..symbolize..SymbolName$u20$as$u20$core..fmt..Display$GT$3fmt17h17077a10756a9dedE+0xeb8>
    6d79:	c1 e3 0c             	shl    $0xc,%ebx
    6d7c:	09 df                	or     %ebx,%edi
    6d7e:	8d 4f 9f             	lea    -0x61(%rdi),%ecx
    6d81:	83 f9 06             	cmp    $0x6,%ecx
    6d84:	0f 83 57 ff ff ff    	jae    6ce1 <_ZN71_$LT$backtrace..symbolize..SymbolName$u20$as$u20$core..fmt..Display$GT$3fmt17h17077a10756a9dedE+0xe41>
    6d8a:	e9 5e ff ff ff       	jmpq   6ced <_ZN71_$LT$backtrace..symbolize..SymbolName$u20$as$u20$core..fmt..Display$GT$3fmt17h17077a10756a9dedE+0xe4d>
    6d8f:	31 c9                	xor    %ecx,%ecx
    6d91:	48 89 c2             	mov    %rax,%rdx
    6d94:	83 e3 07             	and    $0x7,%ebx
    6d97:	c1 e3 12             	shl    $0x12,%ebx
    6d9a:	c1 e7 06             	shl    $0x6,%edi
    6d9d:	09 df                	or     %ebx,%edi
    6d9f:	09 cf                	or     %ecx,%edi
    6da1:	81 ff 00 00 11 00    	cmp    $0x110000,%edi
    6da7:	74 11                	je     6dba <_ZN71_$LT$backtrace..symbolize..SymbolName$u20$as$u20$core..fmt..Display$GT$3fmt17h17077a10756a9dedE+0xf1a>
    6da9:	8d 4f 9f             	lea    -0x61(%rdi),%ecx
    6dac:	83 f9 06             	cmp    $0x6,%ecx
    6daf:	0f 83 2c ff ff ff    	jae    6ce1 <_ZN71_$LT$backtrace..symbolize..SymbolName$u20$as$u20$core..fmt..Display$GT$3fmt17h17077a10756a9dedE+0xe41>
    6db5:	e9 33 ff ff ff       	jmpq   6ced <_ZN71_$LT$backtrace..symbolize..SymbolName$u20$as$u20$core..fmt..Display$GT$3fmt17h17077a10756a9dedE+0xe4d>
    6dba:	31 ff                	xor    %edi,%edi
    6dbc:	4d 85 c0             	test   %r8,%r8
    6dbf:	75 2e                	jne    6def <_ZN71_$LT$backtrace..symbolize..SymbolName$u20$as$u20$core..fmt..Display$GT$3fmt17h17077a10756a9dedE+0xf4f>
    6dc1:	e9 71 f2 ff ff       	jmpq   6037 <_ZN71_$LT$backtrace..symbolize..SymbolName$u20$as$u20$core..fmt..Display$GT$3fmt17h17077a10756a9dedE+0x197>
    6dc6:	31 d2                	xor    %edx,%edx
    6dc8:	83 e1 07             	and    $0x7,%ecx
    6dcb:	c1 e1 12             	shl    $0x12,%ecx
    6dce:	c1 e0 06             	shl    $0x6,%eax
    6dd1:	09 c8                	or     %ecx,%eax
    6dd3:	09 d0                	or     %edx,%eax
    6dd5:	83 f8 2e             	cmp    $0x2e,%eax
    6dd8:	0f 84 ed f7 ff ff    	je     65cb <_ZN71_$LT$backtrace..symbolize..SymbolName$u20$as$u20$core..fmt..Display$GT$3fmt17h17077a10756a9dedE+0x72b>
    6dde:	e9 e3 fb ff ff       	jmpq   69c6 <_ZN71_$LT$backtrace..symbolize..SymbolName$u20$as$u20$core..fmt..Display$GT$3fmt17h17077a10756a9dedE+0xb26>
    6de3:	40 b7 01             	mov    $0x1,%dil
    6de6:	4d 85 c0             	test   %r8,%r8
    6de9:	0f 84 48 f2 ff ff    	je     6037 <_ZN71_$LT$backtrace..symbolize..SymbolName$u20$as$u20$core..fmt..Display$GT$3fmt17h17077a10756a9dedE+0x197>
    6def:	48 8b 5c 24 70       	mov    0x70(%rsp),%rbx
    6df4:	80 3b 2b             	cmpb   $0x2b,(%rbx)
    6df7:	75 11                	jne    6e0a <_ZN71_$LT$backtrace..symbolize..SymbolName$u20$as$u20$core..fmt..Display$GT$3fmt17h17077a10756a9dedE+0xf6a>
    6df9:	48 83 c6 fe          	add    $0xfffffffffffffffe,%rsi
    6dfd:	0f 84 34 f2 ff ff    	je     6037 <_ZN71_$LT$backtrace..symbolize..SymbolName$u20$as$u20$core..fmt..Display$GT$3fmt17h17077a10756a9dedE+0x197>
    6e03:	49 8d 5d 03          	lea    0x3(%r13),%rbx
    6e07:	49 89 f0             	mov    %rsi,%r8
    6e0a:	31 c9                	xor    %ecx,%ecx
    6e0c:	31 c0                	xor    %eax,%eax
    6e0e:	49 39 c8             	cmp    %rcx,%r8
    6e11:	74 57                	je     6e6a <_ZN71_$LT$backtrace..symbolize..SymbolName$u20$as$u20$core..fmt..Display$GT$3fmt17h17077a10756a9dedE+0xfca>
    6e13:	0f b6 14 0b          	movzbl (%rbx,%rcx,1),%edx
    6e17:	8d 6a d0             	lea    -0x30(%rdx),%ebp
    6e1a:	83 fd 0a             	cmp    $0xa,%ebp
    6e1d:	72 31                	jb     6e50 <_ZN71_$LT$backtrace..symbolize..SymbolName$u20$as$u20$core..fmt..Display$GT$3fmt17h17077a10756a9dedE+0xfb0>
    6e1f:	8d 72 9f             	lea    -0x61(%rdx),%esi
    6e22:	83 fe 1a             	cmp    $0x1a,%esi
    6e25:	73 0f                	jae    6e36 <_ZN71_$LT$backtrace..symbolize..SymbolName$u20$as$u20$core..fmt..Display$GT$3fmt17h17077a10756a9dedE+0xf96>
    6e27:	83 c2 a9             	add    $0xffffffa9,%edx
    6e2a:	89 d5                	mov    %edx,%ebp
    6e2c:	83 fa 0f             	cmp    $0xf,%edx
    6e2f:	76 1f                	jbe    6e50 <_ZN71_$LT$backtrace..symbolize..SymbolName$u20$as$u20$core..fmt..Display$GT$3fmt17h17077a10756a9dedE+0xfb0>
    6e31:	e9 01 f2 ff ff       	jmpq   6037 <_ZN71_$LT$backtrace..symbolize..SymbolName$u20$as$u20$core..fmt..Display$GT$3fmt17h17077a10756a9dedE+0x197>
    6e36:	8d 72 bf             	lea    -0x41(%rdx),%esi
    6e39:	83 fe 1a             	cmp    $0x1a,%esi
    6e3c:	0f 83 f5 f1 ff ff    	jae    6037 <_ZN71_$LT$backtrace..symbolize..SymbolName$u20$as$u20$core..fmt..Display$GT$3fmt17h17077a10756a9dedE+0x197>
    6e42:	83 c2 c9             	add    $0xffffffc9,%edx
    6e45:	89 d5                	mov    %edx,%ebp
    6e47:	83 fa 0f             	cmp    $0xf,%edx
    6e4a:	0f 87 e7 f1 ff ff    	ja     6037 <_ZN71_$LT$backtrace..symbolize..SymbolName$u20$as$u20$core..fmt..Display$GT$3fmt17h17077a10756a9dedE+0x197>
    6e50:	ba 10 00 00 00       	mov    $0x10,%edx
    6e55:	f7 e2                	mul    %edx
    6e57:	0f 80 da f1 ff ff    	jo     6037 <_ZN71_$LT$backtrace..symbolize..SymbolName$u20$as$u20$core..fmt..Display$GT$3fmt17h17077a10756a9dedE+0x197>
    6e5d:	48 83 c1 01          	add    $0x1,%rcx
    6e61:	01 e8                	add    %ebp,%eax
    6e63:	73 a9                	jae    6e0e <_ZN71_$LT$backtrace..symbolize..SymbolName$u20$as$u20$core..fmt..Display$GT$3fmt17h17077a10756a9dedE+0xf6e>
    6e65:	e9 cd f1 ff ff       	jmpq   6037 <_ZN71_$LT$backtrace..symbolize..SymbolName$u20$as$u20$core..fmt..Display$GT$3fmt17h17077a10756a9dedE+0x197>
    6e6a:	3d ff ff 10 00       	cmp    $0x10ffff,%eax
    6e6f:	0f 87 c2 f1 ff ff    	ja     6037 <_ZN71_$LT$backtrace..symbolize..SymbolName$u20$as$u20$core..fmt..Display$GT$3fmt17h17077a10756a9dedE+0x197>
    6e75:	89 c1                	mov    %eax,%ecx
    6e77:	81 e1 00 f8 ff ff    	and    $0xfffff800,%ecx
    6e7d:	81 f9 00 d8 00 00    	cmp    $0xd800,%ecx
    6e83:	b9 00 00 11 00       	mov    $0x110000,%ecx
    6e88:	0f 44 c1             	cmove  %ecx,%eax
    6e8b:	3d 00 00 11 00       	cmp    $0x110000,%eax
    6e90:	0f 94 c1             	sete   %cl
    6e93:	40 08 cf             	or     %cl,%dil
    6e96:	0f 85 9b f1 ff ff    	jne    6037 <_ZN71_$LT$backtrace..symbolize..SymbolName$u20$as$u20$core..fmt..Display$GT$3fmt17h17077a10756a9dedE+0x197>
    6e9c:	4c 89 d3             	mov    %r10,%rbx
    6e9f:	89 44 24 30          	mov    %eax,0x30(%rsp)
    6ea3:	89 c1                	mov    %eax,%ecx
    6ea5:	c1 e9 06             	shr    $0x6,%ecx
    6ea8:	f7 c1 f0 7f 00 00    	test   $0x7ff0,%ecx
    6eae:	75 2d                	jne    6edd <_ZN71_$LT$backtrace..symbolize..SymbolName$u20$as$u20$core..fmt..Display$GT$3fmt17h17077a10756a9dedE+0x103d>
    6eb0:	83 e1 0f             	and    $0xf,%ecx
    6eb3:	48 8d 15 06 36 03 00 	lea    0x33606(%rip),%rdx        # 3a4c0 <_ZN4core7unicode12unicode_data2cc19BITSET_INDEX_CHUNKS17h8a1f39cd536e9344E>
    6eba:	0f b6 34 11          	movzbl (%rcx,%rdx,1),%esi
    6ebe:	48 83 fe 03          	cmp    $0x3,%rsi
    6ec2:	0f 83 fc 02 00 00    	jae    71c4 <_ZN71_$LT$backtrace..symbolize..SymbolName$u20$as$u20$core..fmt..Display$GT$3fmt17h17077a10756a9dedE+0x1324>
    6ec8:	48 8d 0d 91 5a 03 00 	lea    0x35a91(%rip),%rcx        # 3c960 <_ZN4core7unicode12unicode_data2cc6BITSET17h5201257bcf8f09faE>
    6ecf:	48 8b 0c f1          	mov    (%rcx,%rsi,8),%rcx
    6ed3:	48 0f a3 c1          	bt     %rax,%rcx
    6ed7:	0f 82 5a f1 ff ff    	jb     6037 <_ZN71_$LT$backtrace..symbolize..SymbolName$u20$as$u20$core..fmt..Display$GT$3fmt17h17077a10756a9dedE+0x197>
    6edd:	48 8d 7c 24 30       	lea    0x30(%rsp),%rdi
    6ee2:	48 8b 74 24 28       	mov    0x28(%rsp),%rsi
    6ee7:	e8 e4 3a 00 00       	callq  a9d0 <_ZN43_$LT$char$u20$as$u20$core..fmt..Display$GT$3fmt17h7792e6955f0fb677E>
    6eec:	49 89 dd             	mov    %rbx,%r13
    6eef:	84 c0                	test   %al,%al
    6ef1:	66 0f 6f 15 87 34 03 	movdqa 0x33487(%rip),%xmm2        # 3a380 <_fini+0x3c>
    6ef8:	00 
    6ef9:	66 0f 6f 1d 8f 34 03 	movdqa 0x3348f(%rip),%xmm3        # 3a390 <_fini+0x4c>
    6f00:	00 
    6f01:	66 0f 6f 25 97 34 03 	movdqa 0x33497(%rip),%xmm4        # 3a3a0 <_fini+0x5c>
    6f08:	00 
    6f09:	0f 84 51 f6 ff ff    	je     6560 <_ZN71_$LT$backtrace..symbolize..SymbolName$u20$as$u20$core..fmt..Display$GT$3fmt17h17077a10756a9dedE+0x6c0>
    6f0f:	e9 f8 01 00 00       	jmpq   710c <_ZN71_$LT$backtrace..symbolize..SymbolName$u20$as$u20$core..fmt..Display$GT$3fmt17h17077a10756a9dedE+0x126c>
    6f14:	66 2e 0f 1f 84 00 00 	nopw   %cs:0x0(%rax,%rax,1)
    6f1b:	00 00 00 
    6f1e:	66 90                	xchg   %ax,%ax
    6f20:	4f 8d 04 2c          	lea    (%r12,%r13,1),%r8
    6f24:	31 c0                	xor    %eax,%eax
    6f26:	4c 89 e9             	mov    %r13,%rcx
    6f29:	0f 1f 80 00 00 00 00 	nopl   0x0(%rax)
    6f30:	49 39 c8             	cmp    %rcx,%r8
    6f33:	0f 84 fe f0 ff ff    	je     6037 <_ZN71_$LT$backtrace..symbolize..SymbolName$u20$as$u20$core..fmt..Display$GT$3fmt17h17077a10756a9dedE+0x197>
    6f39:	48 89 c3             	mov    %rax,%rbx
    6f3c:	48 8d 51 01          	lea    0x1(%rcx),%rdx
    6f40:	0f b6 39             	movzbl (%rcx),%edi
    6f43:	40 84 ff             	test   %dil,%dil
    6f46:	78 18                	js     6f60 <_ZN71_$LT$backtrace..symbolize..SymbolName$u20$as$u20$core..fmt..Display$GT$3fmt17h17077a10756a9dedE+0x10c0>
    6f48:	89 fe                	mov    %edi,%esi
    6f4a:	83 fe 24             	cmp    $0x24,%esi
    6f4d:	0f 85 c2 00 00 00    	jne    7015 <_ZN71_$LT$backtrace..symbolize..SymbolName$u20$as$u20$core..fmt..Display$GT$3fmt17h17077a10756a9dedE+0x1175>
    6f53:	e9 d2 00 00 00       	jmpq   702a <_ZN71_$LT$backtrace..symbolize..SymbolName$u20$as$u20$core..fmt..Display$GT$3fmt17h17077a10756a9dedE+0x118a>
    6f58:	0f 1f 84 00 00 00 00 	nopl   0x0(%rax,%rax,1)
    6f5f:	00 
    6f60:	4c 39 c2             	cmp    %r8,%rdx
    6f63:	74 4d                	je     6fb2 <_ZN71_$LT$backtrace..symbolize..SymbolName$u20$as$u20$core..fmt..Display$GT$3fmt17h17077a10756a9dedE+0x1112>
    6f65:	48 8d 51 02          	lea    0x2(%rcx),%rdx
    6f69:	0f b6 71 01          	movzbl 0x1(%rcx),%esi
    6f6d:	83 e6 3f             	and    $0x3f,%esi
    6f70:	48 89 d0             	mov    %rdx,%rax
    6f73:	89 fd                	mov    %edi,%ebp
    6f75:	83 e5 1f             	and    $0x1f,%ebp
    6f78:	40 80 ff df          	cmp    $0xdf,%dil
    6f7c:	76 44                	jbe    6fc2 <_ZN71_$LT$backtrace..symbolize..SymbolName$u20$as$u20$core..fmt..Display$GT$3fmt17h17077a10756a9dedE+0x1122>
    6f7e:	4c 39 c0             	cmp    %r8,%rax
    6f81:	74 4b                	je     6fce <_ZN71_$LT$backtrace..symbolize..SymbolName$u20$as$u20$core..fmt..Display$GT$3fmt17h17077a10756a9dedE+0x112e>
    6f83:	44 0f b6 08          	movzbl (%rax),%r9d
    6f87:	48 83 c0 01          	add    $0x1,%rax
    6f8b:	41 83 e1 3f          	and    $0x3f,%r9d
    6f8f:	48 89 c2             	mov    %rax,%rdx
    6f92:	c1 e6 06             	shl    $0x6,%esi
    6f95:	44 09 ce             	or     %r9d,%esi
    6f98:	40 80 ff f0          	cmp    $0xf0,%dil
    6f9c:	72 42                	jb     6fe0 <_ZN71_$LT$backtrace..symbolize..SymbolName$u20$as$u20$core..fmt..Display$GT$3fmt17h17077a10756a9dedE+0x1140>
    6f9e:	4c 39 c0             	cmp    %r8,%rax
    6fa1:	74 49                	je     6fec <_ZN71_$LT$backtrace..symbolize..SymbolName$u20$as$u20$core..fmt..Display$GT$3fmt17h17077a10756a9dedE+0x114c>
    6fa3:	0f b6 38             	movzbl (%rax),%edi
    6fa6:	48 83 c0 01          	add    $0x1,%rax
    6faa:	83 e7 3f             	and    $0x3f,%edi
    6fad:	48 89 c2             	mov    %rax,%rdx
    6fb0:	eb 3c                	jmp    6fee <_ZN71_$LT$backtrace..symbolize..SymbolName$u20$as$u20$core..fmt..Display$GT$3fmt17h17077a10756a9dedE+0x114e>
    6fb2:	31 f6                	xor    %esi,%esi
    6fb4:	4c 89 c0             	mov    %r8,%rax
    6fb7:	89 fd                	mov    %edi,%ebp
    6fb9:	83 e5 1f             	and    $0x1f,%ebp
    6fbc:	40 80 ff df          	cmp    $0xdf,%dil
    6fc0:	77 bc                	ja     6f7e <_ZN71_$LT$backtrace..symbolize..SymbolName$u20$as$u20$core..fmt..Display$GT$3fmt17h17077a10756a9dedE+0x10de>
    6fc2:	c1 e5 06             	shl    $0x6,%ebp
    6fc5:	09 ee                	or     %ebp,%esi
    6fc7:	83 fe 24             	cmp    $0x24,%esi
    6fca:	75 49                	jne    7015 <_ZN71_$LT$backtrace..symbolize..SymbolName$u20$as$u20$core..fmt..Display$GT$3fmt17h17077a10756a9dedE+0x1175>
    6fcc:	eb 5c                	jmp    702a <_ZN71_$LT$backtrace..symbolize..SymbolName$u20$as$u20$core..fmt..Display$GT$3fmt17h17077a10756a9dedE+0x118a>
    6fce:	45 31 c9             	xor    %r9d,%r9d
    6fd1:	4c 89 c0             	mov    %r8,%rax
    6fd4:	c1 e6 06             	shl    $0x6,%esi
    6fd7:	44 09 ce             	or     %r9d,%esi
    6fda:	40 80 ff f0          	cmp    $0xf0,%dil
    6fde:	73 be                	jae    6f9e <_ZN71_$LT$backtrace..symbolize..SymbolName$u20$as$u20$core..fmt..Display$GT$3fmt17h17077a10756a9dedE+0x10fe>
    6fe0:	c1 e5 0c             	shl    $0xc,%ebp
    6fe3:	09 ee                	or     %ebp,%esi
    6fe5:	83 fe 24             	cmp    $0x24,%esi
    6fe8:	75 2b                	jne    7015 <_ZN71_$LT$backtrace..symbolize..SymbolName$u20$as$u20$core..fmt..Display$GT$3fmt17h17077a10756a9dedE+0x1175>
    6fea:	eb 3e                	jmp    702a <_ZN71_$LT$backtrace..symbolize..SymbolName$u20$as$u20$core..fmt..Display$GT$3fmt17h17077a10756a9dedE+0x118a>
    6fec:	31 ff                	xor    %edi,%edi
    6fee:	83 e5 07             	and    $0x7,%ebp
    6ff1:	c1 e5 12             	shl    $0x12,%ebp
    6ff4:	c1 e6 06             	shl    $0x6,%esi
    6ff7:	09 ee                	or     %ebp,%esi
    6ff9:	09 fe                	or     %edi,%esi
    6ffb:	81 fe 00 00 11 00    	cmp    $0x110000,%esi
    7001:	0f 84 30 f0 ff ff    	je     6037 <_ZN71_$LT$backtrace..symbolize..SymbolName$u20$as$u20$core..fmt..Display$GT$3fmt17h17077a10756a9dedE+0x197>
    7007:	66 0f 1f 84 00 00 00 	nopw   0x0(%rax,%rax,1)
    700e:	00 00 
    7010:	83 fe 24             	cmp    $0x24,%esi
    7013:	74 15                	je     702a <_ZN71_$LT$backtrace..symbolize..SymbolName$u20$as$u20$core..fmt..Display$GT$3fmt17h17077a10756a9dedE+0x118a>
    7015:	48 89 d8             	mov    %rbx,%rax
    7018:	48 29 c8             	sub    %rcx,%rax
    701b:	48 01 d0             	add    %rdx,%rax
    701e:	48 89 d1             	mov    %rdx,%rcx
    7021:	83 fe 2e             	cmp    $0x2e,%esi
    7024:	0f 85 06 ff ff ff    	jne    6f30 <_ZN71_$LT$backtrace..symbolize..SymbolName$u20$as$u20$core..fmt..Display$GT$3fmt17h17077a10756a9dedE+0x1090>
    702a:	4c 89 6c 24 30       	mov    %r13,0x30(%rsp)
    702f:	4c 89 64 24 38       	mov    %r12,0x38(%rsp)
    7034:	48 85 db             	test   %rbx,%rbx
    7037:	0f 94 c0             	sete   %al
    703a:	4d 89 e7             	mov    %r12,%r15
    703d:	49 29 df             	sub    %rbx,%r15
    7040:	40 0f 94 c5          	sete   %bpl
    7044:	40 08 c5             	or     %al,%bpl
    7047:	75 15                	jne    705e <_ZN71_$LT$backtrace..symbolize..SymbolName$u20$as$u20$core..fmt..Display$GT$3fmt17h17077a10756a9dedE+0x11be>
    7049:	49 39 dc             	cmp    %rbx,%r12
    704c:	0f 86 42 01 00 00    	jbe    7194 <_ZN71_$LT$backtrace..symbolize..SymbolName$u20$as$u20$core..fmt..Display$GT$3fmt17h17077a10756a9dedE+0x12f4>
    7052:	41 80 7c 1d 00 bf    	cmpb   $0xbf,0x0(%r13,%rbx,1)
    7058:	0f 8e 36 01 00 00    	jle    7194 <_ZN71_$LT$backtrace..symbolize..SymbolName$u20$as$u20$core..fmt..Display$GT$3fmt17h17077a10756a9dedE+0x12f4>
    705e:	48 8b 44 24 28       	mov    0x28(%rsp),%rax
    7063:	48 8b 78 20          	mov    0x20(%rax),%rdi
    7067:	48 8b 40 28          	mov    0x28(%rax),%rax
    706b:	4c 89 ee             	mov    %r13,%rsi
    706e:	48 89 da             	mov    %rbx,%rdx
    7071:	ff 50 18             	callq  *0x18(%rax)
    7074:	84 c0                	test   %al,%al
    7076:	0f 85 90 00 00 00    	jne    710c <_ZN71_$LT$backtrace..symbolize..SymbolName$u20$as$u20$core..fmt..Display$GT$3fmt17h17077a10756a9dedE+0x126c>
    707c:	4c 89 6c 24 18       	mov    %r13,0x18(%rsp)
    7081:	4c 89 64 24 20       	mov    %r12,0x20(%rsp)
    7086:	48 89 5c 24 08       	mov    %rbx,0x8(%rsp)
    708b:	4c 89 64 24 10       	mov    %r12,0x10(%rsp)
    7090:	40 84 ed             	test   %bpl,%bpl
    7093:	75 11                	jne    70a6 <_ZN71_$LT$backtrace..symbolize..SymbolName$u20$as$u20$core..fmt..Display$GT$3fmt17h17077a10756a9dedE+0x1206>
    7095:	49 39 dc             	cmp    %rbx,%r12
    7098:	0f 86 86 00 00 00    	jbe    7124 <_ZN71_$LT$backtrace..symbolize..SymbolName$u20$as$u20$core..fmt..Display$GT$3fmt17h17077a10756a9dedE+0x1284>
    709e:	41 80 7c 1d 00 bf    	cmpb   $0xbf,0x0(%r13,%rbx,1)
    70a4:	7e 7e                	jle    7124 <_ZN71_$LT$backtrace..symbolize..SymbolName$u20$as$u20$core..fmt..Display$GT$3fmt17h17077a10756a9dedE+0x1284>
    70a6:	49 01 dd             	add    %rbx,%r13
    70a9:	66 0f 6f 15 cf 32 03 	movdqa 0x332cf(%rip),%xmm2        # 3a380 <_fini+0x3c>
    70b0:	00 
    70b1:	66 0f 6f 1d d7 32 03 	movdqa 0x332d7(%rip),%xmm3        # 3a390 <_fini+0x4c>
    70b8:	00 
    70b9:	66 0f 6f 25 df 32 03 	movdqa 0x332df(%rip),%xmm4        # 3a3a0 <_fini+0x5c>
    70c0:	00 
    70c1:	4d 89 fc             	mov    %r15,%r12
    70c4:	4d 85 ff             	test   %r15,%r15
    70c7:	0f 85 9f f4 ff ff    	jne    656c <_ZN71_$LT$backtrace..symbolize..SymbolName$u20$as$u20$core..fmt..Display$GT$3fmt17h17077a10756a9dedE+0x6cc>
    70cd:	e9 4e fe ff ff       	jmpq   6f20 <_ZN71_$LT$backtrace..symbolize..SymbolName$u20$as$u20$core..fmt..Display$GT$3fmt17h17077a10756a9dedE+0x1080>
    70d2:	48 8b 84 24 88 00 00 	mov    0x88(%rsp),%rax
    70d9:	00 
    70da:	48 8b 70 40          	mov    0x40(%rax),%rsi
    70de:	48 8b 50 48          	mov    0x48(%rax),%rdx
    70e2:	48 8b 44 24 28       	mov    0x28(%rsp),%rax
    70e7:	48 8b 78 20          	mov    0x20(%rax),%rdi
    70eb:	48 8b 40 28          	mov    0x28(%rax),%rax
    70ef:	ff 50 18             	callq  *0x18(%rax)
    70f2:	eb 1e                	jmp    7112 <_ZN71_$LT$backtrace..symbolize..SymbolName$u20$as$u20$core..fmt..Display$GT$3fmt17h17077a10756a9dedE+0x1272>
    70f4:	48 8b 74 24 38       	mov    0x38(%rsp),%rsi
    70f9:	48 8b 54 24 40       	mov    0x40(%rsp),%rdx
    70fe:	48 8b 7c 24 28       	mov    0x28(%rsp),%rdi
    7103:	e8 c8 0b 00 00       	callq  7cd0 <_ZN4core3fmt9Formatter3pad17h7ef001ba65c2db9cE>
    7108:	84 c0                	test   %al,%al
    710a:	74 04                	je     7110 <_ZN71_$LT$backtrace..symbolize..SymbolName$u20$as$u20$core..fmt..Display$GT$3fmt17h17077a10756a9dedE+0x1270>
    710c:	b0 01                	mov    $0x1,%al
    710e:	eb 02                	jmp    7112 <_ZN71_$LT$backtrace..symbolize..SymbolName$u20$as$u20$core..fmt..Display$GT$3fmt17h17077a10756a9dedE+0x1272>
    7110:	31 c0                	xor    %eax,%eax
    7112:	48 81 c4 98 00 00 00 	add    $0x98,%rsp
    7119:	5b                   	pop    %rbx
    711a:	41 5c                	pop    %r12
    711c:	41 5d                	pop    %r13
    711e:	41 5e                	pop    %r14
    7120:	41 5f                	pop    %r15
    7122:	5d                   	pop    %rbp
    7123:	c3                   	retq   
    7124:	48 8d 44 24 18       	lea    0x18(%rsp),%rax
    7129:	48 89 44 24 30       	mov    %rax,0x30(%rsp)
    712e:	48 8d 44 24 08       	lea    0x8(%rsp),%rax
    7133:	48 89 44 24 38       	mov    %rax,0x38(%rsp)
    7138:	48 8d 44 24 10       	lea    0x10(%rsp),%rax
    713d:	48 89 44 24 40       	mov    %rax,0x40(%rsp)
    7142:	48 8d 7c 24 30       	lea    0x30(%rsp),%rdi
    7147:	e8 94 6b 01 00       	callq  1dce0 <_ZN4core3str6traits101_$LT$impl$u20$core..slice..SliceIndex$LT$str$GT$$u20$for$u20$core..ops..range..Range$LT$usize$GT$$GT$5index28_$u7b$$u7b$closure$u7d$$u7d$17hd529a7a73bc70800E>
    714c:	0f 0b                	ud2    
    714e:	48 8d 3d cc 61 03 00 	lea    0x361cc(%rip),%rdi        # 3d321 <_ZN4core7unicode12unicode_data2cc6BITSET17h5201257bcf8f09faE+0x9c1>
    7155:	48 8d 15 84 fb 23 00 	lea    0x23fb84(%rip),%rdx        # 246ce0 <__init_array_end+0xcd0>
    715c:	be 2b 00 00 00       	mov    $0x2b,%esi
    7161:	e8 4a 02 00 00       	callq  73b0 <_ZN4core9panicking5panic17h6861470adfbddef8E>
    7166:	0f 0b                	ud2    
    7168:	b2 01                	mov    $0x1,%dl
    716a:	88 54 24 30          	mov    %dl,0x30(%rsp)
    716e:	48 8d 3d 4c 67 03 00 	lea    0x3674c(%rip),%rdi        # 3d8c1 <_ZN4core7unicode12unicode_data2cc6BITSET17h5201257bcf8f09faE+0xf61>
    7175:	48 8d 0d 7c fb 23 00 	lea    0x23fb7c(%rip),%rcx        # 246cf8 <__init_array_end+0xce8>
    717c:	4c 8d 05 95 fb 23 00 	lea    0x23fb95(%rip),%r8        # 246d18 <__init_array_end+0xd08>
    7183:	48 8d 54 24 30       	lea    0x30(%rsp),%rdx
    7188:	be 2b 00 00 00       	mov    $0x2b,%esi
    718d:	e8 ce 2a 00 00       	callq  9c60 <_ZN4core6option18expect_none_failed17he0fec195c6e4c2ecE>
    7192:	0f 0b                	ud2    
    7194:	48 8d 7c 24 30       	lea    0x30(%rsp),%rdi
    7199:	48 89 de             	mov    %rbx,%rsi
    719c:	e8 1f 6b 01 00       	callq  1dcc0 <_ZN4core3str6traits103_$LT$impl$u20$core..slice..SliceIndex$LT$str$GT$$u20$for$u20$core..ops..range..RangeTo$LT$usize$GT$$GT$5index28_$u7b$$u7b$closure$u7d$$u7d$17ha84ce7feeb82c1fdE>
    71a1:	0f 0b                	ud2    
    71a3:	48 89 ef             	mov    %rbp,%rdi
    71a6:	48 89 de             	mov    %rbx,%rsi
    71a9:	e8 a2 0a 00 00       	callq  7c50 <_ZN4core5slice22slice_index_order_fail17h7bcf2f94ba9e06deE>
    71ae:	0f 0b                	ud2    
    71b0:	4c 89 e6             	mov    %r12,%rsi
    71b3:	e8 98 0a 00 00       	callq  7c50 <_ZN4core5slice22slice_index_order_fail17h7bcf2f94ba9e06deE>
    71b8:	0f 0b                	ud2    
    71ba:	48 89 c6             	mov    %rax,%rsi
    71bd:	e8 8e 0a 00 00       	callq  7c50 <_ZN4core5slice22slice_index_order_fail17h7bcf2f94ba9e06deE>
    71c2:	0f 0b                	ud2    
    71c4:	48 8d 3d dd f1 23 00 	lea    0x23f1dd(%rip),%rdi        # 2463a8 <__init_array_end+0x398>
    71cb:	ba 03 00 00 00       	mov    $0x3,%edx
    71d0:	e8 2b 02 00 00       	callq  7400 <_ZN4core9panicking18panic_bounds_check17h83121a2515f55ceeE>
    71d5:	0f 0b                	ud2    
    71d7:	48 8d 7c 24 30       	lea    0x30(%rsp),%rdi
    71dc:	4c 89 fe             	mov    %r15,%rsi
    71df:	e8 dc 6a 01 00       	callq  1dcc0 <_ZN4core3str6traits103_$LT$impl$u20$core..slice..SliceIndex$LT$str$GT$$u20$for$u20$core..ops..range..RangeTo$LT$usize$GT$$GT$5index28_$u7b$$u7b$closure$u7d$$u7d$17ha84ce7feeb82c1fdE>
    71e4:	0f 0b                	ud2    
    71e6:	31 d2                	xor    %edx,%edx
    71e8:	eb 80                	jmp    716a <_ZN71_$LT$backtrace..symbolize..SymbolName$u20$as$u20$core..fmt..Display$GT$3fmt17h17077a10756a9dedE+0x12ca>
    71ea:	66 0f 1f 44 00 00    	nopw   0x0(%rax,%rax,1)

00000000000071f0 <_ZN9backtrace9backtrace9libunwind5trace8trace_fn17hd9e9e3922687a990E>:
    71f0:	48 83 ec 18          	sub    $0x18,%rsp
    71f4:	48 c7 04 24 00 00 00 	movq   $0x0,(%rsp)
    71fb:	00 
    71fc:	48 89 7c 24 08       	mov    %rdi,0x8(%rsp)
    7201:	48 8b 3e             	mov    (%rsi),%rdi
    7204:	48 8b 46 08          	mov    0x8(%rsi),%rax
    7208:	48 89 e6             	mov    %rsp,%rsi
    720b:	ff 50 18             	callq  *0x18(%rax)
    720e:	34 01                	xor    $0x1,%al
    7210:	0f b6 c0             	movzbl %al,%eax
    7213:	8d 04 c0             	lea    (%rax,%rax,8),%eax
    7216:	48 83 c4 18          	add    $0x18,%rsp
    721a:	c3                   	retq   
    721b:	e8 10 00 00 00       	callq  7230 <_ZN4core3ptr13drop_in_place17h53b75667231ab1f7E>
    7220:	0f 0b                	ud2    
    7222:	66 2e 0f 1f 84 00 00 	nopw   %cs:0x0(%rax,%rax,1)
    7229:	00 00 00 
    722c:	0f 1f 40 00          	nopl   0x0(%rax)

0000000000007230 <_ZN4core3ptr13drop_in_place17h53b75667231ab1f7E>:
    7230:	50                   	push   %rax
    7231:	48 8d 3d 99 3d 03 00 	lea    0x33d99(%rip),%rdi        # 3afd1 <_ZN4core7unicode12unicode_data2cc19BITSET_INDEX_CHUNKS17h8a1f39cd536e9344E+0xb11>
    7238:	48 8d 15 e9 ee 23 00 	lea    0x23eee9(%rip),%rdx        # 246128 <__init_array_end+0x118>
    723f:	be 2a 00 00 00       	mov    $0x2a,%esi
    7244:	e8 67 01 00 00       	callq  73b0 <_ZN4core9panicking5panic17h6861470adfbddef8E>
    7249:	0f 0b                	ud2    
    724b:	0f 1f 44 00 00       	nopl   0x0(%rax,%rax,1)

0000000000007250 <_ZN9backtrace9symbolize12libbacktrace8error_cb17h86374d9caead850cE>:
    7250:	c3                   	retq   
    7251:	66 2e 0f 1f 84 00 00 	nopw   %cs:0x0(%rax,%rax,1)
    7258:	00 00 00 
    725b:	0f 1f 44 00 00       	nopl   0x0(%rax,%rax,1)

0000000000007260 <_ZN9backtrace9symbolize12libbacktrace10syminfo_cb17hfad1c2595b5b9bc6E>:
    7260:	41 57                	push   %r15
    7262:	41 56                	push   %r14
    7264:	53                   	push   %rbx
    7265:	48 83 ec 50          	sub    $0x50,%rsp
    7269:	49 89 d7             	mov    %rdx,%r15
    726c:	49 89 f6             	mov    %rsi,%r14
    726f:	48 89 fb             	mov    %rdi,%rbx
    7272:	0f 10 07             	movups (%rdi),%xmm0
    7275:	0f 29 04 24          	movaps %xmm0,(%rsp)
    7279:	48 89 54 24 10       	mov    %rdx,0x10(%rsp)
    727e:	c6 44 24 18 00       	movb   $0x0,0x18(%rsp)
    7283:	48 8b 3d ce 0d 24 00 	mov    0x240dce(%rip),%rdi        # 248058 <_ZN9backtrace9symbolize12libbacktrace10init_state5STATE17hda2ae0499012601eE>
    728a:	48 85 ff             	test   %rdi,%rdi
    728d:	75 1d                	jne    72ac <_ZN9backtrace9symbolize12libbacktrace10syminfo_cb17hfad1c2595b5b9bc6E+0x4c>
    728f:	48 8d 15 ba ff ff ff 	lea    -0x46(%rip),%rdx        # 7250 <_ZN9backtrace9symbolize12libbacktrace8error_cb17h86374d9caead850cE>
    7296:	31 ff                	xor    %edi,%edi
    7298:	31 f6                	xor    %esi,%esi
    729a:	31 c9                	xor    %ecx,%ecx
    729c:	ff 15 26 0b 24 00    	callq  *0x240b26(%rip)        # 247dc8 <_GLOBAL_OFFSET_TABLE_+0xd8>
    72a2:	48 89 c7             	mov    %rax,%rdi
    72a5:	48 89 05 ac 0d 24 00 	mov    %rax,0x240dac(%rip)        # 248058 <_ZN9backtrace9symbolize12libbacktrace10init_state5STATE17hda2ae0499012601eE>
    72ac:	48 8b 73 10          	mov    0x10(%rbx),%rsi
    72b0:	48 8d 15 59 00 00 00 	lea    0x59(%rip),%rdx        # 7310 <_ZN9backtrace9symbolize12libbacktrace9pcinfo_cb17h50d83df67359738aE>
    72b7:	48 8d 0d 92 ff ff ff 	lea    -0x6e(%rip),%rcx        # 7250 <_ZN9backtrace9symbolize12libbacktrace8error_cb17h86374d9caead850cE>
    72be:	49 89 e0             	mov    %rsp,%r8
    72c1:	ff 15 11 0b 24 00    	callq  *0x240b11(%rip)        # 247dd8 <_GLOBAL_OFFSET_TABLE_+0xe8>
    72c7:	80 7c 24 18 00       	cmpb   $0x0,0x18(%rsp)
    72cc:	75 23                	jne    72f1 <_ZN9backtrace9symbolize12libbacktrace10syminfo_cb17hfad1c2595b5b9bc6E+0x91>
    72ce:	48 8b 3c 24          	mov    (%rsp),%rdi
    72d2:	48 8b 44 24 08       	mov    0x8(%rsp),%rax
    72d7:	c7 44 24 28 00 00 00 	movl   $0x0,0x28(%rsp)
    72de:	00 
    72df:	4c 89 74 24 30       	mov    %r14,0x30(%rsp)
    72e4:	4c 89 7c 24 38       	mov    %r15,0x38(%rsp)
    72e9:	48 8d 74 24 28       	lea    0x28(%rsp),%rsi
    72ee:	ff 50 18             	callq  *0x18(%rax)
    72f1:	48 83 c4 50          	add    $0x50,%rsp
    72f5:	5b                   	pop    %rbx
    72f6:	41 5e                	pop    %r14
    72f8:	41 5f                	pop    %r15
    72fa:	c3                   	retq   
    72fb:	e8 30 ff ff ff       	callq  7230 <_ZN4core3ptr13drop_in_place17h53b75667231ab1f7E>
    7300:	0f 0b                	ud2    
    7302:	66 2e 0f 1f 84 00 00 	nopw   %cs:0x0(%rax,%rax,1)
    7309:	00 00 00 
    730c:	0f 1f 40 00          	nopl   0x0(%rax)

0000000000007310 <_ZN9backtrace9symbolize12libbacktrace9pcinfo_cb17h50d83df67359738aE>:
    7310:	48 83 ec 28          	sub    $0x28,%rsp
    7314:	b8 ff ff ff ff       	mov    $0xffffffff,%eax
    7319:	48 85 d2             	test   %rdx,%rdx
    731c:	74 3f                	je     735d <_ZN9backtrace9symbolize12libbacktrace9pcinfo_cb17h50d83df67359738aE+0x4d>
    731e:	4d 85 c0             	test   %r8,%r8
    7321:	74 3a                	je     735d <_ZN9backtrace9symbolize12libbacktrace9pcinfo_cb17h50d83df67359738aE+0x4d>
    7323:	c6 47 18 01          	movb   $0x1,0x18(%rdi)
    7327:	48 8b 07             	mov    (%rdi),%rax
    732a:	4c 8b 4f 08          	mov    0x8(%rdi),%r9
    732e:	48 8b 7f 10          	mov    0x10(%rdi),%rdi
    7332:	c7 04 24 01 00 00 00 	movl   $0x1,(%rsp)
    7339:	89 4c 24 04          	mov    %ecx,0x4(%rsp)
    733d:	48 89 74 24 08       	mov    %rsi,0x8(%rsp)
    7342:	48 89 54 24 10       	mov    %rdx,0x10(%rsp)
    7347:	4c 89 44 24 18       	mov    %r8,0x18(%rsp)
    734c:	48 89 7c 24 20       	mov    %rdi,0x20(%rsp)
    7351:	48 89 e6             	mov    %rsp,%rsi
    7354:	48 89 c7             	mov    %rax,%rdi
    7357:	41 ff 51 18          	callq  *0x18(%r9)
    735b:	31 c0                	xor    %eax,%eax
    735d:	48 83 c4 28          	add    $0x28,%rsp
    7361:	c3                   	retq   
    7362:	e8 c9 fe ff ff       	callq  7230 <_ZN4core3ptr13drop_in_place17h53b75667231ab1f7E>
    7367:	0f 0b                	ud2    
    7369:	0f 1f 80 00 00 00 00 	nopl   0x0(%rax)

0000000000007370 <_ZN9backtrace9symbolize12libbacktrace7resolve28_$u7b$$u7b$closure$u7d$$u7d$17h3de75ca001dcb813E>:
    7370:	48 8b 07             	mov    (%rdi),%rax
    7373:	c6 00 01             	movb   $0x1,(%rax)
    7376:	48 8b 47 08          	mov    0x8(%rdi),%rax
    737a:	48 8b 38             	mov    (%rax),%rdi
    737d:	48 8b 40 08          	mov    0x8(%rax),%rax
    7381:	48 8b 40 18          	mov    0x18(%rax),%rax
    7385:	ff e0                	jmpq   *%rax
    7387:	66 0f 1f 84 00 00 00 	nopw   0x0(%rax,%rax,1)
    738e:	00 00 

0000000000007390 <_ZN4core3ops8function6FnOnce40call_once$u7b$$u7b$vtable.shim$u7d$$u7d$17h7de23211b782e1b5E>:
    7390:	48 8b 07             	mov    (%rdi),%rax
    7393:	48 8b 4f 08          	mov    0x8(%rdi),%rcx
    7397:	c6 00 01             	movb   $0x1,(%rax)
    739a:	48 8b 39             	mov    (%rcx),%rdi
    739d:	48 8b 41 08          	mov    0x8(%rcx),%rax
    73a1:	48 8b 40 18          	mov    0x18(%rax),%rax
    73a5:	ff e0                	jmpq   *%rax
    73a7:	66 0f 1f 84 00 00 00 	nopw   0x0(%rax,%rax,1)
    73ae:	00 00 

00000000000073b0 <_ZN4core9panicking5panic17h6861470adfbddef8E>:
    73b0:	48 83 ec 48          	sub    $0x48,%rsp
    73b4:	48 89 7c 24 08       	mov    %rdi,0x8(%rsp)
    73b9:	48 89 74 24 10       	mov    %rsi,0x10(%rsp)
    73be:	48 8d 44 24 08       	lea    0x8(%rsp),%rax
    73c3:	48 89 44 24 18       	mov    %rax,0x18(%rsp)
    73c8:	48 c7 44 24 20 01 00 	movq   $0x1,0x20(%rsp)
    73cf:	00 00 
    73d1:	48 c7 44 24 28 00 00 	movq   $0x0,0x28(%rsp)
    73d8:	00 00 
    73da:	48 8d 05 57 60 03 00 	lea    0x36057(%rip),%rax        # 3d438 <_ZN4core7unicode12unicode_data2cc6BITSET17h5201257bcf8f09faE+0xad8>
    73e1:	48 89 44 24 38       	mov    %rax,0x38(%rsp)
    73e6:	48 c7 44 24 40 00 00 	movq   $0x0,0x40(%rsp)
    73ed:	00 00 
    73ef:	48 8d 7c 24 18       	lea    0x18(%rsp),%rdi
    73f4:	48 89 d6             	mov    %rdx,%rsi
    73f7:	e8 b4 01 00 00       	callq  75b0 <_ZN4core9panicking9panic_fmt17he168e49e4b05d288E>
    73fc:	0f 0b                	ud2    
    73fe:	66 90                	xchg   %ax,%ax

0000000000007400 <_ZN4core9panicking18panic_bounds_check17h83121a2515f55ceeE>:
    7400:	48 83 ec 68          	sub    $0x68,%rsp
    7404:	48 89 f8             	mov    %rdi,%rax
    7407:	48 89 74 24 08       	mov    %rsi,0x8(%rsp)
    740c:	48 89 54 24 10       	mov    %rdx,0x10(%rsp)
    7411:	48 8d 4c 24 10       	lea    0x10(%rsp),%rcx
    7416:	48 89 4c 24 18       	mov    %rcx,0x18(%rsp)
    741b:	48 8d 0d 5e 00 00 00 	lea    0x5e(%rip),%rcx        # 7480 <_ZN4core3fmt3num3imp52_$LT$impl$u20$core..fmt..Display$u20$for$u20$u64$GT$3fmt17h29103e8b1c853837E>
    7422:	48 89 4c 24 20       	mov    %rcx,0x20(%rsp)
    7427:	48 8d 54 24 08       	lea    0x8(%rsp),%rdx
    742c:	48 89 54 24 28       	mov    %rdx,0x28(%rsp)
    7431:	48 89 4c 24 30       	mov    %rcx,0x30(%rsp)
    7436:	48 8d 0d 2b ed 23 00 	lea    0x23ed2b(%rip),%rcx        # 246168 <__init_array_end+0x158>
    743d:	48 89 4c 24 38       	mov    %rcx,0x38(%rsp)
    7442:	48 c7 44 24 40 02 00 	movq   $0x2,0x40(%rsp)
    7449:	00 00 
    744b:	48 c7 44 24 48 00 00 	movq   $0x0,0x48(%rsp)
    7452:	00 00 
    7454:	48 8d 4c 24 18       	lea    0x18(%rsp),%rcx
    7459:	48 89 4c 24 58       	mov    %rcx,0x58(%rsp)
    745e:	48 c7 44 24 60 02 00 	movq   $0x2,0x60(%rsp)
    7465:	00 00 
    7467:	48 8d 7c 24 38       	lea    0x38(%rsp),%rdi
    746c:	48 89 c6             	mov    %rax,%rsi
    746f:	e8 3c 01 00 00       	callq  75b0 <_ZN4core9panicking9panic_fmt17he168e49e4b05d288E>
    7474:	0f 0b                	ud2    
    7476:	66 2e 0f 1f 84 00 00 	nopw   %cs:0x0(%rax,%rax,1)
    747d:	00 00 00 

0000000000007480 <_ZN4core3fmt3num3imp52_$LT$impl$u20$core..fmt..Display$u20$for$u20$u64$GT$3fmt17h29103e8b1c853837E>:
    7480:	48 83 ec 28          	sub    $0x28,%rsp
    7484:	49 89 f2             	mov    %rsi,%r10
    7487:	48 8b 37             	mov    (%rdi),%rsi
    748a:	41 bb 27 00 00 00    	mov    $0x27,%r11d
    7490:	48 81 fe 10 27 00 00 	cmp    $0x2710,%rsi
    7497:	0f 82 bc 00 00 00    	jb     7559 <_ZN4core3fmt3num3imp52_$LT$impl$u20$core..fmt..Display$u20$for$u20$u64$GT$3fmt17h29103e8b1c853837E+0xd9>
    749d:	41 bb 27 00 00 00    	mov    $0x27,%r11d
    74a3:	49 b8 4b 59 86 38 d6 	movabs $0x346dc5d63886594b,%r8
    74aa:	c5 6d 34 
    74ad:	4c 8d 0d b6 41 03 00 	lea    0x341b6(%rip),%r9        # 3b66a <_ZN4core3str15UTF8_CHAR_WIDTH17h639c7c3d8ce7e983E+0x112>
    74b4:	66 2e 0f 1f 84 00 00 	nopw   %cs:0x0(%rax,%rax,1)
    74bb:	00 00 00 
    74be:	66 90                	xchg   %ax,%ax
    74c0:	48 89 f0             	mov    %rsi,%rax
    74c3:	49 f7 e0             	mul    %r8
    74c6:	48 c1 ea 0b          	shr    $0xb,%rdx
    74ca:	69 c2 10 27 00 00    	imul   $0x2710,%edx,%eax
    74d0:	89 f1                	mov    %esi,%ecx
    74d2:	29 c1                	sub    %eax,%ecx
    74d4:	0f b7 c1             	movzwl %cx,%eax
    74d7:	c1 e8 02             	shr    $0x2,%eax
    74da:	69 c0 7b 14 00 00    	imul   $0x147b,%eax,%eax
    74e0:	c1 e8 11             	shr    $0x11,%eax
    74e3:	6b f8 64             	imul   $0x64,%eax,%edi
    74e6:	29 f9                	sub    %edi,%ecx
    74e8:	0f b7 c9             	movzwl %cx,%ecx
    74eb:	41 0f b7 04 41       	movzwl (%r9,%rax,2),%eax
    74f0:	66 42 89 44 1c fd    	mov    %ax,-0x3(%rsp,%r11,1)
    74f6:	41 0f b7 04 49       	movzwl (%r9,%rcx,2),%eax
    74fb:	66 42 89 44 1c ff    	mov    %ax,-0x1(%rsp,%r11,1)
    7501:	49 83 c3 fc          	add    $0xfffffffffffffffc,%r11
    7505:	48 81 fe ff e0 f5 05 	cmp    $0x5f5e0ff,%rsi
    750c:	48 89 d6             	mov    %rdx,%rsi
    750f:	77 af                	ja     74c0 <_ZN4core3fmt3num3imp52_$LT$impl$u20$core..fmt..Display$u20$for$u20$u64$GT$3fmt17h29103e8b1c853837E+0x40>
    7511:	48 83 fa 63          	cmp    $0x63,%rdx
    7515:	7e 2f                	jle    7546 <_ZN4core3fmt3num3imp52_$LT$impl$u20$core..fmt..Display$u20$for$u20$u64$GT$3fmt17h29103e8b1c853837E+0xc6>
    7517:	0f b7 c2             	movzwl %dx,%eax
    751a:	c1 e8 02             	shr    $0x2,%eax
    751d:	69 c0 7b 14 00 00    	imul   $0x147b,%eax,%eax
    7523:	c1 e8 11             	shr    $0x11,%eax
    7526:	6b c8 64             	imul   $0x64,%eax,%ecx
    7529:	29 ca                	sub    %ecx,%edx
    752b:	0f b7 ca             	movzwl %dx,%ecx
    752e:	48 8d 15 35 41 03 00 	lea    0x34135(%rip),%rdx        # 3b66a <_ZN4core3str15UTF8_CHAR_WIDTH17h639c7c3d8ce7e983E+0x112>
    7535:	0f b7 0c 4a          	movzwl (%rdx,%rcx,2),%ecx
    7539:	66 42 89 4c 1c ff    	mov    %cx,-0x1(%rsp,%r11,1)
    753f:	49 83 c3 fe          	add    $0xfffffffffffffffe,%r11
    7543:	48 89 c2             	mov    %rax,%rdx
    7546:	48 83 fa 0a          	cmp    $0xa,%rdx
    754a:	7d 18                	jge    7564 <_ZN4core3fmt3num3imp52_$LT$impl$u20$core..fmt..Display$u20$for$u20$u64$GT$3fmt17h29103e8b1c853837E+0xe4>
    754c:	80 c2 30             	add    $0x30,%dl
    754f:	42 88 14 1c          	mov    %dl,(%rsp,%r11,1)
    7553:	49 83 c3 ff          	add    $0xffffffffffffffff,%r11
    7557:	eb 20                	jmp    7579 <_ZN4core3fmt3num3imp52_$LT$impl$u20$core..fmt..Display$u20$for$u20$u64$GT$3fmt17h29103e8b1c853837E+0xf9>
    7559:	48 89 f2             	mov    %rsi,%rdx
    755c:	48 83 fa 63          	cmp    $0x63,%rdx
    7560:	7f b5                	jg     7517 <_ZN4core3fmt3num3imp52_$LT$impl$u20$core..fmt..Display$u20$for$u20$u64$GT$3fmt17h29103e8b1c853837E+0x97>
    7562:	eb e2                	jmp    7546 <_ZN4core3fmt3num3imp52_$LT$impl$u20$core..fmt..Display$u20$for$u20$u64$GT$3fmt17h29103e8b1c853837E+0xc6>
    7564:	48 8d 05 ff 40 03 00 	lea    0x340ff(%rip),%rax        # 3b66a <_ZN4core3str15UTF8_CHAR_WIDTH17h639c7c3d8ce7e983E+0x112>
    756b:	0f b7 04 50          	movzwl (%rax,%rdx,2),%eax
    756f:	66 42 89 44 1c ff    	mov    %ax,-0x1(%rsp,%r11,1)
    7575:	49 83 c3 fe          	add    $0xfffffffffffffffe,%r11
    7579:	4e 8d 04 1c          	lea    (%rsp,%r11,1),%r8
    757d:	49 83 c0 01          	add    $0x1,%r8
    7581:	41 b9 27 00 00 00    	mov    $0x27,%r9d
    7587:	4d 29 d9             	sub    %r11,%r9
    758a:	48 8d 15 a7 5e 03 00 	lea    0x35ea7(%rip),%rdx        # 3d438 <_ZN4core7unicode12unicode_data2cc6BITSET17h5201257bcf8f09faE+0xad8>
    7591:	4c 89 d7             	mov    %r10,%rdi
    7594:	be 01 00 00 00       	mov    $0x1,%esi
    7599:	31 c9                	xor    %ecx,%ecx
    759b:	e8 50 00 00 00       	callq  75f0 <_ZN4core3fmt9Formatter12pad_integral17hc55c32e78eb96054E>
    75a0:	48 83 c4 28          	add    $0x28,%rsp
    75a4:	c3                   	retq   
    75a5:	66 2e 0f 1f 84 00 00 	nopw   %cs:0x0(%rax,%rax,1)
    75ac:	00 00 00 
    75af:	90                   	nop

00000000000075b0 <_ZN4core9panicking9panic_fmt17he168e49e4b05d288E>:
    75b0:	48 83 ec 28          	sub    $0x28,%rsp
    75b4:	48 8d 05 7d 5e 03 00 	lea    0x35e7d(%rip),%rax        # 3d438 <_ZN4core7unicode12unicode_data2cc6BITSET17h5201257bcf8f09faE+0xad8>
    75bb:	48 89 44 24 08       	mov    %rax,0x8(%rsp)
    75c0:	48 8d 05 c1 eb 23 00 	lea    0x23ebc1(%rip),%rax        # 246188 <__init_array_end+0x178>
    75c7:	48 89 44 24 10       	mov    %rax,0x10(%rsp)
    75cc:	48 89 7c 24 18       	mov    %rdi,0x18(%rsp)
    75d1:	48 89 74 24 20       	mov    %rsi,0x20(%rsp)
    75d6:	48 8d 7c 24 08       	lea    0x8(%rsp),%rdi
    75db:	e8 40 c4 01 00       	callq  23a20 <rust_begin_unwind>
    75e0:	0f 0b                	ud2    
    75e2:	66 2e 0f 1f 84 00 00 	nopw   %cs:0x0(%rax,%rax,1)
    75e9:	00 00 00 
    75ec:	0f 1f 40 00          	nopl   0x0(%rax)

00000000000075f0 <_ZN4core3fmt9Formatter12pad_integral17hc55c32e78eb96054E>:
    75f0:	55                   	push   %rbp
    75f1:	41 57                	push   %r15
    75f3:	41 56                	push   %r14
    75f5:	41 55                	push   %r13
    75f7:	41 54                	push   %r12
    75f9:	53                   	push   %rbx
    75fa:	48 83 ec 18          	sub    $0x18,%rsp
    75fe:	4d 89 cf             	mov    %r9,%r15
    7601:	4c 89 c5             	mov    %r8,%rbp
    7604:	49 89 cc             	mov    %rcx,%r12
    7607:	49 89 d5             	mov    %rdx,%r13
    760a:	48 89 fb             	mov    %rdi,%rbx
    760d:	40 84 f6             	test   %sil,%sil
    7610:	74 52                	je     7664 <_ZN4core3fmt9Formatter12pad_integral17hc55c32e78eb96054E+0x74>
    7612:	44 8b 43 30          	mov    0x30(%rbx),%r8d
    7616:	45 89 c1             	mov    %r8d,%r9d
    7619:	41 83 e1 01          	and    $0x1,%r9d
    761d:	45 85 c9             	test   %r9d,%r9d
    7620:	ba 00 00 11 00       	mov    $0x110000,%edx
    7625:	41 be 2b 00 00 00    	mov    $0x2b,%r14d
    762b:	44 0f 44 f2          	cmove  %edx,%r14d
    762f:	4d 01 f9             	add    %r15,%r9
    7632:	41 f6 c0 04          	test   $0x4,%r8b
    7636:	74 40                	je     7678 <_ZN4core3fmt9Formatter12pad_integral17hc55c32e78eb96054E+0x88>
    7638:	49 89 ea             	mov    %rbp,%r10
    763b:	4d 85 e4             	test   %r12,%r12
    763e:	74 78                	je     76b8 <_ZN4core3fmt9Formatter12pad_integral17hc55c32e78eb96054E+0xc8>
    7640:	49 8d 54 24 ff       	lea    -0x1(%r12),%rdx
    7645:	44 89 e5             	mov    %r12d,%ebp
    7648:	83 e5 03             	and    $0x3,%ebp
    764b:	48 83 fa 03          	cmp    $0x3,%rdx
    764f:	73 6e                	jae    76bf <_ZN4core3fmt9Formatter12pad_integral17hc55c32e78eb96054E+0xcf>
    7651:	31 f6                	xor    %esi,%esi
    7653:	4c 89 ef             	mov    %r13,%rdi
    7656:	48 85 ed             	test   %rbp,%rbp
    7659:	0f 85 1b 01 00 00    	jne    777a <_ZN4core3fmt9Formatter12pad_integral17hc55c32e78eb96054E+0x18a>
    765f:	e9 37 01 00 00       	jmpq   779b <_ZN4core3fmt9Formatter12pad_integral17hc55c32e78eb96054E+0x1ab>
    7664:	4d 8d 4f 01          	lea    0x1(%r15),%r9
    7668:	44 8b 43 30          	mov    0x30(%rbx),%r8d
    766c:	41 be 2d 00 00 00    	mov    $0x2d,%r14d
    7672:	41 f6 c0 04          	test   $0x4,%r8b
    7676:	75 c0                	jne    7638 <_ZN4core3fmt9Formatter12pad_integral17hc55c32e78eb96054E+0x48>
    7678:	45 31 ed             	xor    %r13d,%r13d
    767b:	48 83 3b 01          	cmpq   $0x1,(%rbx)
    767f:	0f 84 29 01 00 00    	je     77ae <_ZN4core3fmt9Formatter12pad_integral17hc55c32e78eb96054E+0x1be>
    7685:	48 89 df             	mov    %rbx,%rdi
    7688:	44 89 f6             	mov    %r14d,%esi
    768b:	4c 89 ea             	mov    %r13,%rdx
    768e:	4c 89 e1             	mov    %r12,%rcx
    7691:	e8 5a 03 00 00       	callq  79f0 <_ZN4core3fmt9Formatter12pad_integral12write_prefix17h9f1b96f1c06957eeE>
    7696:	41 b4 01             	mov    $0x1,%r12b
    7699:	84 c0                	test   %al,%al
    769b:	0f 85 35 03 00 00    	jne    79d6 <_ZN4core3fmt9Formatter12pad_integral17hc55c32e78eb96054E+0x3e6>
    76a1:	48 8b 7b 20          	mov    0x20(%rbx),%rdi
    76a5:	48 8b 43 28          	mov    0x28(%rbx),%rax
    76a9:	48 8b 40 18          	mov    0x18(%rax),%rax
    76ad:	48 89 ee             	mov    %rbp,%rsi
    76b0:	4c 89 fa             	mov    %r15,%rdx
    76b3:	e9 75 01 00 00       	jmpq   782d <_ZN4core3fmt9Formatter12pad_integral17hc55c32e78eb96054E+0x23d>
    76b8:	31 f6                	xor    %esi,%esi
    76ba:	e9 dc 00 00 00       	jmpq   779b <_ZN4core3fmt9Formatter12pad_integral17hc55c32e78eb96054E+0x1ab>
    76bf:	48 89 ea             	mov    %rbp,%rdx
    76c2:	4c 29 e2             	sub    %r12,%rdx
    76c5:	31 f6                	xor    %esi,%esi
    76c7:	66 0f 6f 05 e1 2c 03 	movdqa 0x32ce1(%rip),%xmm0        # 3a3b0 <_fini+0x6c>
    76ce:	00 
    76cf:	66 0f 6f 0d e9 2c 03 	movdqa 0x32ce9(%rip),%xmm1        # 3a3c0 <_fini+0x7c>
    76d6:	00 
    76d7:	66 0f 6f 15 f1 2c 03 	movdqa 0x32cf1(%rip),%xmm2        # 3a3d0 <_fini+0x8c>
    76de:	00 
    76df:	4c 89 ef             	mov    %r13,%rdi
    76e2:	66 2e 0f 1f 84 00 00 	nopw   %cs:0x0(%rax,%rax,1)
    76e9:	00 00 00 
    76ec:	0f 1f 40 00          	nopl   0x0(%rax)
    76f0:	0f b6 4f 03          	movzbl 0x3(%rdi),%ecx
    76f4:	66 0f 6e d9          	movd   %ecx,%xmm3
    76f8:	0f b6 4f 02          	movzbl 0x2(%rdi),%ecx
    76fc:	66 0f 6e e1          	movd   %ecx,%xmm4
    7700:	66 0f 62 e3          	punpckldq %xmm3,%xmm4
    7704:	0f b6 4f 01          	movzbl 0x1(%rdi),%ecx
    7708:	66 0f 6e d9          	movd   %ecx,%xmm3
    770c:	0f b6 0f             	movzbl (%rdi),%ecx
    770f:	66 0f 6e e9          	movd   %ecx,%xmm5
    7713:	66 0f 62 eb          	punpckldq %xmm3,%xmm5
    7717:	66 0f 6c ec          	punpcklqdq %xmm4,%xmm5
    771b:	66 0f db e8          	pand   %xmm0,%xmm5
    771f:	66 0f 76 e9          	pcmpeqd %xmm1,%xmm5
    7723:	66 0f 70 dd d4       	pshufd $0xd4,%xmm5,%xmm3
    7728:	66 0f 73 f3 38       	psllq  $0x38,%xmm3
    772d:	66 0f 6f e3          	movdqa %xmm3,%xmm4
    7731:	66 0f 72 e4 1f       	psrad  $0x1f,%xmm4
    7736:	66 0f 70 e4 ed       	pshufd $0xed,%xmm4,%xmm4
    773b:	66 0f 72 e3 18       	psrad  $0x18,%xmm3
    7740:	66 0f 70 db ed       	pshufd $0xed,%xmm3,%xmm3
    7745:	66 0f 62 dc          	punpckldq %xmm4,%xmm3
    7749:	66 0f 70 e5 f6       	pshufd $0xf6,%xmm5,%xmm4
    774e:	66 0f db e2          	pand   %xmm2,%xmm4
    7752:	66 0f fb e3          	psubq  %xmm3,%xmm4
    7756:	48 83 c7 04          	add    $0x4,%rdi
    775a:	66 0f 70 dc 4e       	pshufd $0x4e,%xmm4,%xmm3
    775f:	66 0f d4 dc          	paddq  %xmm4,%xmm3
    7763:	66 48 0f 7e d9       	movq   %xmm3,%rcx
    7768:	48 01 ce             	add    %rcx,%rsi
    776b:	48 83 c2 04          	add    $0x4,%rdx
    776f:	0f 85 7b ff ff ff    	jne    76f0 <_ZN4core3fmt9Formatter12pad_integral17hc55c32e78eb96054E+0x100>
    7775:	48 85 ed             	test   %rbp,%rbp
    7778:	74 21                	je     779b <_ZN4core3fmt9Formatter12pad_integral17hc55c32e78eb96054E+0x1ab>
    777a:	31 d2                	xor    %edx,%edx
    777c:	0f 1f 40 00          	nopl   0x0(%rax)
    7780:	0f b6 0c 17          	movzbl (%rdi,%rdx,1),%ecx
    7784:	80 e1 c0             	and    $0xc0,%cl
    7787:	31 c0                	xor    %eax,%eax
    7789:	80 f9 80             	cmp    $0x80,%cl
    778c:	0f 94 c0             	sete   %al
    778f:	48 01 c6             	add    %rax,%rsi
    7792:	48 83 c2 01          	add    $0x1,%rdx
    7796:	48 39 d5             	cmp    %rdx,%rbp
    7799:	75 e5                	jne    7780 <_ZN4core3fmt9Formatter12pad_integral17hc55c32e78eb96054E+0x190>
    779b:	4d 01 e1             	add    %r12,%r9
    779e:	49 29 f1             	sub    %rsi,%r9
    77a1:	4c 89 d5             	mov    %r10,%rbp
    77a4:	48 83 3b 01          	cmpq   $0x1,(%rbx)
    77a8:	0f 85 d7 fe ff ff    	jne    7685 <_ZN4core3fmt9Formatter12pad_integral17hc55c32e78eb96054E+0x95>
    77ae:	4c 89 7c 24 10       	mov    %r15,0x10(%rsp)
    77b3:	48 8b 53 08          	mov    0x8(%rbx),%rdx
    77b7:	49 89 d7             	mov    %rdx,%r15
    77ba:	4d 29 cf             	sub    %r9,%r15
    77bd:	76 3e                	jbe    77fd <_ZN4core3fmt9Formatter12pad_integral17hc55c32e78eb96054E+0x20d>
    77bf:	41 f6 c0 08          	test   $0x8,%r8b
    77c3:	75 78                	jne    783d <_ZN4core3fmt9Formatter12pad_integral17hc55c32e78eb96054E+0x24d>
    77c5:	48 89 6c 24 08       	mov    %rbp,0x8(%rsp)
    77ca:	4c 29 ca             	sub    %r9,%rdx
    77cd:	8b 43 38             	mov    0x38(%rbx),%eax
    77d0:	3c 03                	cmp    $0x3,%al
    77d2:	b9 01 00 00 00       	mov    $0x1,%ecx
    77d7:	0f 45 c8             	cmovne %eax,%ecx
    77da:	31 ed                	xor    %ebp,%ebp
    77dc:	0f b6 c1             	movzbl %cl,%eax
    77df:	48 8d 0d 5a 2d 03 00 	lea    0x32d5a(%rip),%rcx        # 3a540 <_ZN4core7unicode12unicode_data2cc19BITSET_INDEX_CHUNKS17h8a1f39cd536e9344E+0x80>
    77e6:	48 63 04 81          	movslq (%rcx,%rax,4),%rax
    77ea:	48 01 c8             	add    %rcx,%rax
    77ed:	49 89 d7             	mov    %rdx,%r15
    77f0:	ff e0                	jmpq   *%rax
    77f2:	45 31 ff             	xor    %r15d,%r15d
    77f5:	48 89 d5             	mov    %rdx,%rbp
    77f8:	e9 b8 00 00 00       	jmpq   78b5 <_ZN4core3fmt9Formatter12pad_integral17hc55c32e78eb96054E+0x2c5>
    77fd:	48 89 df             	mov    %rbx,%rdi
    7800:	44 89 f6             	mov    %r14d,%esi
    7803:	4c 89 ea             	mov    %r13,%rdx
    7806:	4c 89 e1             	mov    %r12,%rcx
    7809:	e8 e2 01 00 00       	callq  79f0 <_ZN4core3fmt9Formatter12pad_integral12write_prefix17h9f1b96f1c06957eeE>
    780e:	41 b4 01             	mov    $0x1,%r12b
    7811:	84 c0                	test   %al,%al
    7813:	48 8b 54 24 10       	mov    0x10(%rsp),%rdx
    7818:	0f 85 b8 01 00 00    	jne    79d6 <_ZN4core3fmt9Formatter12pad_integral17hc55c32e78eb96054E+0x3e6>
    781e:	48 8b 7b 20          	mov    0x20(%rbx),%rdi
    7822:	48 8b 43 28          	mov    0x28(%rbx),%rax
    7826:	48 8b 40 18          	mov    0x18(%rax),%rax
    782a:	48 89 ee             	mov    %rbp,%rsi
    782d:	48 83 c4 18          	add    $0x18,%rsp
    7831:	5b                   	pop    %rbx
    7832:	41 5c                	pop    %r12
    7834:	41 5d                	pop    %r13
    7836:	41 5e                	pop    %r14
    7838:	41 5f                	pop    %r15
    783a:	5d                   	pop    %rbp
    783b:	ff e0                	jmpq   *%rax
    783d:	8b 43 34             	mov    0x34(%rbx),%eax
    7840:	89 44 24 08          	mov    %eax,0x8(%rsp)
    7844:	c7 43 34 30 00 00 00 	movl   $0x30,0x34(%rbx)
    784b:	8a 43 38             	mov    0x38(%rbx),%al
    784e:	88 44 24 07          	mov    %al,0x7(%rsp)
    7852:	c6 43 38 01          	movb   $0x1,0x38(%rbx)
    7856:	48 89 df             	mov    %rbx,%rdi
    7859:	44 89 f6             	mov    %r14d,%esi
    785c:	4c 89 ea             	mov    %r13,%rdx
    785f:	4c 89 e1             	mov    %r12,%rcx
    7862:	e8 89 01 00 00       	callq  79f0 <_ZN4core3fmt9Formatter12pad_integral12write_prefix17h9f1b96f1c06957eeE>
    7867:	41 b4 01             	mov    $0x1,%r12b
    786a:	84 c0                	test   %al,%al
    786c:	0f 85 64 01 00 00    	jne    79d6 <_ZN4core3fmt9Formatter12pad_integral17hc55c32e78eb96054E+0x3e6>
    7872:	49 89 ee             	mov    %rbp,%r14
    7875:	8b 43 38             	mov    0x38(%rbx),%eax
    7878:	3c 03                	cmp    $0x3,%al
    787a:	b9 01 00 00 00       	mov    $0x1,%ecx
    787f:	0f 45 c8             	cmovne %eax,%ecx
    7882:	31 ed                	xor    %ebp,%ebp
    7884:	0f b6 c1             	movzbl %cl,%eax
    7887:	48 8d 0d a2 2c 03 00 	lea    0x32ca2(%rip),%rcx        # 3a530 <_ZN4core7unicode12unicode_data2cc19BITSET_INDEX_CHUNKS17h8a1f39cd536e9344E+0x70>
    788e:	48 63 04 81          	movslq (%rcx,%rax,4),%rax
    7892:	48 01 c8             	add    %rcx,%rax
    7895:	4d 89 fd             	mov    %r15,%r13
    7898:	ff e0                	jmpq   *%rax
    789a:	45 31 ed             	xor    %r13d,%r13d
    789d:	4c 89 fd             	mov    %r15,%rbp
    78a0:	e9 b6 00 00 00       	jmpq   795b <_ZN4core3fmt9Formatter12pad_integral17hc55c32e78eb96054E+0x36b>
    78a5:	48 89 d5             	mov    %rdx,%rbp
    78a8:	48 d1 ed             	shr    %rbp
    78ab:	48 83 c2 01          	add    $0x1,%rdx
    78af:	48 d1 ea             	shr    %rdx
    78b2:	49 89 d7             	mov    %rdx,%r15
    78b5:	48 83 c5 01          	add    $0x1,%rbp
    78b9:	0f 1f 80 00 00 00 00 	nopl   0x0(%rax)
    78c0:	48 83 c5 ff          	add    $0xffffffffffffffff,%rbp
    78c4:	74 1a                	je     78e0 <_ZN4core3fmt9Formatter12pad_integral17hc55c32e78eb96054E+0x2f0>
    78c6:	48 8b 7b 20          	mov    0x20(%rbx),%rdi
    78ca:	48 8b 43 28          	mov    0x28(%rbx),%rax
    78ce:	8b 73 34             	mov    0x34(%rbx),%esi
    78d1:	ff 50 20             	callq  *0x20(%rax)
    78d4:	84 c0                	test   %al,%al
    78d6:	74 e8                	je     78c0 <_ZN4core3fmt9Formatter12pad_integral17hc55c32e78eb96054E+0x2d0>
    78d8:	41 b4 01             	mov    $0x1,%r12b
    78db:	e9 f6 00 00 00       	jmpq   79d6 <_ZN4core3fmt9Formatter12pad_integral17hc55c32e78eb96054E+0x3e6>
    78e0:	8b 6b 34             	mov    0x34(%rbx),%ebp
    78e3:	48 89 df             	mov    %rbx,%rdi
    78e6:	44 89 f6             	mov    %r14d,%esi
    78e9:	4c 89 ea             	mov    %r13,%rdx
    78ec:	4c 89 e1             	mov    %r12,%rcx
    78ef:	e8 fc 00 00 00       	callq  79f0 <_ZN4core3fmt9Formatter12pad_integral12write_prefix17h9f1b96f1c06957eeE>
    78f4:	41 b4 01             	mov    $0x1,%r12b
    78f7:	84 c0                	test   %al,%al
    78f9:	0f 85 d7 00 00 00    	jne    79d6 <_ZN4core3fmt9Formatter12pad_integral17hc55c32e78eb96054E+0x3e6>
    78ff:	48 8b 7b 20          	mov    0x20(%rbx),%rdi
    7903:	48 8b 43 28          	mov    0x28(%rbx),%rax
    7907:	48 8b 74 24 08       	mov    0x8(%rsp),%rsi
    790c:	48 8b 54 24 10       	mov    0x10(%rsp),%rdx
    7911:	ff 50 18             	callq  *0x18(%rax)
    7914:	84 c0                	test   %al,%al
    7916:	0f 85 ba 00 00 00    	jne    79d6 <_ZN4core3fmt9Formatter12pad_integral17hc55c32e78eb96054E+0x3e6>
    791c:	4c 8b 73 20          	mov    0x20(%rbx),%r14
    7920:	48 8b 5b 28          	mov    0x28(%rbx),%rbx
    7924:	49 83 c7 01          	add    $0x1,%r15
    7928:	0f 1f 84 00 00 00 00 	nopl   0x0(%rax,%rax,1)
    792f:	00 
    7930:	49 83 c7 ff          	add    $0xffffffffffffffff,%r15
    7934:	0f 84 99 00 00 00    	je     79d3 <_ZN4core3fmt9Formatter12pad_integral17hc55c32e78eb96054E+0x3e3>
    793a:	4c 89 f7             	mov    %r14,%rdi
    793d:	89 ee                	mov    %ebp,%esi
    793f:	ff 53 20             	callq  *0x20(%rbx)
    7942:	84 c0                	test   %al,%al
    7944:	74 ea                	je     7930 <_ZN4core3fmt9Formatter12pad_integral17hc55c32e78eb96054E+0x340>
    7946:	e9 8b 00 00 00       	jmpq   79d6 <_ZN4core3fmt9Formatter12pad_integral17hc55c32e78eb96054E+0x3e6>
    794b:	4c 89 fd             	mov    %r15,%rbp
    794e:	48 d1 ed             	shr    %rbp
    7951:	49 83 c7 01          	add    $0x1,%r15
    7955:	49 d1 ef             	shr    %r15
    7958:	4d 89 fd             	mov    %r15,%r13
    795b:	48 83 c5 01          	add    $0x1,%rbp
    795f:	90                   	nop
    7960:	48 83 c5 ff          	add    $0xffffffffffffffff,%rbp
    7964:	74 14                	je     797a <_ZN4core3fmt9Formatter12pad_integral17hc55c32e78eb96054E+0x38a>
    7966:	48 8b 7b 20          	mov    0x20(%rbx),%rdi
    796a:	48 8b 43 28          	mov    0x28(%rbx),%rax
    796e:	8b 73 34             	mov    0x34(%rbx),%esi
    7971:	ff 50 20             	callq  *0x20(%rax)
    7974:	84 c0                	test   %al,%al
    7976:	74 e8                	je     7960 <_ZN4core3fmt9Formatter12pad_integral17hc55c32e78eb96054E+0x370>
    7978:	eb 5c                	jmp    79d6 <_ZN4core3fmt9Formatter12pad_integral17hc55c32e78eb96054E+0x3e6>
    797a:	44 8b 7b 34          	mov    0x34(%rbx),%r15d
    797e:	48 8b 7b 20          	mov    0x20(%rbx),%rdi
    7982:	48 8b 43 28          	mov    0x28(%rbx),%rax
    7986:	4c 89 f6             	mov    %r14,%rsi
    7989:	48 8b 54 24 10       	mov    0x10(%rsp),%rdx
    798e:	ff 50 18             	callq  *0x18(%rax)
    7991:	84 c0                	test   %al,%al
    7993:	75 41                	jne    79d6 <_ZN4core3fmt9Formatter12pad_integral17hc55c32e78eb96054E+0x3e6>
    7995:	4c 8b 73 20          	mov    0x20(%rbx),%r14
    7999:	48 8b 6b 28          	mov    0x28(%rbx),%rbp
    799d:	49 83 c5 01          	add    $0x1,%r13
    79a1:	66 2e 0f 1f 84 00 00 	nopw   %cs:0x0(%rax,%rax,1)
    79a8:	00 00 00 
    79ab:	0f 1f 44 00 00       	nopl   0x0(%rax,%rax,1)
    79b0:	49 83 c5 ff          	add    $0xffffffffffffffff,%r13
    79b4:	74 0f                	je     79c5 <_ZN4core3fmt9Formatter12pad_integral17hc55c32e78eb96054E+0x3d5>
    79b6:	4c 89 f7             	mov    %r14,%rdi
    79b9:	44 89 fe             	mov    %r15d,%esi
    79bc:	ff 55 20             	callq  *0x20(%rbp)
    79bf:	84 c0                	test   %al,%al
    79c1:	74 ed                	je     79b0 <_ZN4core3fmt9Formatter12pad_integral17hc55c32e78eb96054E+0x3c0>
    79c3:	eb 11                	jmp    79d6 <_ZN4core3fmt9Formatter12pad_integral17hc55c32e78eb96054E+0x3e6>
    79c5:	8b 44 24 08          	mov    0x8(%rsp),%eax
    79c9:	89 43 34             	mov    %eax,0x34(%rbx)
    79cc:	8a 44 24 07          	mov    0x7(%rsp),%al
    79d0:	88 43 38             	mov    %al,0x38(%rbx)
    79d3:	45 31 e4             	xor    %r12d,%r12d
    79d6:	44 89 e0             	mov    %r12d,%eax
    79d9:	48 83 c4 18          	add    $0x18,%rsp
    79dd:	5b                   	pop    %rbx
    79de:	41 5c                	pop    %r12
    79e0:	41 5d                	pop    %r13
    79e2:	41 5e                	pop    %r14
    79e4:	41 5f                	pop    %r15
    79e6:	5d                   	pop    %rbp
    79e7:	c3                   	retq   
    79e8:	0f 1f 84 00 00 00 00 	nopl   0x0(%rax,%rax,1)
    79ef:	00 

00000000000079f0 <_ZN4core3fmt9Formatter12pad_integral12write_prefix17h9f1b96f1c06957eeE>:
    79f0:	41 57                	push   %r15
    79f2:	41 56                	push   %r14
    79f4:	53                   	push   %rbx
    79f5:	49 89 ce             	mov    %rcx,%r14
    79f8:	49 89 d7             	mov    %rdx,%r15
    79fb:	48 89 fb             	mov    %rdi,%rbx
    79fe:	81 fe 00 00 11 00    	cmp    $0x110000,%esi
    7a04:	74 13                	je     7a19 <_ZN4core3fmt9Formatter12pad_integral12write_prefix17h9f1b96f1c06957eeE+0x29>
    7a06:	48 8b 7b 20          	mov    0x20(%rbx),%rdi
    7a0a:	48 8b 43 28          	mov    0x28(%rbx),%rax
    7a0e:	ff 50 20             	callq  *0x20(%rax)
    7a11:	89 c1                	mov    %eax,%ecx
    7a13:	b0 01                	mov    $0x1,%al
    7a15:	84 c9                	test   %cl,%cl
    7a17:	75 20                	jne    7a39 <_ZN4core3fmt9Formatter12pad_integral12write_prefix17h9f1b96f1c06957eeE+0x49>
    7a19:	4d 85 ff             	test   %r15,%r15
    7a1c:	74 19                	je     7a37 <_ZN4core3fmt9Formatter12pad_integral12write_prefix17h9f1b96f1c06957eeE+0x47>
    7a1e:	48 8b 7b 20          	mov    0x20(%rbx),%rdi
    7a22:	48 8b 43 28          	mov    0x28(%rbx),%rax
    7a26:	48 8b 40 18          	mov    0x18(%rax),%rax
    7a2a:	4c 89 fe             	mov    %r15,%rsi
    7a2d:	4c 89 f2             	mov    %r14,%rdx
    7a30:	5b                   	pop    %rbx
    7a31:	41 5e                	pop    %r14
    7a33:	41 5f                	pop    %r15
    7a35:	ff e0                	jmpq   *%rax
    7a37:	31 c0                	xor    %eax,%eax
    7a39:	5b                   	pop    %rbx
    7a3a:	41 5e                	pop    %r14
    7a3c:	41 5f                	pop    %r15
    7a3e:	c3                   	retq   
    7a3f:	90                   	nop

0000000000007a40 <_ZN4core3num6bignum8Big32x408mul_pow217h98a8a86db4c173d2E>:
    7a40:	55                   	push   %rbp
    7a41:	53                   	push   %rbx
    7a42:	50                   	push   %rax
    7a43:	48 81 fe ff 04 00 00 	cmp    $0x4ff,%rsi
    7a4a:	0f 87 64 01 00 00    	ja     7bb4 <_ZN4core3num6bignum8Big32x408mul_pow217h98a8a86db4c173d2E+0x174>
    7a50:	49 89 f0             	mov    %rsi,%r8
    7a53:	48 89 f0             	mov    %rsi,%rax
    7a56:	48 c1 e8 05          	shr    $0x5,%rax
    7a5a:	48 8b 37             	mov    (%rdi),%rsi
    7a5d:	48 85 f6             	test   %rsi,%rsi
    7a60:	74 38                	je     7a9a <_ZN4core3num6bignum8Big32x408mul_pow217h98a8a86db4c173d2E+0x5a>
    7a62:	48 83 c6 ff          	add    $0xffffffffffffffff,%rsi
    7a66:	48 8d 14 87          	lea    (%rdi,%rax,4),%rdx
    7a6a:	48 83 c2 04          	add    $0x4,%rdx
    7a6e:	66 90                	xchg   %ax,%ax
    7a70:	48 83 fe 27          	cmp    $0x27,%rsi
    7a74:	0f 87 0f 01 00 00    	ja     7b89 <_ZN4core3num6bignum8Big32x408mul_pow217h98a8a86db4c173d2E+0x149>
    7a7a:	48 8d 0c 30          	lea    (%rax,%rsi,1),%rcx
    7a7e:	48 83 f9 27          	cmp    $0x27,%rcx
    7a82:	0f 87 eb 00 00 00    	ja     7b73 <_ZN4core3num6bignum8Big32x408mul_pow217h98a8a86db4c173d2E+0x133>
    7a88:	8b 4c b7 08          	mov    0x8(%rdi,%rsi,4),%ecx
    7a8c:	89 4c b2 04          	mov    %ecx,0x4(%rdx,%rsi,4)
    7a90:	48 83 c6 ff          	add    $0xffffffffffffffff,%rsi
    7a94:	48 83 fe ff          	cmp    $0xffffffffffffffff,%rsi
    7a98:	75 d6                	jne    7a70 <_ZN4core3num6bignum8Big32x408mul_pow217h98a8a86db4c173d2E+0x30>
    7a9a:	48 85 c0             	test   %rax,%rax
    7a9d:	74 2c                	je     7acb <_ZN4core3num6bignum8Big32x408mul_pow217h98a8a86db4c173d2E+0x8b>
    7a9f:	31 c9                	xor    %ecx,%ecx
    7aa1:	66 2e 0f 1f 84 00 00 	nopw   %cs:0x0(%rax,%rax,1)
    7aa8:	00 00 00 
    7aab:	0f 1f 44 00 00       	nopl   0x0(%rax,%rax,1)
    7ab0:	48 83 f9 28          	cmp    $0x28,%rcx
    7ab4:	0f 84 e2 00 00 00    	je     7b9c <_ZN4core3num6bignum8Big32x408mul_pow217h98a8a86db4c173d2E+0x15c>
    7aba:	c7 44 8f 08 00 00 00 	movl   $0x0,0x8(%rdi,%rcx,4)
    7ac1:	00 
    7ac2:	48 83 c1 01          	add    $0x1,%rcx
    7ac6:	48 39 c8             	cmp    %rcx,%rax
