
./rust_4indep/target/release/num_perf_demo:     file format elf64-x86-64


Disassembly of section .init:

0000000000003668 <_init>:
    3668:	48 83 ec 08          	sub    $0x8,%rsp
    366c:	48 8b 05 6d 48 23 00 	mov    0x23486d(%rip),%rax        # 237ee0 <__gmon_start__>
    3673:	48 85 c0             	test   %rax,%rax
    3676:	74 02                	je     367a <_init+0x12>
    3678:	ff d0                	callq  *%rax
    367a:	48 83 c4 08          	add    $0x8,%rsp
    367e:	c3                   	retq   

Disassembly of section .plt:

0000000000003680 <.plt>:
    3680:	ff 35 aa 46 23 00    	pushq  0x2346aa(%rip)        # 237d30 <_GLOBAL_OFFSET_TABLE_+0x8>
    3686:	ff 25 ac 46 23 00    	jmpq   *0x2346ac(%rip)        # 237d38 <_GLOBAL_OFFSET_TABLE_+0x10>
    368c:	0f 1f 40 00          	nopl   0x0(%rax)

0000000000003690 <dl_iterate_phdr@plt>:
    3690:	ff 25 aa 46 23 00    	jmpq   *0x2346aa(%rip)        # 237d40 <dl_iterate_phdr@GLIBC_2.2.5>
    3696:	68 00 00 00 00       	pushq  $0x0
    369b:	e9 e0 ff ff ff       	jmpq   3680 <.plt>

00000000000036a0 <getpid@plt>:
    36a0:	ff 25 a2 46 23 00    	jmpq   *0x2346a2(%rip)        # 237d48 <getpid@GLIBC_2.2.5>
    36a6:	68 01 00 00 00       	pushq  $0x1
    36ab:	e9 d0 ff ff ff       	jmpq   3680 <.plt>

00000000000036b0 <snprintf@plt>:
    36b0:	ff 25 9a 46 23 00    	jmpq   *0x23469a(%rip)        # 237d50 <snprintf@GLIBC_2.2.5>
    36b6:	68 02 00 00 00       	pushq  $0x2
    36bb:	e9 c0 ff ff ff       	jmpq   3680 <.plt>

00000000000036c0 <strrchr@plt>:
    36c0:	ff 25 92 46 23 00    	jmpq   *0x234692(%rip)        # 237d58 <strrchr@GLIBC_2.2.5>
    36c6:	68 03 00 00 00       	pushq  $0x3
    36cb:	e9 b0 ff ff ff       	jmpq   3680 <.plt>

00000000000036d0 <lseek@plt>:
    36d0:	ff 25 8a 46 23 00    	jmpq   *0x23468a(%rip)        # 237d60 <lseek@GLIBC_2.2.5>
    36d6:	68 04 00 00 00       	pushq  $0x4
    36db:	e9 a0 ff ff ff       	jmpq   3680 <.plt>

00000000000036e0 <close@plt>:
    36e0:	ff 25 82 46 23 00    	jmpq   *0x234682(%rip)        # 237d68 <close@GLIBC_2.2.5>
    36e6:	68 05 00 00 00       	pushq  $0x5
    36eb:	e9 90 ff ff ff       	jmpq   3680 <.plt>

00000000000036f0 <read@plt>:
    36f0:	ff 25 7a 46 23 00    	jmpq   *0x23467a(%rip)        # 237d70 <read@GLIBC_2.2.5>
    36f6:	68 06 00 00 00       	pushq  $0x6
    36fb:	e9 80 ff ff ff       	jmpq   3680 <.plt>

0000000000003700 <strcmp@plt>:
    3700:	ff 25 72 46 23 00    	jmpq   *0x234672(%rip)        # 237d78 <strcmp@GLIBC_2.2.5>
    3706:	68 07 00 00 00       	pushq  $0x7
    370b:	e9 70 ff ff ff       	jmpq   3680 <.plt>

0000000000003710 <__fxstat@plt>:
    3710:	ff 25 6a 46 23 00    	jmpq   *0x23466a(%rip)        # 237d80 <__fxstat@GLIBC_2.2.5>
    3716:	68 08 00 00 00       	pushq  $0x8
    371b:	e9 60 ff ff ff       	jmpq   3680 <.plt>

0000000000003720 <open@plt>:
    3720:	ff 25 62 46 23 00    	jmpq   *0x234662(%rip)        # 237d88 <open@GLIBC_2.2.5>
    3726:	68 09 00 00 00       	pushq  $0x9
    372b:	e9 50 ff ff ff       	jmpq   3680 <.plt>

0000000000003730 <bsearch@plt>:
    3730:	ff 25 5a 46 23 00    	jmpq   *0x23465a(%rip)        # 237d90 <bsearch@GLIBC_2.2.5>
    3736:	68 0a 00 00 00       	pushq  $0xa
    373b:	e9 40 ff ff ff       	jmpq   3680 <.plt>

0000000000003740 <_Unwind_Resume@plt>:
    3740:	ff 25 52 46 23 00    	jmpq   *0x234652(%rip)        # 237d98 <_Unwind_Resume@GCC_3.0>
    3746:	68 0b 00 00 00       	pushq  $0xb
    374b:	e9 30 ff ff ff       	jmpq   3680 <.plt>

Disassembly of section .plt.got:

0000000000003750 <free@plt>:
    3750:	ff 25 52 46 23 00    	jmpq   *0x234652(%rip)        # 237da8 <free@GLIBC_2.2.5>
    3756:	66 90                	xchg   %ax,%ax

0000000000003758 <abort@plt>:
    3758:	ff 25 52 46 23 00    	jmpq   *0x234652(%rip)        # 237db0 <abort@GLIBC_2.2.5>
    375e:	66 90                	xchg   %ax,%ax

0000000000003760 <__errno_location@plt>:
    3760:	ff 25 5a 46 23 00    	jmpq   *0x23465a(%rip)        # 237dc0 <__errno_location@GLIBC_2.2.5>
    3766:	66 90                	xchg   %ax,%ax

0000000000003768 <strlen@plt>:
    3768:	ff 25 c2 46 23 00    	jmpq   *0x2346c2(%rip)        # 237e30 <strlen@GLIBC_2.2.5>
    376e:	66 90                	xchg   %ax,%ax

0000000000003770 <memset@plt>:
    3770:	ff 25 f2 46 23 00    	jmpq   *0x2346f2(%rip)        # 237e68 <memset@GLIBC_2.2.5>
    3776:	66 90                	xchg   %ax,%ax

0000000000003778 <memcpy@plt>:
    3778:	ff 25 6a 47 23 00    	jmpq   *0x23476a(%rip)        # 237ee8 <memcpy@GLIBC_2.14>
    377e:	66 90                	xchg   %ax,%ax

0000000000003780 <malloc@plt>:
    3780:	ff 25 92 47 23 00    	jmpq   *0x234792(%rip)        # 237f18 <malloc@GLIBC_2.2.5>
    3786:	66 90                	xchg   %ax,%ax

0000000000003788 <realloc@plt>:
    3788:	ff 25 b2 47 23 00    	jmpq   *0x2347b2(%rip)        # 237f40 <realloc@GLIBC_2.2.5>
    378e:	66 90                	xchg   %ax,%ax

0000000000003790 <__cxa_finalize@plt>:
    3790:	ff 25 3a 48 23 00    	jmpq   *0x23483a(%rip)        # 237fd0 <__cxa_finalize@GLIBC_2.2.5>
    3796:	66 90                	xchg   %ax,%ax

Disassembly of section .text:

00000000000037a0 <_start>:
    37a0:	31 ed                	xor    %ebp,%ebp
    37a2:	49 89 d1             	mov    %rdx,%r9
    37a5:	5e                   	pop    %rsi
    37a6:	48 89 e2             	mov    %rsp,%rdx
    37a9:	48 83 e4 f0          	and    $0xfffffffffffffff0,%rsp
    37ad:	50                   	push   %rax
    37ae:	54                   	push   %rsp
    37af:	4c 8d 05 6a 93 02 00 	lea    0x2936a(%rip),%r8        # 2cb20 <__libc_csu_fini>
    37b6:	48 8d 0d f3 92 02 00 	lea    0x292f3(%rip),%rcx        # 2cab0 <__libc_csu_init>
    37bd:	48 8d 3d 7c 17 00 00 	lea    0x177c(%rip),%rdi        # 4f40 <main>
    37c4:	ff 15 de 46 23 00    	callq  *0x2346de(%rip)        # 237ea8 <__libc_start_main@GLIBC_2.2.5>
    37ca:	f4                   	hlt    
    37cb:	0f 1f 44 00 00       	nopl   0x0(%rax,%rax,1)

00000000000037d0 <deregister_tm_clones>:
    37d0:	48 8d 3d 61 48 23 00 	lea    0x234861(%rip),%rdi        # 238038 <__TMC_END__>
    37d7:	55                   	push   %rbp
    37d8:	48 8d 05 59 48 23 00 	lea    0x234859(%rip),%rax        # 238038 <__TMC_END__>
    37df:	48 39 f8             	cmp    %rdi,%rax
    37e2:	48 89 e5             	mov    %rsp,%rbp
    37e5:	74 19                	je     3800 <deregister_tm_clones+0x30>
    37e7:	48 8b 05 e2 45 23 00 	mov    0x2345e2(%rip),%rax        # 237dd0 <_ITM_deregisterTMCloneTable>
    37ee:	48 85 c0             	test   %rax,%rax
    37f1:	74 0d                	je     3800 <deregister_tm_clones+0x30>
    37f3:	5d                   	pop    %rbp
    37f4:	ff e0                	jmpq   *%rax
    37f6:	66 2e 0f 1f 84 00 00 	nopw   %cs:0x0(%rax,%rax,1)
    37fd:	00 00 00 
    3800:	5d                   	pop    %rbp
    3801:	c3                   	retq   
    3802:	0f 1f 40 00          	nopl   0x0(%rax)
    3806:	66 2e 0f 1f 84 00 00 	nopw   %cs:0x0(%rax,%rax,1)
    380d:	00 00 00 

0000000000003810 <register_tm_clones>:
    3810:	48 8d 3d 21 48 23 00 	lea    0x234821(%rip),%rdi        # 238038 <__TMC_END__>
    3817:	48 8d 35 1a 48 23 00 	lea    0x23481a(%rip),%rsi        # 238038 <__TMC_END__>
    381e:	55                   	push   %rbp
    381f:	48 29 fe             	sub    %rdi,%rsi
    3822:	48 89 e5             	mov    %rsp,%rbp
    3825:	48 c1 fe 03          	sar    $0x3,%rsi
    3829:	48 89 f0             	mov    %rsi,%rax
    382c:	48 c1 e8 3f          	shr    $0x3f,%rax
    3830:	48 01 c6             	add    %rax,%rsi
    3833:	48 d1 fe             	sar    %rsi
    3836:	74 18                	je     3850 <register_tm_clones+0x40>
    3838:	48 8b 05 71 47 23 00 	mov    0x234771(%rip),%rax        # 237fb0 <_ITM_registerTMCloneTable>
    383f:	48 85 c0             	test   %rax,%rax
    3842:	74 0c                	je     3850 <register_tm_clones+0x40>
    3844:	5d                   	pop    %rbp
    3845:	ff e0                	jmpq   *%rax
    3847:	66 0f 1f 84 00 00 00 	nopw   0x0(%rax,%rax,1)
    384e:	00 00 
    3850:	5d                   	pop    %rbp
    3851:	c3                   	retq   
    3852:	0f 1f 40 00          	nopl   0x0(%rax)
    3856:	66 2e 0f 1f 84 00 00 	nopw   %cs:0x0(%rax,%rax,1)
    385d:	00 00 00 

0000000000003860 <__do_global_dtors_aux>:
    3860:	80 3d d1 47 23 00 00 	cmpb   $0x0,0x2347d1(%rip)        # 238038 <__TMC_END__>
    3867:	75 2f                	jne    3898 <__do_global_dtors_aux+0x38>
    3869:	48 83 3d 5f 47 23 00 	cmpq   $0x0,0x23475f(%rip)        # 237fd0 <__cxa_finalize@GLIBC_2.2.5>
    3870:	00 
    3871:	55                   	push   %rbp
    3872:	48 89 e5             	mov    %rsp,%rbp
    3875:	74 0c                	je     3883 <__do_global_dtors_aux+0x23>
    3877:	48 8b 3d 82 47 23 00 	mov    0x234782(%rip),%rdi        # 238000 <__dso_handle>
    387e:	e8 0d ff ff ff       	callq  3790 <__cxa_finalize@plt>
    3883:	e8 48 ff ff ff       	callq  37d0 <deregister_tm_clones>
    3888:	c6 05 a9 47 23 00 01 	movb   $0x1,0x2347a9(%rip)        # 238038 <__TMC_END__>
    388f:	5d                   	pop    %rbp
    3890:	c3                   	retq   
    3891:	0f 1f 80 00 00 00 00 	nopl   0x0(%rax)
    3898:	f3 c3                	repz retq 
    389a:	66 0f 1f 44 00 00    	nopw   0x0(%rax,%rax,1)

00000000000038a0 <frame_dummy>:
    38a0:	55                   	push   %rbp
    38a1:	48 89 e5             	mov    %rsp,%rbp
    38a4:	5d                   	pop    %rbp
    38a5:	e9 66 ff ff ff       	jmpq   3810 <register_tm_clones>
    38aa:	66 0f 1f 44 00 00    	nopw   0x0(%rax,%rax,1)

00000000000038b0 <_ZN3std2rt10lang_start28_$u7b$$u7b$closure$u7d$$u7d$17h762f09b0107f1e33E>:
    38b0:	50                   	push   %rax
    38b1:	ff 17                	callq  *(%rdi)
    38b3:	31 c0                	xor    %eax,%eax
    38b5:	59                   	pop    %rcx
    38b6:	c3                   	retq   
    38b7:	66 0f 1f 84 00 00 00 	nopw   0x0(%rax,%rax,1)
    38be:	00 00 

00000000000038c0 <_ZN4core3ops8function6FnOnce40call_once$u7b$$u7b$vtable.shim$u7d$$u7d$17h9ca0661498080464E>:
    38c0:	50                   	push   %rax
    38c1:	ff 17                	callq  *(%rdi)
    38c3:	31 c0                	xor    %eax,%eax
    38c5:	59                   	pop    %rcx
    38c6:	c3                   	retq   
    38c7:	66 0f 1f 84 00 00 00 	nopw   0x0(%rax,%rax,1)
    38ce:	00 00 

00000000000038d0 <_ZN4core3ptr13drop_in_place17h342307f9bf38d40eE>:
    38d0:	c3                   	retq   
    38d1:	66 2e 0f 1f 84 00 00 	nopw   %cs:0x0(%rax,%rax,1)
    38d8:	00 00 00 
    38db:	0f 1f 44 00 00       	nopl   0x0(%rax,%rax,1)

00000000000038e0 <_ZN4core3ptr13drop_in_place17h451f5cd648756192E>:
    38e0:	41 56                	push   %r14
    38e2:	53                   	push   %rbx
    38e3:	50                   	push   %rax
    38e4:	48 89 fb             	mov    %rdi,%rbx
    38e7:	48 8b 57 10          	mov    0x10(%rdi),%rdx
    38eb:	48 8b 47 18          	mov    0x18(%rdi),%rax
    38ef:	48 39 c2             	cmp    %rax,%rdx
    38f2:	74 38                	je     392c <_ZN4core3ptr13drop_in_place17h451f5cd648756192E+0x4c>
    38f4:	4c 8b 35 ad 44 23 00 	mov    0x2344ad(%rip),%r14        # 237da8 <free@GLIBC_2.2.5>
    38fb:	eb 0b                	jmp    3908 <_ZN4core3ptr13drop_in_place17h451f5cd648756192E+0x28>
    38fd:	0f 1f 00             	nopl   (%rax)
    3900:	48 89 ca             	mov    %rcx,%rdx
    3903:	48 39 c1             	cmp    %rax,%rcx
    3906:	74 24                	je     392c <_ZN4core3ptr13drop_in_place17h451f5cd648756192E+0x4c>
    3908:	48 8d 4a 18          	lea    0x18(%rdx),%rcx
    390c:	48 89 4b 10          	mov    %rcx,0x10(%rbx)
    3910:	48 8b 3a             	mov    (%rdx),%rdi
    3913:	48 85 ff             	test   %rdi,%rdi
    3916:	74 14                	je     392c <_ZN4core3ptr13drop_in_place17h451f5cd648756192E+0x4c>
    3918:	48 83 7a 08 00       	cmpq   $0x0,0x8(%rdx)
    391d:	74 e1                	je     3900 <_ZN4core3ptr13drop_in_place17h451f5cd648756192E+0x20>
    391f:	41 ff d6             	callq  *%r14
    3922:	48 8b 4b 10          	mov    0x10(%rbx),%rcx
    3926:	48 8b 43 18          	mov    0x18(%rbx),%rax
    392a:	eb d4                	jmp    3900 <_ZN4core3ptr13drop_in_place17h451f5cd648756192E+0x20>
    392c:	48 83 7b 08 00       	cmpq   $0x0,0x8(%rbx)
    3931:	74 10                	je     3943 <_ZN4core3ptr13drop_in_place17h451f5cd648756192E+0x63>
    3933:	48 8b 3b             	mov    (%rbx),%rdi
    3936:	48 83 c4 08          	add    $0x8,%rsp
    393a:	5b                   	pop    %rbx
    393b:	41 5e                	pop    %r14
    393d:	ff 25 65 44 23 00    	jmpq   *0x234465(%rip)        # 237da8 <free@GLIBC_2.2.5>
    3943:	48 83 c4 08          	add    $0x8,%rsp
    3947:	5b                   	pop    %rbx
    3948:	41 5e                	pop    %r14
    394a:	c3                   	retq   
    394b:	0f 1f 44 00 00       	nopl   0x0(%rax,%rax,1)

0000000000003950 <_ZN4core3ptr13drop_in_place17h64764b65f5c7353eE>:
    3950:	48 83 7f 08 00       	cmpq   $0x0,0x8(%rdi)
    3955:	74 09                	je     3960 <_ZN4core3ptr13drop_in_place17h64764b65f5c7353eE+0x10>
    3957:	48 8b 3f             	mov    (%rdi),%rdi
    395a:	ff 25 48 44 23 00    	jmpq   *0x234448(%rip)        # 237da8 <free@GLIBC_2.2.5>
    3960:	c3                   	retq   
    3961:	66 2e 0f 1f 84 00 00 	nopw   %cs:0x0(%rax,%rax,1)
    3968:	00 00 00 
    396b:	0f 1f 44 00 00       	nopl   0x0(%rax,%rax,1)

0000000000003970 <_ZN4core3ptr13drop_in_place17hbcfb7369fd07f712E>:
    3970:	41 57                	push   %r15
    3972:	41 56                	push   %r14
    3974:	41 55                	push   %r13
    3976:	41 54                	push   %r12
    3978:	53                   	push   %rbx
    3979:	49 89 fe             	mov    %rdi,%r14
    397c:	48 8b 47 10          	mov    0x10(%rdi),%rax
    3980:	48 85 c0             	test   %rax,%rax
    3983:	74 4c                	je     39d1 <_ZN4core3ptr13drop_in_place17hbcfb7369fd07f712E+0x61>
    3985:	4d 8b 26             	mov    (%r14),%r12
    3988:	48 c1 e0 03          	shl    $0x3,%rax
    398c:	4c 8d 3c 40          	lea    (%rax,%rax,2),%r15
    3990:	31 db                	xor    %ebx,%ebx
    3992:	4c 8b 2d 0f 44 23 00 	mov    0x23440f(%rip),%r13        # 237da8 <free@GLIBC_2.2.5>
    3999:	49 83 7c 1c 08 00    	cmpq   $0x0,0x8(%r12,%rbx,1)
    399f:	75 20                	jne    39c1 <_ZN4core3ptr13drop_in_place17hbcfb7369fd07f712E+0x51>
    39a1:	66 2e 0f 1f 84 00 00 	nopw   %cs:0x0(%rax,%rax,1)
    39a8:	00 00 00 
    39ab:	0f 1f 44 00 00       	nopl   0x0(%rax,%rax,1)
    39b0:	48 83 c3 18          	add    $0x18,%rbx
    39b4:	49 39 df             	cmp    %rbx,%r15
    39b7:	74 18                	je     39d1 <_ZN4core3ptr13drop_in_place17hbcfb7369fd07f712E+0x61>
    39b9:	49 83 7c 1c 08 00    	cmpq   $0x0,0x8(%r12,%rbx,1)
    39bf:	74 ef                	je     39b0 <_ZN4core3ptr13drop_in_place17hbcfb7369fd07f712E+0x40>
    39c1:	49 8b 3c 1c          	mov    (%r12,%rbx,1),%rdi
    39c5:	41 ff d5             	callq  *%r13
    39c8:	48 83 c3 18          	add    $0x18,%rbx
    39cc:	49 39 df             	cmp    %rbx,%r15
    39cf:	75 e8                	jne    39b9 <_ZN4core3ptr13drop_in_place17hbcfb7369fd07f712E+0x49>
    39d1:	49 83 7e 08 00       	cmpq   $0x0,0x8(%r14)
    39d6:	74 12                	je     39ea <_ZN4core3ptr13drop_in_place17hbcfb7369fd07f712E+0x7a>
    39d8:	49 8b 3e             	mov    (%r14),%rdi
    39db:	5b                   	pop    %rbx
    39dc:	41 5c                	pop    %r12
    39de:	41 5d                	pop    %r13
    39e0:	41 5e                	pop    %r14
    39e2:	41 5f                	pop    %r15
    39e4:	ff 25 be 43 23 00    	jmpq   *0x2343be(%rip)        # 237da8 <free@GLIBC_2.2.5>
    39ea:	5b                   	pop    %rbx
    39eb:	41 5c                	pop    %r12
    39ed:	41 5d                	pop    %r13
    39ef:	41 5e                	pop    %r14
    39f1:	41 5f                	pop    %r15
    39f3:	c3                   	retq   
    39f4:	66 2e 0f 1f 84 00 00 	nopw   %cs:0x0(%rax,%rax,1)
    39fb:	00 00 00 
    39fe:	66 90                	xchg   %ax,%ax

0000000000003a00 <_ZN4core3ptr13drop_in_place17hc676cb92792a9e4bE>:
    3a00:	48 83 7f 08 00       	cmpq   $0x0,0x8(%rdi)
    3a05:	74 09                	je     3a10 <_ZN4core3ptr13drop_in_place17hc676cb92792a9e4bE+0x10>
    3a07:	48 8b 3f             	mov    (%rdi),%rdi
    3a0a:	ff 25 98 43 23 00    	jmpq   *0x234398(%rip)        # 237da8 <free@GLIBC_2.2.5>
    3a10:	c3                   	retq   
    3a11:	66 2e 0f 1f 84 00 00 	nopw   %cs:0x0(%rax,%rax,1)
    3a18:	00 00 00 
    3a1b:	0f 1f 44 00 00       	nopl   0x0(%rax,%rax,1)

0000000000003a20 <_ZN5alloc7raw_vec19RawVec$LT$T$C$A$GT$11allocate_in28_$u7b$$u7b$closure$u7d$$u7d$17h09e49a6ecabf76dbE>:
    3a20:	50                   	push   %rax
    3a21:	e8 7a 1e 00 00       	callq  58a0 <_ZN5alloc7raw_vec17capacity_overflow17h9be7d3ce681ac1a6E>
    3a26:	0f 0b                	ud2    
    3a28:	0f 1f 84 00 00 00 00 	nopl   0x0(%rax,%rax,1)
    3a2f:	00 

0000000000003a30 <_ZN13num_perf_demo18make_mat_with_data17he54828ebf953d7e6E>:

fn make_mat_empty(n: usize) -> Vec<f64> {
    vec![0.0; n * n]
}

fn make_mat_with_data(n: usize, s: f64) -> Vec<f64> {
    3a30:	41 57                	push   %r15
    3a32:	41 56                	push   %r14
    3a34:	41 54                	push   %r12
    3a36:	53                   	push   %rbx
    3a37:	48 83 ec 28          	sub    $0x28,%rsp
    vec![0.0; n * n]
    3a3b:	49 89 f7             	mov    %rsi,%r15
    3a3e:	4c 0f af fe          	imul   %rsi,%r15
    3a42:	b9 08 00 00 00       	mov    $0x8,%ecx
    3a47:	4c 89 f8             	mov    %r15,%rax
    3a4a:	48 f7 e1             	mul    %rcx
    3a4d:	0f 80 12 01 00 00    	jo     3b65 <_ZN13num_perf_demo18make_mat_with_data17he54828ebf953d7e6E+0x135>
    3a53:	48 89 f3             	mov    %rsi,%rbx
    3a56:	49 89 fe             	mov    %rdi,%r14
    3a59:	49 89 c4             	mov    %rax,%r12
    3a5c:	48 85 c0             	test   %rax,%rax
    3a5f:	74 26                	je     3a87 <_ZN13num_perf_demo18make_mat_with_data17he54828ebf953d7e6E+0x57>
    3a61:	c5 fb 11 44 24 20    	vmovsd %xmm0,0x20(%rsp)
    3a67:	be 01 00 00 00       	mov    $0x1,%esi
    3a6c:	4c 89 e7             	mov    %r12,%rdi
    3a6f:	ff 15 53 44 23 00    	callq  *0x234453(%rip)        # 237ec8 <calloc@GLIBC_2.2.5>
    3a75:	48 85 c0             	test   %rax,%rax
    3a78:	0f 84 ee 00 00 00    	je     3b6c <_ZN13num_perf_demo18make_mat_with_data17he54828ebf953d7e6E+0x13c>
    3a7e:	48 89 c1             	mov    %rax,%rcx
    3a81:	c5 fb 10 44 24 20    	vmovsd 0x20(%rsp),%xmm0
    3a87:	48 89 4c 24 08       	mov    %rcx,0x8(%rsp)
    3a8c:	4c 89 7c 24 10       	mov    %r15,0x10(%rsp)
    3a91:	4c 89 7c 24 18       	mov    %r15,0x18(%rsp)
    3a96:	48 85 db             	test   %rbx,%rbx
    3a99:	0f 84 8f 00 00 00    	je     3b2e <_ZN13num_perf_demo18make_mat_with_data17he54828ebf953d7e6E+0xfe>
    3a9f:	4c 8d 04 dd 00 00 00 	lea    0x0(,%rbx,8),%r8
    3aa6:	00 
    3aa7:	31 d2                	xor    %edx,%edx
    3aa9:	c5 f9 6f 2d 7f 90 02 	vmovdqa 0x2907f(%rip),%xmm5        # 2cb30 <_fini+0xc>
    3ab0:	00 
    3ab1:	c5 f9 28 0d 87 90 02 	vmovapd 0x29087(%rip),%xmm1        # 2cb40 <_fini+0x1c>
    3ab8:	00 
    3ab9:	c5 fb 10 15 0f 92 02 	vmovsd 0x2920f(%rip),%xmm2        # 2ccd0 <_ZN4core7unicode12unicode_data2cc19BITSET_INDEX_CHUNKS17h8a1f39cd536e9344E+0x70>
    3ac0:	00 
    3ac1:	31 ff                	xor    %edi,%edi
    3ac3:	66 2e 0f 1f 84 00 00 	nopw   %cs:0x0(%rax,%rax,1)
    3aca:	00 00 00 
    3acd:	0f 1f 00             	nopl   (%rax)
    3ad0:	c4 e1 f9 6e df       	vmovq  %rdi,%xmm3
    3ad5:	48 ff c7             	inc    %rdi
    3ad8:	c5 e1 62 dd          	vpunpckldq %xmm5,%xmm3,%xmm3
    3adc:	c5 e1 5c d9          	vsubpd %xmm1,%xmm3,%xmm3
    3ae0:	c5 e1 7c db          	vhaddpd %xmm3,%xmm3,%xmm3
    3ae4:	c5 e3 59 db          	vmulsd %xmm3,%xmm3,%xmm3
    3ae8:	31 c0                	xor    %eax,%eax
    3aea:	66 0f 1f 44 00 00    	nopw   0x0(%rax,%rax,1)
    3af0:	48 8d 34 02          	lea    (%rdx,%rax,1),%rsi
    3af4:	49 39 f7             	cmp    %rsi,%r15
    3af7:	76 5b                	jbe    3b54 <_ZN13num_perf_demo18make_mat_with_data17he54828ebf953d7e6E+0x124>
    let mut mat = make_mat_empty(n);

    for i in 0 .. n {
        for j in 0 .. n {
            let id = i as f64;
            let jd = j as f64;
    3af9:	c4 e1 f9 6e e0       	vmovq  %rax,%xmm4
    3afe:	c5 d9 62 e5          	vpunpckldq %xmm5,%xmm4,%xmm4
    3b02:	c5 d9 5c e1          	vsubpd %xmm1,%xmm4,%xmm4
    3b06:	c5 d9 7c e4          	vhaddpd %xmm4,%xmm4,%xmm4
            mat[i * n + j] = (id * id) / (jd + 1.0 + s);
    3b0a:	c5 db 58 e2          	vaddsd %xmm2,%xmm4,%xmm4
    3b0e:	c5 db 58 e0          	vaddsd %xmm0,%xmm4,%xmm4
    3b12:	c5 e3 5e e4          	vdivsd %xmm4,%xmm3,%xmm4
    3b16:	c5 fb 11 24 c1       	vmovsd %xmm4,(%rcx,%rax,8)
    3b1b:	48 ff c0             	inc    %rax
    3b1e:	48 39 c3             	cmp    %rax,%rbx
    3b21:	75 cd                	jne    3af0 <_ZN13num_perf_demo18make_mat_with_data17he54828ebf953d7e6E+0xc0>
    3b23:	48 01 da             	add    %rbx,%rdx
    3b26:	4c 01 c1             	add    %r8,%rcx
    3b29:	48 39 df             	cmp    %rbx,%rdi
    3b2c:	75 a2                	jne    3ad0 <_ZN13num_perf_demo18make_mat_with_data17he54828ebf953d7e6E+0xa0>
        }
    }

    return mat;
    3b2e:	48 8b 44 24 18       	mov    0x18(%rsp),%rax
    3b33:	49 89 46 10          	mov    %rax,0x10(%r14)
    3b37:	48 8b 44 24 08       	mov    0x8(%rsp),%rax
    3b3c:	49 89 06             	mov    %rax,(%r14)
    3b3f:	48 8b 44 24 10       	mov    0x10(%rsp),%rax
    3b44:	49 89 46 08          	mov    %rax,0x8(%r14)
}
    3b48:	48 83 c4 28          	add    $0x28,%rsp
    3b4c:	5b                   	pop    %rbx
    3b4d:	41 5c                	pop    %r12
    3b4f:	41 5e                	pop    %r14
    3b51:	41 5f                	pop    %r15
    3b53:	c3                   	retq   
    3b54:	48 8d 3d e5 2a 23 00 	lea    0x232ae5(%rip),%rdi        # 236640 <__init_array_end+0x70>
    3b5b:	4c 89 fa             	mov    %r15,%rdx
    3b5e:	e8 6d 3c 00 00       	callq  77d0 <_ZN4core9panicking18panic_bounds_check17h83121a2515f55ceeE>
    3b63:	0f 0b                	ud2    
    3b65:	e8 b6 fe ff ff       	callq  3a20 <_ZN5alloc7raw_vec19RawVec$LT$T$C$A$GT$11allocate_in28_$u7b$$u7b$closure$u7d$$u7d$17h09e49a6ecabf76dbE>
    3b6a:	0f 0b                	ud2    
    3b6c:	be 08 00 00 00       	mov    $0x8,%esi
    3b71:	4c 89 e7             	mov    %r12,%rdi
    3b74:	e8 17 1d 00 00       	callq  5890 <_ZN5alloc5alloc18handle_alloc_error17hf7bb8682f6c8b1d7E>
    3b79:	0f 0b                	ud2    
    3b7b:	48 89 c3             	mov    %rax,%rbx
    3b7e:	48 8d 7c 24 08       	lea    0x8(%rsp),%rdi
    3b83:	e8 78 fe ff ff       	callq  3a00 <_ZN4core3ptr13drop_in_place17hc676cb92792a9e4bE>
    3b88:	48 89 df             	mov    %rbx,%rdi
    3b8b:	e8 b0 fb ff ff       	callq  3740 <_Unwind_Resume@plt>
    3b90:	0f 0b                	ud2    
    3b92:	66 2e 0f 1f 84 00 00 	nopw   %cs:0x0(%rax,%rax,1)
    3b99:	00 00 00 
    3b9c:	0f 1f 40 00          	nopl   0x0(%rax)

0000000000003ba0 <_ZN13num_perf_demo4main17haa0faba82560184cE>:
    }

    return sum;
}

fn main() {
    3ba0:	55                   	push   %rbp
    3ba1:	41 57                	push   %r15
    3ba3:	41 56                	push   %r14
    3ba5:	41 55                	push   %r13
    3ba7:	41 54                	push   %r12
    3ba9:	53                   	push   %rbx
    3baa:	48 81 ec 88 01 00 00 	sub    $0x188,%rsp
    3bb1:	48 8d 1d 90 44 23 00 	lea    0x234490(%rip),%rbx        # 238048 <_ZN3std3sys4unix4args3imp4LOCK17h1d8f441b10ddb3ddE>
    3bb8:	48 89 df             	mov    %rbx,%rdi
    3bbb:	ff 15 17 44 23 00    	callq  *0x234417(%rip)        # 237fd8 <pthread_mutex_lock@GLIBC_2.2.5>
    3bc1:	48 89 5c 24 40       	mov    %rbx,0x40(%rsp)
    3bc6:	4c 8b 25 a3 44 23 00 	mov    0x2344a3(%rip),%r12        # 238070 <_ZN3std3sys4unix4args3imp4ARGC17h4e4d06cf3ef5a743E>
    3bcd:	48 c7 44 24 60 08 00 	movq   $0x8,0x60(%rsp)
    3bd4:	00 00 
    3bd6:	c5 f9 57 c0          	vxorpd %xmm0,%xmm0,%xmm0
    3bda:	c5 f9 11 44 24 68    	vmovupd %xmm0,0x68(%rsp)
    3be0:	4d 85 e4             	test   %r12,%r12
    3be3:	7e 59                	jle    3c3e <_ZN13num_perf_demo4main17haa0faba82560184cE+0x9e>
    3be5:	b9 18 00 00 00       	mov    $0x18,%ecx
    3bea:	45 31 f6             	xor    %r14d,%r14d
    3bed:	4c 89 e0             	mov    %r12,%rax
    3bf0:	48 f7 e1             	mul    %rcx
    3bf3:	49 89 c7             	mov    %rax,%r15
    3bf6:	0f 91 c0             	setno  %al
    3bf9:	0f 80 88 10 00 00    	jo     4c87 <_ZN13num_perf_demo4main17haa0faba82560184cE+0x10e7>
    3bff:	41 88 c6             	mov    %al,%r14b
    3c02:	49 c1 e6 03          	shl    $0x3,%r14
    3c06:	4d 39 fe             	cmp    %r15,%r14
    3c09:	76 43                	jbe    3c4e <_ZN13num_perf_demo4main17haa0faba82560184cE+0xae>
    3c0b:	48 c7 04 24 00 00 00 	movq   $0x0,(%rsp)
    3c12:	00 
    3c13:	48 89 e7             	mov    %rsp,%rdi
    3c16:	be 08 00 00 00       	mov    $0x8,%esi
    3c1b:	4c 89 fa             	mov    %r15,%rdx
    3c1e:	ff 15 84 43 23 00    	callq  *0x234384(%rip)        # 237fa8 <posix_memalign@GLIBC_2.2.5>
    3c24:	85 c0                	test   %eax,%eax
    3c26:	75 09                	jne    3c31 <_ZN13num_perf_demo4main17haa0faba82560184cE+0x91>
    3c28:	4c 8b 2c 24          	mov    (%rsp),%r13
    3c2c:	4d 85 ed             	test   %r13,%r13
    3c2f:	75 2e                	jne    3c5f <_ZN13num_perf_demo4main17haa0faba82560184cE+0xbf>
    3c31:	4c 89 ff             	mov    %r15,%rdi
    3c34:	4c 89 f6             	mov    %r14,%rsi
    3c37:	e8 54 1c 00 00       	callq  5890 <_ZN5alloc5alloc18handle_alloc_error17hf7bb8682f6c8b1d7E>
    3c3c:	0f 0b                	ud2    
    3c3e:	45 31 f6             	xor    %r14d,%r14d
    3c41:	bb 08 00 00 00       	mov    $0x8,%ebx
    3c46:	41 bd 08 00 00 00    	mov    $0x8,%r13d
    3c4c:	eb 21                	jmp    3c6f <_ZN13num_perf_demo4main17haa0faba82560184cE+0xcf>
    3c4e:	4c 89 ff             	mov    %r15,%rdi
    3c51:	ff 15 c1 42 23 00    	callq  *0x2342c1(%rip)        # 237f18 <malloc@GLIBC_2.2.5>
    3c57:	49 89 c5             	mov    %rax,%r13
    3c5a:	4d 85 ed             	test   %r13,%r13
    3c5d:	74 d2                	je     3c31 <_ZN13num_perf_demo4main17haa0faba82560184cE+0x91>
    3c5f:	4c 89 6c 24 60       	mov    %r13,0x60(%rsp)
    3c64:	4c 89 64 24 68       	mov    %r12,0x68(%rsp)
    3c69:	4d 89 e6             	mov    %r12,%r14
    3c6c:	4c 89 eb             	mov    %r13,%rbx
    3c6f:	48 8d 44 24 70       	lea    0x70(%rsp),%rax
    3c74:	4c 89 2c 24          	mov    %r13,(%rsp)
    3c78:	48 89 44 24 08       	mov    %rax,0x8(%rsp)
    3c7d:	48 c7 44 24 10 00 00 	movq   $0x0,0x10(%rsp)
    3c84:	00 00 
    3c86:	4d 85 e4             	test   %r12,%r12
    3c89:	0f 8e 98 00 00 00    	jle    3d27 <_ZN13num_perf_demo4main17haa0faba82560184cE+0x187>
    3c8f:	4c 89 74 24 38       	mov    %r14,0x38(%rsp)
    3c94:	48 89 5c 24 30       	mov    %rbx,0x30(%rsp)
    3c99:	45 31 f6             	xor    %r14d,%r14d
    3c9c:	eb 29                	jmp    3cc7 <_ZN13num_perf_demo4main17haa0faba82560184cE+0x127>
    3c9e:	66 90                	xchg   %ax,%ax
    3ca0:	49 ff c6             	inc    %r14
    3ca3:	48 89 ef             	mov    %rbp,%rdi
    3ca6:	4c 89 fe             	mov    %r15,%rsi
    3ca9:	48 89 da             	mov    %rbx,%rdx
    3cac:	ff 15 36 42 23 00    	callq  *0x234236(%rip)        # 237ee8 <memcpy@GLIBC_2.14>
    3cb2:	49 89 6d 00          	mov    %rbp,0x0(%r13)
    3cb6:	49 89 5d 08          	mov    %rbx,0x8(%r13)
    3cba:	49 89 5d 10          	mov    %rbx,0x10(%r13)
    3cbe:	49 83 c5 18          	add    $0x18,%r13
    3cc2:	4d 39 f4             	cmp    %r14,%r12
    3cc5:	74 4b                	je     3d12 <_ZN13num_perf_demo4main17haa0faba82560184cE+0x172>
    3cc7:	48 8b 05 aa 43 23 00 	mov    0x2343aa(%rip),%rax        # 238078 <_ZN3std3sys4unix4args3imp4ARGV17he0db131b08904595E>
    3cce:	4e 8b 3c f0          	mov    (%rax,%r14,8),%r15
    3cd2:	4c 89 ff             	mov    %r15,%rdi
    3cd5:	ff 15 55 41 23 00    	callq  *0x234155(%rip)        # 237e30 <strlen@GLIBC_2.2.5>
    3cdb:	48 89 c3             	mov    %rax,%rbx
    3cde:	bd 01 00 00 00       	mov    $0x1,%ebp
    3ce3:	48 85 c0             	test   %rax,%rax
    3ce6:	74 b8                	je     3ca0 <_ZN13num_perf_demo4main17haa0faba82560184cE+0x100>
    3ce8:	48 83 fb ff          	cmp    $0xffffffffffffffff,%rbx
    3cec:	0f 84 d9 0e 00 00    	je     4bcb <_ZN13num_perf_demo4main17haa0faba82560184cE+0x102b>
    3cf2:	48 89 df             	mov    %rbx,%rdi
    3cf5:	ff 15 1d 42 23 00    	callq  *0x23421d(%rip)        # 237f18 <malloc@GLIBC_2.2.5>
    3cfb:	48 89 c5             	mov    %rax,%rbp
    3cfe:	48 85 c0             	test   %rax,%rax
    3d01:	75 9d                	jne    3ca0 <_ZN13num_perf_demo4main17haa0faba82560184cE+0x100>
    3d03:	be 01 00 00 00       	mov    $0x1,%esi
    3d08:	48 89 df             	mov    %rbx,%rdi
    3d0b:	e8 80 1b 00 00       	callq  5890 <_ZN5alloc5alloc18handle_alloc_error17hf7bb8682f6c8b1d7E>
    3d10:	0f 0b                	ud2    
    3d12:	4c 89 2c 24          	mov    %r13,(%rsp)
    3d16:	4c 89 64 24 10       	mov    %r12,0x10(%rsp)
    3d1b:	48 8b 5c 24 30       	mov    0x30(%rsp),%rbx
    3d20:	4c 8b 74 24 38       	mov    0x38(%rsp),%r14
    3d25:	eb 03                	jmp    3d2a <_ZN13num_perf_demo4main17haa0faba82560184cE+0x18a>
    3d27:	45 31 e4             	xor    %r12d,%r12d
    3d2a:	48 8d 3d 17 43 23 00 	lea    0x234317(%rip),%rdi        # 238048 <_ZN3std3sys4unix4args3imp4LOCK17h1d8f441b10ddb3ddE>
    3d31:	ff 15 d1 41 23 00    	callq  *0x2341d1(%rip)        # 237f08 <pthread_mutex_unlock@GLIBC_2.2.5>
    3d37:	4b 8d 04 64          	lea    (%r12,%r12,2),%rax
    3d3b:	4c 8d 2c c3          	lea    (%rbx,%rax,8),%r13
    3d3f:	48 89 5c 24 60       	mov    %rbx,0x60(%rsp)
    3d44:	4c 89 74 24 68       	mov    %r14,0x68(%rsp)
    3d49:	48 89 5c 24 70       	mov    %rbx,0x70(%rsp)
    3d4e:	4c 89 6c 24 78       	mov    %r13,0x78(%rsp)
    3d53:	48 89 dd             	mov    %rbx,%rbp
    3d56:	4d 85 e4             	test   %r12,%r12
    3d59:	0f 84 9e 00 00 00    	je     3dfd <_ZN13num_perf_demo4main17haa0faba82560184cE+0x25d>
    3d5f:	48 8d 6b 18          	lea    0x18(%rbx),%rbp
    3d63:	48 89 6c 24 70       	mov    %rbp,0x70(%rsp)
    3d68:	4c 8b 3b             	mov    (%rbx),%r15
    3d6b:	4d 85 ff             	test   %r15,%r15
    3d6e:	0f 84 89 00 00 00    	je     3dfd <_ZN13num_perf_demo4main17haa0faba82560184cE+0x25d>
    3d74:	4c 8b 63 08          	mov    0x8(%rbx),%r12
    3d78:	4c 8b 73 10          	mov    0x10(%rbx),%r14
    3d7c:	48 89 e7             	mov    %rsp,%rdi
    3d7f:	4c 89 fe             	mov    %r15,%rsi
    3d82:	4c 89 f2             	mov    %r14,%rdx
    3d85:	e8 a6 7d 00 00       	callq  bb30 <_ZN4core3str9from_utf817ha5f1d279f7594d61E>
    3d8a:	48 83 3c 24 01       	cmpq   $0x1,(%rsp)
    3d8f:	0f 84 03 0f 00 00    	je     4c98 <_ZN13num_perf_demo4main17haa0faba82560184cE+0x10f8>
    3d95:	4c 89 3c 24          	mov    %r15,(%rsp)
    3d99:	4c 89 64 24 08       	mov    %r12,0x8(%rsp)
    3d9e:	4c 89 74 24 10       	mov    %r14,0x10(%rsp)
    3da3:	49 29 ed             	sub    %rbp,%r13
    3da6:	49 c1 fd 03          	sar    $0x3,%r13
    3daa:	48 b8 ab aa aa aa aa 	movabs $0xaaaaaaaaaaaaaaab,%rax
    3db1:	aa aa aa 
    3db4:	4c 0f af e8          	imul   %rax,%r13
    3db8:	49 ff c5             	inc    %r13
    3dbb:	49 c7 c7 ff ff ff ff 	mov    $0xffffffffffffffff,%r15
    3dc2:	4d 0f 45 fd          	cmovne %r13,%r15
    3dc6:	b9 18 00 00 00       	mov    $0x18,%ecx
    3dcb:	4c 89 f8             	mov    %r15,%rax
    3dce:	48 f7 e1             	mul    %rcx
    3dd1:	0f 80 f6 0e 00 00    	jo     4ccd <_ZN13num_perf_demo4main17haa0faba82560184cE+0x112d>
    3dd7:	48 89 c5             	mov    %rax,%rbp
    3dda:	48 85 c0             	test   %rax,%rax
    3ddd:	0f 84 c5 00 00 00    	je     3ea8 <_ZN13num_perf_demo4main17haa0faba82560184cE+0x308>
    3de3:	48 89 ef             	mov    %rbp,%rdi
    3de6:	ff 15 2c 41 23 00    	callq  *0x23412c(%rip)        # 237f18 <malloc@GLIBC_2.2.5>
    3dec:	48 85 c0             	test   %rax,%rax
    3def:	0f 84 83 0e 00 00    	je     4c78 <_ZN13num_perf_demo4main17haa0faba82560184cE+0x10d8>
    3df5:	48 89 c3             	mov    %rax,%rbx
    3df8:	e9 b0 00 00 00       	jmpq   3ead <_ZN13num_perf_demo4main17haa0faba82560184cE+0x30d>
    3dfd:	4d 89 f4             	mov    %r14,%r12
    3e00:	49 89 df             	mov    %rbx,%r15
    3e03:	48 c7 84 24 e0 00 00 	movq   $0x8,0xe0(%rsp)
    3e0a:	00 08 00 00 00 
    3e0f:	c5 f9 57 c0          	vxorpd %xmm0,%xmm0,%xmm0
    3e13:	c5 f9 11 84 24 e8 00 	vmovupd %xmm0,0xe8(%rsp)
    3e1a:	00 00 
    3e1c:	4c 39 ed             	cmp    %r13,%rbp
    3e1f:	74 35                	je     3e56 <_ZN13num_perf_demo4main17haa0faba82560184cE+0x2b6>
    3e21:	4c 8b 35 80 3f 23 00 	mov    0x233f80(%rip),%r14        # 237da8 <free@GLIBC_2.2.5>
    3e28:	eb 0e                	jmp    3e38 <_ZN13num_perf_demo4main17haa0faba82560184cE+0x298>
    3e2a:	66 0f 1f 44 00 00    	nopw   0x0(%rax,%rax,1)
    3e30:	48 89 dd             	mov    %rbx,%rbp
    3e33:	49 39 dd             	cmp    %rbx,%r13
    3e36:	74 1e                	je     3e56 <_ZN13num_perf_demo4main17haa0faba82560184cE+0x2b6>
    3e38:	48 8d 5d 18          	lea    0x18(%rbp),%rbx
    3e3c:	48 89 5c 24 70       	mov    %rbx,0x70(%rsp)
    3e41:	48 8b 7d 00          	mov    0x0(%rbp),%rdi
    3e45:	48 85 ff             	test   %rdi,%rdi
    3e48:	74 0c                	je     3e56 <_ZN13num_perf_demo4main17haa0faba82560184cE+0x2b6>
    3e4a:	48 83 7d 08 00       	cmpq   $0x0,0x8(%rbp)
    3e4f:	74 df                	je     3e30 <_ZN13num_perf_demo4main17haa0faba82560184cE+0x290>
    3e51:	41 ff d6             	callq  *%r14
    3e54:	eb da                	jmp    3e30 <_ZN13num_perf_demo4main17haa0faba82560184cE+0x290>
    3e56:	4d 85 e4             	test   %r12,%r12
    3e59:	74 09                	je     3e64 <_ZN13num_perf_demo4main17haa0faba82560184cE+0x2c4>
    3e5b:	4c 89 ff             	mov    %r15,%rdi
    3e5e:	ff 15 44 3f 23 00    	callq  *0x233f44(%rip)        # 237da8 <free@GLIBC_2.2.5>
    3e64:	48 8d 05 ed 27 23 00 	lea    0x2327ed(%rip),%rax        # 236658 <__init_array_end+0x88>
    3e6b:	48 89 04 24          	mov    %rax,(%rsp)
    3e6f:	48 c7 44 24 08 01 00 	movq   $0x1,0x8(%rsp)
    3e76:	00 00 
    3e78:	48 c7 44 24 10 00 00 	movq   $0x0,0x10(%rsp)
    3e7f:	00 00 
    3e81:	48 8d 05 c0 b5 02 00 	lea    0x2b5c0(%rip),%rax        # 2f448 <_ZN4core7unicode12unicode_data2cc6BITSET17h5201257bcf8f09faE+0x2e8>
    3e88:	48 89 44 24 20       	mov    %rax,0x20(%rsp)
    3e8d:	48 c7 44 24 28 00 00 	movq   $0x0,0x28(%rsp)
    3e94:	00 00 
    3e96:	48 89 e7             	mov    %rsp,%rdi
    let args: Vec<String> = args().collect();
    if args.len() <= 1 {
        eprintln!("Provide integer argument.");
    3e99:	c5 f8 77             	vzeroupper 
    3e9c:	e8 cf 9b 01 00       	callq  1da70 <_ZN3std2io5stdio7_eprint17hf19d6fb036d8919dE>
        exit(1);
    3ea1:	e8 7a 9f 01 00       	callq  1de20 <_ZN3std7process4exit17h48d7a25190f60a46E>
    3ea6:	0f 0b                	ud2    
    3ea8:	bb 08 00 00 00       	mov    $0x8,%ebx
    3ead:	48 8b 44 24 10       	mov    0x10(%rsp),%rax
    3eb2:	48 89 43 10          	mov    %rax,0x10(%rbx)
    3eb6:	c5 f8 10 04 24       	vmovups (%rsp),%xmm0
    3ebb:	c5 f8 11 03          	vmovups %xmm0,(%rbx)
    3ebf:	48 89 9c 24 80 00 00 	mov    %rbx,0x80(%rsp)
    3ec6:	00 
    3ec7:	4c 89 bc 24 88 00 00 	mov    %r15,0x88(%rsp)
    3ece:	00 
    3ecf:	48 c7 84 24 90 00 00 	movq   $0x1,0x90(%rsp)
    3ed6:	00 01 00 00 00 
    3edb:	c5 fd 10 44 24 60    	vmovupd 0x60(%rsp),%ymm0
    3ee1:	c5 fd 11 04 24       	vmovupd %ymm0,(%rsp)
    3ee6:	48 8b 4c 24 10       	mov    0x10(%rsp),%rcx
    3eeb:	48 8b 44 24 18       	mov    0x18(%rsp),%rax
    3ef0:	48 89 84 24 98 00 00 	mov    %rax,0x98(%rsp)
    3ef7:	00 
    3ef8:	48 89 c2             	mov    %rax,%rdx
    3efb:	48 89 c8             	mov    %rcx,%rax
    3efe:	48 29 ca             	sub    %rcx,%rdx
    3f01:	48 89 94 24 b8 00 00 	mov    %rdx,0xb8(%rsp)
    3f08:	00 
    3f09:	48 83 c1 18          	add    $0x18,%rcx
    3f0d:	48 89 4c 24 58       	mov    %rcx,0x58(%rsp)
    3f12:	41 bd 01 00 00 00    	mov    $0x1,%r13d
    3f18:	31 f6                	xor    %esi,%esi
    3f1a:	48 89 da             	mov    %rbx,%rdx
    3f1d:	48 89 84 24 b0 00 00 	mov    %rax,0xb0(%rsp)
    3f24:	00 
    3f25:	48 39 b4 24 b8 00 00 	cmp    %rsi,0xb8(%rsp)
    3f2c:	00 
    3f2d:	75 4f                	jne    3f7e <_ZN13num_perf_demo4main17haa0faba82560184cE+0x3de>
    3f2f:	e9 1c 02 00 00       	jmpq   4150 <_ZN13num_perf_demo4main17haa0faba82560184cE+0x5b0>
    3f34:	66 2e 0f 1f 84 00 00 	nopw   %cs:0x0(%rax,%rax,1)
    3f3b:	00 00 00 
    3f3e:	66 90                	xchg   %ax,%ax
    3f40:	48 8b 74 24 38       	mov    0x38(%rsp),%rsi
    3f45:	4c 89 e3             	mov    %r12,%rbx
    3f48:	48 8b 44 24 50       	mov    0x50(%rsp),%rax
    3f4d:	48 89 44 33 28       	mov    %rax,0x28(%rbx,%rsi,1)
    3f52:	c5 f9 10 44 24 40    	vmovupd 0x40(%rsp),%xmm0
    3f58:	c5 f9 11 44 33 18    	vmovupd %xmm0,0x18(%rbx,%rsi,1)
    3f5e:	49 ff c5             	inc    %r13
    3f61:	48 83 c6 18          	add    $0x18,%rsi
    3f65:	48 89 da             	mov    %rbx,%rdx
    3f68:	48 8b 84 24 b0 00 00 	mov    0xb0(%rsp),%rax
    3f6f:	00 
    3f70:	48 39 b4 24 b8 00 00 	cmp    %rsi,0xb8(%rsp)
    3f77:	00 
    3f78:	0f 84 d2 01 00 00    	je     4150 <_ZN13num_perf_demo4main17haa0faba82560184cE+0x5b0>
    3f7e:	48 8b 4c 24 58       	mov    0x58(%rsp),%rcx
    3f83:	4c 8d 34 31          	lea    (%rcx,%rsi,1),%r14
    3f87:	4c 89 74 24 10       	mov    %r14,0x10(%rsp)
    3f8c:	48 8b 2c 30          	mov    (%rax,%rsi,1),%rbp
    3f90:	48 85 ed             	test   %rbp,%rbp
    3f93:	0f 84 c9 01 00 00    	je     4162 <_ZN13num_perf_demo4main17haa0faba82560184cE+0x5c2>
    3f99:	48 89 94 24 a0 00 00 	mov    %rdx,0xa0(%rsp)
    3fa0:	00 
    3fa1:	49 89 dc             	mov    %rbx,%r12
    3fa4:	4c 89 7c 24 30       	mov    %r15,0x30(%rsp)
    3fa9:	4c 8b 7c 30 08       	mov    0x8(%rax,%rsi,1),%r15
    3fae:	48 89 74 24 38       	mov    %rsi,0x38(%rsp)
    3fb3:	48 8b 5c 30 10       	mov    0x10(%rax,%rsi,1),%rbx
    3fb8:	48 8d 7c 24 40       	lea    0x40(%rsp),%rdi
    3fbd:	48 89 ee             	mov    %rbp,%rsi
    3fc0:	48 89 da             	mov    %rbx,%rdx
    3fc3:	c5 f8 77             	vzeroupper 
    3fc6:	e8 65 7b 00 00       	callq  bb30 <_ZN4core3str9from_utf817ha5f1d279f7594d61E>
    3fcb:	48 83 7c 24 40 01    	cmpq   $0x1,0x40(%rsp)
    3fd1:	0f 84 3f 0c 00 00    	je     4c16 <_ZN13num_perf_demo4main17haa0faba82560184cE+0x1076>
    3fd7:	48 89 6c 24 40       	mov    %rbp,0x40(%rsp)
    3fdc:	4c 89 7c 24 48       	mov    %r15,0x48(%rsp)
    3fe1:	48 89 5c 24 50       	mov    %rbx,0x50(%rsp)
    3fe6:	4c 8b 7c 24 30       	mov    0x30(%rsp),%r15
    3feb:	4d 39 fd             	cmp    %r15,%r13
    3fee:	0f 85 4c ff ff ff    	jne    3f40 <_ZN13num_perf_demo4main17haa0faba82560184cE+0x3a0>
    3ff4:	48 8b ac 24 98 00 00 	mov    0x98(%rsp),%rbp
    3ffb:	00 
    3ffc:	4c 29 f5             	sub    %r14,%rbp
    3fff:	48 c1 fd 03          	sar    $0x3,%rbp
    4003:	48 b8 ab aa aa aa aa 	movabs $0xaaaaaaaaaaaaaaab,%rax
    400a:	aa aa aa 
    400d:	48 0f af e8          	imul   %rax,%rbp
    4011:	48 ff c5             	inc    %rbp
    4014:	48 c7 c0 ff ff ff ff 	mov    $0xffffffffffffffff,%rax
    401b:	48 0f 44 e8          	cmove  %rax,%rbp
    401f:	4c 01 fd             	add    %r15,%rbp
    4022:	0f 82 26 0c 00 00    	jb     4c4e <_ZN13num_perf_demo4main17haa0faba82560184cE+0x10ae>
    4028:	4b 8d 04 3f          	lea    (%r15,%r15,1),%rax
    402c:	48 39 e8             	cmp    %rbp,%rax
    402f:	48 0f 47 e8          	cmova  %rax,%rbp
    4033:	45 31 f6             	xor    %r14d,%r14d
    4036:	48 89 e8             	mov    %rbp,%rax
    4039:	b9 18 00 00 00       	mov    $0x18,%ecx
    403e:	48 f7 e1             	mul    %rcx
    4041:	49 89 c4             	mov    %rax,%r12
    4044:	0f 91 c0             	setno  %al
    4047:	0f 80 01 0c 00 00    	jo     4c4e <_ZN13num_perf_demo4main17haa0faba82560184cE+0x10ae>
    404d:	41 88 c6             	mov    %al,%r14b
    4050:	49 c1 e6 03          	shl    $0x3,%r14
    4054:	4d 85 ff             	test   %r15,%r15
    4057:	74 2c                	je     4085 <_ZN13num_perf_demo4main17haa0faba82560184cE+0x4e5>
    4059:	4d 85 e4             	test   %r12,%r12
    405c:	74 71                	je     40cf <_ZN13num_perf_demo4main17haa0faba82560184cE+0x52f>
    405e:	48 8b bc 24 a0 00 00 	mov    0xa0(%rsp),%rdi
    4065:	00 
    4066:	4c 89 e6             	mov    %r12,%rsi
    4069:	ff 15 d1 3e 23 00    	callq  *0x233ed1(%rip)        # 237f40 <realloc@GLIBC_2.2.5>
    406f:	48 89 c3             	mov    %rax,%rbx
    4072:	48 8b 74 24 38       	mov    0x38(%rsp),%rsi
    4077:	48 85 db             	test   %rbx,%rbx
    407a:	0f 85 c0 00 00 00    	jne    4140 <_ZN13num_perf_demo4main17haa0faba82560184cE+0x5a0>
    4080:	e9 e6 0b 00 00       	jmpq   4c6b <_ZN13num_perf_demo4main17haa0faba82560184cE+0x10cb>
    4085:	4d 39 e6             	cmp    %r12,%r14
    4088:	0f 86 96 00 00 00    	jbe    4124 <_ZN13num_perf_demo4main17haa0faba82560184cE+0x584>
    408e:	48 c7 84 24 c0 00 00 	movq   $0x0,0xc0(%rsp)
    4095:	00 00 00 00 00 
    409a:	be 08 00 00 00       	mov    $0x8,%esi
    409f:	48 8d bc 24 c0 00 00 	lea    0xc0(%rsp),%rdi
    40a6:	00 
    40a7:	4c 89 e2             	mov    %r12,%rdx
    40aa:	ff 15 f8 3e 23 00    	callq  *0x233ef8(%rip)        # 237fa8 <posix_memalign@GLIBC_2.2.5>
    40b0:	85 c0                	test   %eax,%eax
    40b2:	0f 85 b3 0b 00 00    	jne    4c6b <_ZN13num_perf_demo4main17haa0faba82560184cE+0x10cb>
    40b8:	48 8b 9c 24 c0 00 00 	mov    0xc0(%rsp),%rbx
    40bf:	00 
    40c0:	48 8b 74 24 38       	mov    0x38(%rsp),%rsi
    40c5:	48 85 db             	test   %rbx,%rbx
    40c8:	75 76                	jne    4140 <_ZN13num_perf_demo4main17haa0faba82560184cE+0x5a0>
    40ca:	e9 9c 0b 00 00       	jmpq   4c6b <_ZN13num_perf_demo4main17haa0faba82560184cE+0x10cb>
    40cf:	48 c7 84 24 c0 00 00 	movq   $0x0,0xc0(%rsp)
    40d6:	00 00 00 00 00 
    40db:	be 08 00 00 00       	mov    $0x8,%esi
    40e0:	48 8d bc 24 c0 00 00 	lea    0xc0(%rsp),%rdi
    40e7:	00 
    40e8:	31 d2                	xor    %edx,%edx
    40ea:	ff 15 b8 3e 23 00    	callq  *0x233eb8(%rip)        # 237fa8 <posix_memalign@GLIBC_2.2.5>
    40f0:	85 c0                	test   %eax,%eax
    40f2:	0f 85 70 0b 00 00    	jne    4c68 <_ZN13num_perf_demo4main17haa0faba82560184cE+0x10c8>
    40f8:	48 8b 9c 24 c0 00 00 	mov    0xc0(%rsp),%rbx
    40ff:	00 
    4100:	41 bc 00 00 00 00    	mov    $0x0,%r12d
    4106:	48 85 db             	test   %rbx,%rbx
    4109:	0f 84 5c 0b 00 00    	je     4c6b <_ZN13num_perf_demo4main17haa0faba82560184cE+0x10cb>
    410f:	48 8b bc 24 a0 00 00 	mov    0xa0(%rsp),%rdi
    4116:	00 
    4117:	ff 15 8b 3c 23 00    	callq  *0x233c8b(%rip)        # 237da8 <free@GLIBC_2.2.5>
    411d:	48 8b 74 24 38       	mov    0x38(%rsp),%rsi
    4122:	eb 1c                	jmp    4140 <_ZN13num_perf_demo4main17haa0faba82560184cE+0x5a0>
    4124:	4c 89 e7             	mov    %r12,%rdi
    4127:	ff 15 eb 3d 23 00    	callq  *0x233deb(%rip)        # 237f18 <malloc@GLIBC_2.2.5>
    412d:	48 89 c3             	mov    %rax,%rbx
    4130:	48 8b 74 24 38       	mov    0x38(%rsp),%rsi
    4135:	48 85 db             	test   %rbx,%rbx
    4138:	0f 84 2d 0b 00 00    	je     4c6b <_ZN13num_perf_demo4main17haa0faba82560184cE+0x10cb>
    413e:	66 90                	xchg   %ax,%ax
    4140:	48 89 9c 24 80 00 00 	mov    %rbx,0x80(%rsp)
    4147:	00 
    4148:	49 89 ef             	mov    %rbp,%r15
    414b:	e9 f8 fd ff ff       	jmpq   3f48 <_ZN13num_perf_demo4main17haa0faba82560184cE+0x3a8>
    4150:	4c 89 ac 24 90 00 00 	mov    %r13,0x90(%rsp)
    4157:	00 
    4158:	4c 89 bc 24 88 00 00 	mov    %r15,0x88(%rsp)
    415f:	00 
    4160:	eb 5a                	jmp    41bc <_ZN13num_perf_demo4main17haa0faba82560184cE+0x61c>
    4162:	4c 89 ac 24 90 00 00 	mov    %r13,0x90(%rsp)
    4169:	00 
    416a:	4c 89 bc 24 88 00 00 	mov    %r15,0x88(%rsp)
    4171:	00 
    4172:	4c 3b b4 24 98 00 00 	cmp    0x98(%rsp),%r14
    4179:	00 
    417a:	48 8b 2d 27 3c 23 00 	mov    0x233c27(%rip),%rbp        # 237da8 <free@GLIBC_2.2.5>
    4181:	75 1a                	jne    419d <_ZN13num_perf_demo4main17haa0faba82560184cE+0x5fd>
    4183:	eb 37                	jmp    41bc <_ZN13num_perf_demo4main17haa0faba82560184cE+0x61c>
    4185:	66 2e 0f 1f 84 00 00 	nopw   %cs:0x0(%rax,%rax,1)
    418c:	00 00 00 
    418f:	90                   	nop
    4190:	49 89 de             	mov    %rbx,%r14
    4193:	48 39 9c 24 98 00 00 	cmp    %rbx,0x98(%rsp)
    419a:	00 
    419b:	74 1f                	je     41bc <_ZN13num_perf_demo4main17haa0faba82560184cE+0x61c>
    419d:	49 8d 5e 18          	lea    0x18(%r14),%rbx
    41a1:	48 89 5c 24 10       	mov    %rbx,0x10(%rsp)
    41a6:	49 8b 3e             	mov    (%r14),%rdi
    41a9:	48 85 ff             	test   %rdi,%rdi
    41ac:	74 0e                	je     41bc <_ZN13num_perf_demo4main17haa0faba82560184cE+0x61c>
    41ae:	49 83 7e 08 00       	cmpq   $0x0,0x8(%r14)
    41b3:	74 db                	je     4190 <_ZN13num_perf_demo4main17haa0faba82560184cE+0x5f0>
    41b5:	c5 f8 77             	vzeroupper 
    41b8:	ff d5                	callq  *%rbp
    41ba:	eb d4                	jmp    4190 <_ZN13num_perf_demo4main17haa0faba82560184cE+0x5f0>
    41bc:	48 83 7c 24 08 00    	cmpq   $0x0,0x8(%rsp)
    41c2:	74 0d                	je     41d1 <_ZN13num_perf_demo4main17haa0faba82560184cE+0x631>
    41c4:	48 8b 3c 24          	mov    (%rsp),%rdi
    41c8:	c5 f8 77             	vzeroupper 
    41cb:	ff 15 d7 3b 23 00    	callq  *0x233bd7(%rip)        # 237da8 <free@GLIBC_2.2.5>
    41d1:	c5 f9 10 84 24 80 00 	vmovupd 0x80(%rsp),%xmm0
    41d8:	00 00 
    41da:	c5 f9 29 84 24 e0 00 	vmovapd %xmm0,0xe0(%rsp)
    41e1:	00 00 
    41e3:	4c 8b bc 24 90 00 00 	mov    0x90(%rsp),%r15
    41ea:	00 
    41eb:	4c 89 bc 24 f0 00 00 	mov    %r15,0xf0(%rsp)
    41f2:	00 
    if args.len() <= 1 {
    41f3:	49 83 ff 02          	cmp    $0x2,%r15
    41f7:	0f 82 67 fc ff ff    	jb     3e64 <_ZN13num_perf_demo4main17haa0faba82560184cE+0x2c4>
    41fd:	4c 8b b4 24 e0 00 00 	mov    0xe0(%rsp),%r14
    4204:	00 
    4205:	49 8b 4e 28          	mov    0x28(%r14),%rcx
    4209:	48 85 c9             	test   %rcx,%rcx
    420c:	0f 84 7f 0a 00 00    	je     4c91 <_ZN13num_perf_demo4main17haa0faba82560184cE+0x10f1>
    4212:	49 8b 76 18          	mov    0x18(%r14),%rsi
    4216:	80 3e 2b             	cmpb   $0x2b,(%rsi)
    4219:	75 0c                	jne    4227 <_ZN13num_perf_demo4main17haa0faba82560184cE+0x687>
    421b:	48 ff c9             	dec    %rcx
    421e:	0f 84 6d 0a 00 00    	je     4c91 <_ZN13num_perf_demo4main17haa0faba82560184cE+0x10f1>
    4224:	48 ff c6             	inc    %rsi
    4227:	31 ff                	xor    %edi,%edi
    4229:	bd 0a 00 00 00       	mov    $0xa,%ebp
    422e:	45 31 e4             	xor    %r12d,%r12d
    4231:	66 2e 0f 1f 84 00 00 	nopw   %cs:0x0(%rax,%rax,1)
    4238:	00 00 00 
    423b:	0f 1f 44 00 00       	nopl   0x0(%rax,%rax,1)
    4240:	48 39 f9             	cmp    %rdi,%rcx
    4243:	74 33                	je     4278 <_ZN13num_perf_demo4main17haa0faba82560184cE+0x6d8>
    4245:	48 8d 04 3e          	lea    (%rsi,%rdi,1),%rax
    4249:	0f b6 18             	movzbl (%rax),%ebx
    424c:	83 c3 d0             	add    $0xffffffd0,%ebx
    424f:	83 fb 09             	cmp    $0x9,%ebx
    4252:	0f 87 8f 09 00 00    	ja     4be7 <_ZN13num_perf_demo4main17haa0faba82560184cE+0x1047>
    4258:	4c 89 e0             	mov    %r12,%rax
    425b:	48 f7 e5             	mul    %rbp
    425e:	b2 02                	mov    $0x2,%dl
    4260:	0f 80 83 09 00 00    	jo     4be9 <_ZN13num_perf_demo4main17haa0faba82560184cE+0x1049>
    4266:	49 89 c4             	mov    %rax,%r12
    4269:	89 d8                	mov    %ebx,%eax
    426b:	48 ff c7             	inc    %rdi
    426e:	49 01 c4             	add    %rax,%r12
    4271:	73 cd                	jae    4240 <_ZN13num_perf_demo4main17haa0faba82560184cE+0x6a0>
    4273:	e9 71 09 00 00       	jmpq   4be9 <_ZN13num_perf_demo4main17haa0faba82560184cE+0x1049>
    }
    let n: usize = args[1].parse::<usize>().unwrap();
    if n <= 1 {
    4278:	49 83 fc 02          	cmp    $0x2,%r12
    427c:	0f 82 55 0a 00 00    	jb     4cd7 <_ZN13num_perf_demo4main17haa0faba82560184cE+0x1137>
    4282:	48 8d bc 24 40 01 00 	lea    0x140(%rsp),%rdi
    4289:	00 
    428a:	c5 fb 10 05 3e 8a 02 	vmovsd 0x28a3e(%rip),%xmm0        # 2ccd0 <_ZN4core7unicode12unicode_data2cc19BITSET_INDEX_CHUNKS17h8a1f39cd536e9344E+0x70>
    4291:	00 
        eprintln!("Dimension argument too small.");
        exit(1);
    }

    // Make data.
    let A: Vec<f64> = make_mat_with_data(n, 1.0);
    4292:	4c 89 e6             	mov    %r12,%rsi
    4295:	c5 f8 77             	vzeroupper 
    4298:	e8 93 f7 ff ff       	callq  3a30 <_ZN13num_perf_demo18make_mat_with_data17he54828ebf953d7e6E>
    429d:	48 8d bc 24 58 01 00 	lea    0x158(%rsp),%rdi
    42a4:	00 
    42a5:	c5 fb 10 05 2b 8a 02 	vmovsd 0x28a2b(%rip),%xmm0        # 2ccd8 <_ZN4core7unicode12unicode_data2cc19BITSET_INDEX_CHUNKS17h8a1f39cd536e9344E+0x78>
    42ac:	00 
    let B: Vec<f64> = make_mat_with_data(n, 3.0);
    42ad:	4c 89 e6             	mov    %r12,%rsi
    42b0:	e8 7b f7 ff ff       	callq  3a30 <_ZN13num_perf_demo18make_mat_with_data17he54828ebf953d7e6E>
    42b5:	c5 f9 57 c0          	vxorpd %xmm0,%xmm0,%xmm0
    42b9:	c5 f9 29 44 24 60    	vmovapd %xmm0,0x60(%rsp)
    42bf:	48 8d 74 24 60       	lea    0x60(%rsp),%rsi
    42c4:	bf 01 00 00 00       	mov    $0x1,%edi
    42c9:	ff 15 51 3c 23 00    	callq  *0x233c51(%rip)        # 237f20 <clock_gettime@GLIBC_2.2.5>
    42cf:	83 f8 ff             	cmp    $0xffffffff,%eax
    42d2:	0f 84 46 0a 00 00    	je     4d1e <_ZN13num_perf_demo4main17haa0faba82560184cE+0x117e>
    42d8:	c5 f8 28 44 24 60    	vmovaps 0x60(%rsp),%xmm0
    42de:	c5 f8 29 84 24 70 01 	vmovaps %xmm0,0x170(%rsp)
    42e5:	00 00 

    let timer = Instant::now();

    // Array multiplication.
    let C: Vec<f64> = mat_mul(n, A, B);
    42e7:	48 8b 84 24 50 01 00 	mov    0x150(%rsp),%rax
    42ee:	00 
    42ef:	48 89 84 24 90 00 00 	mov    %rax,0x90(%rsp)
    42f6:	00 
    42f7:	c5 f8 10 84 24 40 01 	vmovups 0x140(%rsp),%xmm0
    42fe:	00 00 
    4300:	c5 f8 29 84 24 80 00 	vmovaps %xmm0,0x80(%rsp)
    4307:	00 00 
    4309:	48 8b 84 24 68 01 00 	mov    0x168(%rsp),%rax
    4310:	00 
    4311:	48 89 44 24 50       	mov    %rax,0x50(%rsp)
    4316:	c5 f9 10 84 24 58 01 	vmovupd 0x158(%rsp),%xmm0
    431d:	00 00 
    431f:	c5 f9 29 44 24 40    	vmovapd %xmm0,0x40(%rsp)
    vec![0.0; n * n]
    4325:	4c 89 e0             	mov    %r12,%rax
    4328:	49 0f af c4          	imul   %r12,%rax
    432c:	bb 08 00 00 00       	mov    $0x8,%ebx
    4331:	48 89 44 24 58       	mov    %rax,0x58(%rsp)
    4336:	48 f7 e3             	mul    %rbx
    4339:	0f 80 28 0a 00 00    	jo     4d67 <_ZN13num_perf_demo4main17haa0faba82560184cE+0x11c7>
    433f:	48 89 c5             	mov    %rax,%rbp
    4342:	48 85 c0             	test   %rax,%rax
    4345:	74 1a                	je     4361 <_ZN13num_perf_demo4main17haa0faba82560184cE+0x7c1>
    4347:	be 01 00 00 00       	mov    $0x1,%esi
    434c:	48 89 ef             	mov    %rbp,%rdi
    434f:	ff 15 73 3b 23 00    	callq  *0x233b73(%rip)        # 237ec8 <calloc@GLIBC_2.2.5>
    4355:	48 85 c0             	test   %rax,%rax
    4358:	0f 84 1a 09 00 00    	je     4c78 <_ZN13num_perf_demo4main17haa0faba82560184cE+0x10d8>
    435e:	48 89 c3             	mov    %rax,%rbx
    4361:	48 89 5c 24 60       	mov    %rbx,0x60(%rsp)
    4366:	48 8b 44 24 58       	mov    0x58(%rsp),%rax
    436b:	48 89 44 24 68       	mov    %rax,0x68(%rsp)
    4370:	48 89 44 24 70       	mov    %rax,0x70(%rsp)
    4375:	bf 08 00 00 00       	mov    $0x8,%edi
    437a:	4c 89 e0             	mov    %r12,%rax
    437d:	48 f7 e7             	mul    %rdi
    4380:	0f 80 eb 09 00 00    	jo     4d71 <_ZN13num_perf_demo4main17haa0faba82560184cE+0x11d1>
    4386:	48 89 c5             	mov    %rax,%rbp
    4389:	48 85 c0             	test   %rax,%rax
    438c:	74 1a                	je     43a8 <_ZN13num_perf_demo4main17haa0faba82560184cE+0x808>
    438e:	be 01 00 00 00       	mov    $0x1,%esi
    4393:	48 89 ef             	mov    %rbp,%rdi
    4396:	ff 15 2c 3b 23 00    	callq  *0x233b2c(%rip)        # 237ec8 <calloc@GLIBC_2.2.5>
    439c:	48 85 c0             	test   %rax,%rax
    439f:	0f 84 d3 08 00 00    	je     4c78 <_ZN13num_perf_demo4main17haa0faba82560184cE+0x10d8>
    43a5:	48 89 c7             	mov    %rax,%rdi
    43a8:	4c 89 bc 24 08 01 00 	mov    %r15,0x108(%rsp)
    43af:	00 
    43b0:	4c 89 b4 24 10 01 00 	mov    %r14,0x110(%rsp)
    43b7:	00 
    43b8:	48 89 3c 24          	mov    %rdi,(%rsp)
    43bc:	4c 89 64 24 08       	mov    %r12,0x8(%rsp)
    43c1:	4c 89 64 24 10       	mov    %r12,0x10(%rsp)
    43c6:	4c 89 e2             	mov    %r12,%rdx
    43c9:	48 83 e2 f8          	and    $0xfffffffffffffff8,%rdx
    43cd:	48 8b 4c 24 40       	mov    0x40(%rsp),%rcx
    43d2:	48 8b 84 24 80 00 00 	mov    0x80(%rsp),%rax
    43d9:	00 
    43da:	48 8d 72 ff          	lea    -0x1(%rdx),%rsi
    43de:	48 89 b4 24 a0 00 00 	mov    %rsi,0xa0(%rsp)
    43e5:	00 
    43e6:	48 c1 ee 03          	shr    $0x3,%rsi
    43ea:	48 ff c6             	inc    %rsi
    43ed:	49 8d 6c 24 ff       	lea    -0x1(%r12),%rbp
    43f2:	48 89 ac 24 38 01 00 	mov    %rbp,0x138(%rsp)
    43f9:	00 
    43fa:	48 89 54 24 30       	mov    %rdx,0x30(%rsp)
    43ff:	48 29 d5             	sub    %rdx,%rbp
    4402:	48 89 ac 24 98 00 00 	mov    %rbp,0x98(%rsp)
    4409:	00 
    440a:	41 89 f2             	mov    %esi,%r10d
    440d:	41 83 e2 03          	and    $0x3,%r10d
    4411:	4c 29 d6             	sub    %r10,%rsi
    4414:	48 89 b4 24 b0 00 00 	mov    %rsi,0xb0(%rsp)
    441b:	00 
    441c:	45 89 e0             	mov    %r12d,%r8d
    441f:	41 83 e0 03          	and    $0x3,%r8d
    4423:	4d 89 e6             	mov    %r12,%r14
    4426:	4d 29 c6             	sub    %r8,%r14
    4429:	4e 8d 3c e5 00 00 00 	lea    0x0(,%r12,8),%r15
    4430:	00 
    4431:	48 8d 90 c0 00 00 00 	lea    0xc0(%rax),%rdx
    4438:	48 89 94 24 20 01 00 	mov    %rdx,0x120(%rsp)
    443f:	00 
    4440:	4c 89 94 24 b8 00 00 	mov    %r10,0xb8(%rsp)
    4447:	00 
    4448:	49 c1 e2 06          	shl    $0x6,%r10
    444c:	48 89 84 24 a8 00 00 	mov    %rax,0xa8(%rsp)
    4453:	00 
    4454:	48 83 c0 18          	add    $0x18,%rax
    4458:	48 89 84 24 18 01 00 	mov    %rax,0x118(%rsp)
    445f:	00 
    4460:	31 c0                	xor    %eax,%eax
    4462:	c5 f9 57 c0          	vxorpd %xmm0,%xmm0,%xmm0
    4466:	48 89 8c 24 00 01 00 	mov    %rcx,0x100(%rsp)
    446d:	00 
    446e:	48 89 cd             	mov    %rcx,%rbp
    4471:	eb 2a                	jmp    449d <_ZN13num_perf_demo4main17haa0faba82560184cE+0x8fd>
    4473:	66 2e 0f 1f 84 00 00 	nopw   %cs:0x0(%rax,%rax,1)
    447a:	00 00 00 
    447d:	0f 1f 00             	nopl   (%rax)
    4480:	48 8b ac 24 28 01 00 	mov    0x128(%rsp),%rbp
    4487:	00 
    4488:	48 83 c5 08          	add    $0x8,%rbp
    448c:	48 8b 84 24 30 01 00 	mov    0x130(%rsp),%rax
    4493:	00 
    4494:	4c 39 e0             	cmp    %r12,%rax
    4497:	0f 84 53 04 00 00    	je     48f0 <_ZN13num_perf_demo4main17haa0faba82560184cE+0xd50>
    449d:	48 89 44 24 38       	mov    %rax,0x38(%rsp)
    44a2:	48 8d 70 01          	lea    0x1(%rax),%rsi
    44a6:	48 89 e8             	mov    %rbp,%rax
    44a9:	31 c9                	xor    %ecx,%ecx
    44ab:	0f 1f 44 00 00       	nopl   0x0(%rax,%rax,1)
    44b0:	49 39 cc             	cmp    %rcx,%r12
    44b3:	0f 84 ce 06 00 00    	je     4b87 <_ZN13num_perf_demo4main17haa0faba82560184cE+0xfe7>
                *Bc.get_unchecked_mut(k) = *B.get_unchecked(k * n + j);
    44b9:	48 8b 10             	mov    (%rax),%rdx
    44bc:	48 89 14 cf          	mov    %rdx,(%rdi,%rcx,8)
    44c0:	48 ff c1             	inc    %rcx
    44c3:	4c 01 f8             	add    %r15,%rax
    44c6:	49 39 cc             	cmp    %rcx,%r12
    44c9:	75 e5                	jne    44b0 <_ZN13num_perf_demo4main17haa0faba82560184cE+0x910>
    44cb:	48 89 ac 24 28 01 00 	mov    %rbp,0x128(%rsp)
    44d2:	00 
    44d3:	48 89 b4 24 30 01 00 	mov    %rsi,0x130(%rsp)
    44da:	00 
    44db:	48 83 7c 24 30 00    	cmpq   $0x0,0x30(%rsp)
            while k < stop_simd_at {
    44e1:	0f 84 e9 02 00 00    	je     47d0 <_ZN13num_perf_demo4main17haa0faba82560184cE+0xc30>
    44e7:	4c 8b 8c 24 a8 00 00 	mov    0xa8(%rsp),%r9
    44ee:	00 
    44ef:	4c 8b ac 24 20 01 00 	mov    0x120(%rsp),%r13
    44f6:	00 
    44f7:	45 31 db             	xor    %r11d,%r11d
    44fa:	48 8b 54 24 58       	mov    0x58(%rsp),%rdx
    44ff:	48 83 bc 24 a0 00 00 	cmpq   $0x18,0xa0(%rsp)
    4506:	00 18 
    4508:	72 20                	jb     452a <_ZN13num_perf_demo4main17haa0faba82560184cE+0x98a>
    450a:	eb 44                	jmp    4550 <_ZN13num_perf_demo4main17haa0faba82560184cE+0x9b0>
    450c:	0f 1f 40 00          	nopl   0x0(%rax)
    4510:	4d 01 fd             	add    %r15,%r13
    4513:	4d 01 f9             	add    %r15,%r9
    4516:	4d 39 e3             	cmp    %r12,%r11
    4519:	0f 84 61 ff ff ff    	je     4480 <_ZN13num_perf_demo4main17haa0faba82560184cE+0x8e0>
    451f:	48 83 bc 24 a0 00 00 	cmpq   $0x18,0xa0(%rsp)
    4526:	00 18 
    4528:	73 26                	jae    4550 <_ZN13num_perf_demo4main17haa0faba82560184cE+0x9b0>
    452a:	c5 f1 57 c9          	vxorpd %xmm1,%xmm1,%xmm1
    452e:	31 c0                	xor    %eax,%eax
    4530:	c5 e9 57 d2          	vxorpd %xmm2,%xmm2,%xmm2
    4534:	4c 89 de             	mov    %r11,%rsi
    4537:	49 0f af f4          	imul   %r12,%rsi
    453b:	48 83 bc 24 b8 00 00 	cmpq   $0x0,0xb8(%rsp)
    4542:	00 00 
    4544:	0f 85 0f 01 00 00    	jne    4659 <_ZN13num_perf_demo4main17haa0faba82560184cE+0xab9>
    454a:	e9 54 01 00 00       	jmpq   46a3 <_ZN13num_perf_demo4main17haa0faba82560184cE+0xb03>
    454f:	90                   	nop
    4550:	c5 f1 57 c9          	vxorpd %xmm1,%xmm1,%xmm1
    4554:	31 c0                	xor    %eax,%eax
                    sums[7] += A.get_unchecked(nik + 7) * Bc.get_unchecked(k + 7);
    4556:	c5 e9 57 d2          	vxorpd %xmm2,%xmm2,%xmm2
    455a:	48 8b 8c 24 b0 00 00 	mov    0xb0(%rsp),%rcx
    4561:	00 
    4562:	66 2e 0f 1f 84 00 00 	nopw   %cs:0x0(%rax,%rax,1)
    4569:	00 00 00 
    456c:	0f 1f 40 00          	nopl   0x0(%rax)
                    sums[0] += A.get_unchecked(nik + 0) * Bc.get_unchecked(k + 0);
    4570:	c4 c1 7d 10 9c c5 40 	vmovupd -0xc0(%r13,%rax,8),%ymm3
    4577:	ff ff ff 
    457a:	c4 c1 7d 10 a4 c5 60 	vmovupd -0xa0(%r13,%rax,8),%ymm4
    4581:	ff ff ff 
    4584:	c4 c1 7d 10 6c c5 80 	vmovupd -0x80(%r13,%rax,8),%ymm5
    458b:	c4 c1 7d 10 74 c5 a0 	vmovupd -0x60(%r13,%rax,8),%ymm6
    4592:	c5 dd 59 64 c7 20    	vmulpd 0x20(%rdi,%rax,8),%ymm4,%ymm4
    4598:	c5 e5 59 1c c7       	vmulpd (%rdi,%rax,8),%ymm3,%ymm3
    459d:	c4 e3 fd 01 db 1b    	vpermpd $0x1b,%ymm3,%ymm3
                    sums[7] += A.get_unchecked(nik + 7) * Bc.get_unchecked(k + 7);
    45a3:	c5 ed 58 d3          	vaddpd %ymm3,%ymm2,%ymm2
    45a7:	c4 e3 fd 01 dc 1b    	vpermpd $0x1b,%ymm4,%ymm3
    45ad:	c5 f5 58 cb          	vaddpd %ymm3,%ymm1,%ymm1
    45b1:	c5 d5 59 5c c7 40    	vmulpd 0x40(%rdi,%rax,8),%ymm5,%ymm3
    45b7:	c5 cd 59 64 c7 60    	vmulpd 0x60(%rdi,%rax,8),%ymm6,%ymm4
    45bd:	c4 e3 fd 01 e4 1b    	vpermpd $0x1b,%ymm4,%ymm4
    45c3:	c5 f5 58 cc          	vaddpd %ymm4,%ymm1,%ymm1
    45c7:	c4 e3 fd 01 db 1b    	vpermpd $0x1b,%ymm3,%ymm3
    45cd:	c5 ed 58 d3          	vaddpd %ymm3,%ymm2,%ymm2
                    sums[0] += A.get_unchecked(nik + 0) * Bc.get_unchecked(k + 0);
    45d1:	c4 c1 7d 10 5c c5 c0 	vmovupd -0x40(%r13,%rax,8),%ymm3
    45d8:	c4 c1 7d 10 64 c5 e0 	vmovupd -0x20(%r13,%rax,8),%ymm4
    45df:	c5 dd 59 a4 c7 a0 00 	vmulpd 0xa0(%rdi,%rax,8),%ymm4,%ymm4
    45e6:	00 00 
    45e8:	c5 e5 59 9c c7 80 00 	vmulpd 0x80(%rdi,%rax,8),%ymm3,%ymm3
    45ef:	00 00 
    45f1:	c4 e3 fd 01 db 1b    	vpermpd $0x1b,%ymm3,%ymm3
                    sums[7] += A.get_unchecked(nik + 7) * Bc.get_unchecked(k + 7);
    45f7:	c5 ed 58 d3          	vaddpd %ymm3,%ymm2,%ymm2
    45fb:	c4 e3 fd 01 dc 1b    	vpermpd $0x1b,%ymm4,%ymm3
    4601:	c5 f5 58 cb          	vaddpd %ymm3,%ymm1,%ymm1
                    sums[0] += A.get_unchecked(nik + 0) * Bc.get_unchecked(k + 0);
    4605:	c4 c1 7d 10 5c c5 20 	vmovupd 0x20(%r13,%rax,8),%ymm3
    460c:	c4 c1 7d 10 64 c5 00 	vmovupd 0x0(%r13,%rax,8),%ymm4
    4613:	c5 dd 59 a4 c7 c0 00 	vmulpd 0xc0(%rdi,%rax,8),%ymm4,%ymm4
    461a:	00 00 
    461c:	c5 e5 59 9c c7 e0 00 	vmulpd 0xe0(%rdi,%rax,8),%ymm3,%ymm3
    4623:	00 00 
    4625:	c4 e3 fd 01 db 1b    	vpermpd $0x1b,%ymm3,%ymm3
                    sums[7] += A.get_unchecked(nik + 7) * Bc.get_unchecked(k + 7);
    462b:	c5 f5 58 cb          	vaddpd %ymm3,%ymm1,%ymm1
    462f:	c4 e3 fd 01 dc 1b    	vpermpd $0x1b,%ymm4,%ymm3
    4635:	c5 ed 58 d3          	vaddpd %ymm3,%ymm2,%ymm2
                k += STEP;
    4639:	48 83 c0 20          	add    $0x20,%rax
            while k < stop_simd_at {
    463d:	48 83 c1 fc          	add    $0xfffffffffffffffc,%rcx
    4641:	0f 85 29 ff ff ff    	jne    4570 <_ZN13num_perf_demo4main17haa0faba82560184cE+0x9d0>
    4647:	4c 89 de             	mov    %r11,%rsi
    464a:	49 0f af f4          	imul   %r12,%rsi
    464e:	48 83 bc 24 b8 00 00 	cmpq   $0x0,0xb8(%rsp)
    4655:	00 00 
    4657:	74 4a                	je     46a3 <_ZN13num_perf_demo4main17haa0faba82560184cE+0xb03>
    4659:	48 8d 0c c7          	lea    (%rdi,%rax,8),%rcx
    465d:	49 8d 04 c1          	lea    (%r9,%rax,8),%rax
    4661:	31 ed                	xor    %ebp,%ebp
    4663:	66 2e 0f 1f 84 00 00 	nopw   %cs:0x0(%rax,%rax,1)
    466a:	00 00 00 
    466d:	0f 1f 00             	nopl   (%rax)
                    sums[0] += A.get_unchecked(nik + 0) * Bc.get_unchecked(k + 0);
    4670:	c5 fd 10 1c 28       	vmovupd (%rax,%rbp,1),%ymm3
    4675:	c5 fd 10 64 28 20    	vmovupd 0x20(%rax,%rbp,1),%ymm4
    467b:	c5 e5 59 1c 29       	vmulpd (%rcx,%rbp,1),%ymm3,%ymm3
    4680:	c5 dd 59 64 29 20    	vmulpd 0x20(%rcx,%rbp,1),%ymm4,%ymm4
    4686:	c4 e3 fd 01 e4 1b    	vpermpd $0x1b,%ymm4,%ymm4
                    sums[7] += A.get_unchecked(nik + 7) * Bc.get_unchecked(k + 7);
    468c:	c5 f5 58 cc          	vaddpd %ymm4,%ymm1,%ymm1
    4690:	c4 e3 fd 01 db 1b    	vpermpd $0x1b,%ymm3,%ymm3
    4696:	c5 ed 58 d3          	vaddpd %ymm3,%ymm2,%ymm2
            while k < stop_simd_at {
    469a:	48 83 c5 40          	add    $0x40,%rbp
    469e:	49 39 ea             	cmp    %rbp,%r10
    46a1:	75 cd                	jne    4670 <_ZN13num_perf_demo4main17haa0faba82560184cE+0xad0>
            let nij = ni + j;
    46a3:	48 03 74 24 38       	add    0x38(%rsp),%rsi
    46a8:	48 39 f2             	cmp    %rsi,%rdx
    46ab:	0f 86 f0 04 00 00    	jbe    4ba1 <_ZN13num_perf_demo4main17haa0faba82560184cE+0x1001>
    46b1:	49 ff c3             	inc    %r11
    46b4:	c4 e3 7d 19 d3 01    	vextractf128 $0x1,%ymm2,%xmm3
    46ba:	c4 e3 79 05 e3 01    	vpermilpd $0x1,%xmm3,%xmm4
    46c0:	c5 db 58 e0          	vaddsd %xmm0,%xmm4,%xmm4
    46c4:	c5 e3 58 dc          	vaddsd %xmm4,%xmm3,%xmm3
    46c8:	c4 e3 79 05 e2 01    	vpermilpd $0x1,%xmm2,%xmm4
    46ce:	c5 db 58 db          	vaddsd %xmm3,%xmm4,%xmm3
    46d2:	c5 eb 58 d3          	vaddsd %xmm3,%xmm2,%xmm2
    46d6:	c4 e3 7d 19 cb 01    	vextractf128 $0x1,%ymm1,%xmm3
    46dc:	c4 e3 79 05 e3 01    	vpermilpd $0x1,%xmm3,%xmm4
    46e2:	c5 db 58 d2          	vaddsd %xmm2,%xmm4,%xmm2
    46e6:	c5 e3 58 d2          	vaddsd %xmm2,%xmm3,%xmm2
    46ea:	c4 e3 79 05 d9 01    	vpermilpd $0x1,%xmm1,%xmm3
    46f0:	c5 e3 58 d2          	vaddsd %xmm2,%xmm3,%xmm2
    46f4:	c5 f3 58 ca          	vaddsd %xmm2,%xmm1,%xmm1
    46f8:	c5 fb 11 0c f3       	vmovsd %xmm1,(%rbx,%rsi,8)
    46fd:	4c 3b 64 24 30       	cmp    0x30(%rsp),%r12
    4702:	0f 86 08 fe ff ff    	jbe    4510 <_ZN13num_perf_demo4main17haa0faba82560184cE+0x970>
    4708:	4d 85 c0             	test   %r8,%r8
    470b:	74 3f                	je     474c <_ZN13num_perf_demo4main17haa0faba82560184cE+0xbac>
    470d:	48 8b 44 24 30       	mov    0x30(%rsp),%rax
    4712:	4c 89 c1             	mov    %r8,%rcx
    4715:	66 2e 0f 1f 84 00 00 	nopw   %cs:0x0(%rax,%rax,1)
    471c:	00 00 00 
    471f:	90                   	nop
                    C[nij] += A.get_unchecked(ni + k) * Bc.get_unchecked(k);
    4720:	c4 c1 7b 10 14 c1    	vmovsd (%r9,%rax,8),%xmm2
    4726:	c5 eb 59 14 c7       	vmulsd (%rdi,%rax,8),%xmm2,%xmm2
    472b:	48 ff c0             	inc    %rax
    472e:	c5 f3 58 ca          	vaddsd %xmm2,%xmm1,%xmm1
    4732:	c5 fb 11 0c f3       	vmovsd %xmm1,(%rbx,%rsi,8)
    4737:	48 ff c9             	dec    %rcx
    473a:	75 e4                	jne    4720 <_ZN13num_perf_demo4main17haa0faba82560184cE+0xb80>
    473c:	48 83 bc 24 98 00 00 	cmpq   $0x3,0x98(%rsp)
    4743:	00 03 
    4745:	73 19                	jae    4760 <_ZN13num_perf_demo4main17haa0faba82560184cE+0xbc0>
    4747:	e9 c4 fd ff ff       	jmpq   4510 <_ZN13num_perf_demo4main17haa0faba82560184cE+0x970>
    474c:	48 8b 44 24 30       	mov    0x30(%rsp),%rax
    4751:	48 83 bc 24 98 00 00 	cmpq   $0x3,0x98(%rsp)
    4758:	00 03 
    475a:	0f 82 b0 fd ff ff    	jb     4510 <_ZN13num_perf_demo4main17haa0faba82560184cE+0x970>
    4760:	c4 c1 7b 10 14 c1    	vmovsd (%r9,%rax,8),%xmm2
    4766:	c5 eb 59 14 c7       	vmulsd (%rdi,%rax,8),%xmm2,%xmm2
    476b:	c5 f3 58 ca          	vaddsd %xmm2,%xmm1,%xmm1
    476f:	c5 fb 11 0c f3       	vmovsd %xmm1,(%rbx,%rsi,8)
    4774:	c4 c1 7b 10 54 c1 08 	vmovsd 0x8(%r9,%rax,8),%xmm2
    477b:	c5 eb 59 54 c7 08    	vmulsd 0x8(%rdi,%rax,8),%xmm2,%xmm2
    4781:	c5 f3 58 ca          	vaddsd %xmm2,%xmm1,%xmm1
    4785:	c5 fb 11 0c f3       	vmovsd %xmm1,(%rbx,%rsi,8)
    478a:	c4 c1 7b 10 54 c1 10 	vmovsd 0x10(%r9,%rax,8),%xmm2
    4791:	c5 eb 59 54 c7 10    	vmulsd 0x10(%rdi,%rax,8),%xmm2,%xmm2
    4797:	c5 f3 58 ca          	vaddsd %xmm2,%xmm1,%xmm1
    479b:	c5 fb 11 0c f3       	vmovsd %xmm1,(%rbx,%rsi,8)
    47a0:	c4 c1 7b 10 54 c1 18 	vmovsd 0x18(%r9,%rax,8),%xmm2
    47a7:	c5 eb 59 54 c7 18    	vmulsd 0x18(%rdi,%rax,8),%xmm2,%xmm2
    47ad:	48 83 c0 04          	add    $0x4,%rax
    47b1:	c5 f3 58 ca          	vaddsd %xmm2,%xmm1,%xmm1
    47b5:	c5 fb 11 0c f3       	vmovsd %xmm1,(%rbx,%rsi,8)
    47ba:	49 39 c4             	cmp    %rax,%r12
    47bd:	75 a1                	jne    4760 <_ZN13num_perf_demo4main17haa0faba82560184cE+0xbc0>
    47bf:	e9 4c fd ff ff       	jmpq   4510 <_ZN13num_perf_demo4main17haa0faba82560184cE+0x970>
    47c4:	66 2e 0f 1f 84 00 00 	nopw   %cs:0x0(%rax,%rax,1)
    47cb:	00 00 00 
    47ce:	66 90                	xchg   %ax,%ax
    47d0:	4c 8b 9c 24 a8 00 00 	mov    0xa8(%rsp),%r11
    47d7:	00 
    47d8:	48 8b ac 24 18 01 00 	mov    0x118(%rsp),%rbp
    47df:	00 
    47e0:	45 31 c9             	xor    %r9d,%r9d
    47e3:	48 8b 44 24 58       	mov    0x58(%rsp),%rax
    47e8:	eb 1a                	jmp    4804 <_ZN13num_perf_demo4main17haa0faba82560184cE+0xc64>
    47ea:	66 0f 1f 44 00 00    	nopw   0x0(%rax,%rax,1)
    47f0:	4c 01 fd             	add    %r15,%rbp
    47f3:	4d 01 fb             	add    %r15,%r11
    47f6:	4d 39 e1             	cmp    %r12,%r9
    47f9:	48 8b 44 24 58       	mov    0x58(%rsp),%rax
    47fe:	0f 84 7c fc ff ff    	je     4480 <_ZN13num_perf_demo4main17haa0faba82560184cE+0x8e0>
            let ni = i * n;
    4804:	4c 89 ce             	mov    %r9,%rsi
    4807:	49 0f af f4          	imul   %r12,%rsi
            let nij = ni + j;
    480b:	48 03 74 24 38       	add    0x38(%rsp),%rsi
    4810:	48 39 f0             	cmp    %rsi,%rax
    4813:	0f 86 88 03 00 00    	jbe    4ba1 <_ZN13num_perf_demo4main17haa0faba82560184cE+0x1001>
    4819:	49 ff c1             	inc    %r9
    481c:	48 c7 04 f3 00 00 00 	movq   $0x0,(%rbx,%rsi,8)
    4823:	00 
    4824:	4c 3b 64 24 30       	cmp    0x30(%rsp),%r12
    4829:	76 c5                	jbe    47f0 <_ZN13num_perf_demo4main17haa0faba82560184cE+0xc50>
    482b:	48 83 bc 24 38 01 00 	cmpq   $0x3,0x138(%rsp)
    4832:	00 03 
    4834:	73 1a                	jae    4850 <_ZN13num_perf_demo4main17haa0faba82560184cE+0xcb0>
    4836:	c5 f1 57 c9          	vxorpd %xmm1,%xmm1,%xmm1
    483a:	31 c9                	xor    %ecx,%ecx
    483c:	4d 85 c0             	test   %r8,%r8
    483f:	0f 85 80 00 00 00    	jne    48c5 <_ZN13num_perf_demo4main17haa0faba82560184cE+0xd25>
    4845:	eb a9                	jmp    47f0 <_ZN13num_perf_demo4main17haa0faba82560184cE+0xc50>
    4847:	66 0f 1f 84 00 00 00 	nopw   0x0(%rax,%rax,1)
    484e:	00 00 
    4850:	c5 f1 57 c9          	vxorpd %xmm1,%xmm1,%xmm1
    4854:	31 c9                	xor    %ecx,%ecx
    4856:	66 2e 0f 1f 84 00 00 	nopw   %cs:0x0(%rax,%rax,1)
    485d:	00 00 00 
                    C[nij] += A.get_unchecked(ni + k) * Bc.get_unchecked(k);
    4860:	c5 fb 10 54 cd e8    	vmovsd -0x18(%rbp,%rcx,8),%xmm2
    4866:	c5 eb 59 14 cf       	vmulsd (%rdi,%rcx,8),%xmm2,%xmm2
    486b:	c5 f3 58 ca          	vaddsd %xmm2,%xmm1,%xmm1
    486f:	c5 fb 11 0c f3       	vmovsd %xmm1,(%rbx,%rsi,8)
    4874:	c5 fb 10 54 cd f0    	vmovsd -0x10(%rbp,%rcx,8),%xmm2
    487a:	c5 eb 59 54 cf 08    	vmulsd 0x8(%rdi,%rcx,8),%xmm2,%xmm2
    4880:	c5 f3 58 ca          	vaddsd %xmm2,%xmm1,%xmm1
    4884:	c5 fb 11 0c f3       	vmovsd %xmm1,(%rbx,%rsi,8)
    4889:	c5 fb 10 54 cd f8    	vmovsd -0x8(%rbp,%rcx,8),%xmm2
    488f:	c5 eb 59 54 cf 10    	vmulsd 0x10(%rdi,%rcx,8),%xmm2,%xmm2
    4895:	c5 f3 58 ca          	vaddsd %xmm2,%xmm1,%xmm1
    4899:	c5 fb 11 0c f3       	vmovsd %xmm1,(%rbx,%rsi,8)
    489e:	c5 fb 10 54 cd 00    	vmovsd 0x0(%rbp,%rcx,8),%xmm2
    48a4:	c5 eb 59 54 cf 18    	vmulsd 0x18(%rdi,%rcx,8),%xmm2,%xmm2
    48aa:	48 83 c1 04          	add    $0x4,%rcx
    48ae:	c5 f3 58 ca          	vaddsd %xmm2,%xmm1,%xmm1
    48b2:	c5 fb 11 0c f3       	vmovsd %xmm1,(%rbx,%rsi,8)
    48b7:	49 39 ce             	cmp    %rcx,%r14
    48ba:	75 a4                	jne    4860 <_ZN13num_perf_demo4main17haa0faba82560184cE+0xcc0>
    48bc:	4d 85 c0             	test   %r8,%r8
    48bf:	0f 84 2b ff ff ff    	je     47f0 <_ZN13num_perf_demo4main17haa0faba82560184cE+0xc50>
    48c5:	48 8d 04 cf          	lea    (%rdi,%rcx,8),%rax
    48c9:	49 8d 0c cb          	lea    (%r11,%rcx,8),%rcx
    48cd:	31 d2                	xor    %edx,%edx
    48cf:	90                   	nop
    48d0:	c5 fb 10 14 d1       	vmovsd (%rcx,%rdx,8),%xmm2
    48d5:	c5 eb 59 14 d0       	vmulsd (%rax,%rdx,8),%xmm2,%xmm2
    48da:	c5 f3 58 ca          	vaddsd %xmm2,%xmm1,%xmm1
    48de:	c5 fb 11 0c f3       	vmovsd %xmm1,(%rbx,%rsi,8)
    48e3:	48 ff c2             	inc    %rdx
    48e6:	49 39 d0             	cmp    %rdx,%r8
    48e9:	75 e5                	jne    48d0 <_ZN13num_perf_demo4main17haa0faba82560184cE+0xd30>
    48eb:	e9 00 ff ff ff       	jmpq   47f0 <_ZN13num_perf_demo4main17haa0faba82560184cE+0xc50>
    return C;
    48f0:	48 8b 44 24 70       	mov    0x70(%rsp),%rax
    48f5:	48 89 84 24 d0 00 00 	mov    %rax,0xd0(%rsp)
    48fc:	00 
    48fd:	c5 f8 10 44 24 60    	vmovups 0x60(%rsp),%xmm0
    4903:	c5 f8 29 84 24 c0 00 	vmovaps %xmm0,0xc0(%rsp)
    490a:	00 00 
    490c:	c5 f8 77             	vzeroupper 
    490f:	ff 15 93 34 23 00    	callq  *0x233493(%rip)        # 237da8 <free@GLIBC_2.2.5>
    4915:	48 83 7c 24 48 00    	cmpq   $0x0,0x48(%rsp)
    491b:	74 0e                	je     492b <_ZN13num_perf_demo4main17haa0faba82560184cE+0xd8b>
    491d:	48 8b bc 24 00 01 00 	mov    0x100(%rsp),%rdi
    4924:	00 
    4925:	ff 15 7d 34 23 00    	callq  *0x23347d(%rip)        # 237da8 <free@GLIBC_2.2.5>
    492b:	48 83 bc 24 88 00 00 	cmpq   $0x0,0x88(%rsp)
    4932:	00 00 
    4934:	74 0e                	je     4944 <_ZN13num_perf_demo4main17haa0faba82560184cE+0xda4>
    4936:	48 8b bc 24 a8 00 00 	mov    0xa8(%rsp),%rdi
    493d:	00 
    493e:	ff 15 64 34 23 00    	callq  *0x233464(%rip)        # 237da8 <free@GLIBC_2.2.5>

    // Sum elements.
    let sum = mat_elem_sum(n, C) / ((n * n) as f64);
    4944:	c5 f9 28 84 24 c0 00 	vmovapd 0xc0(%rsp),%xmm0
    494b:	00 00 
    494d:	c5 f9 29 04 24       	vmovapd %xmm0,(%rsp)
    4952:	48 8b 94 24 d0 00 00 	mov    0xd0(%rsp),%rdx
    4959:	00 
    495a:	48 89 54 24 10       	mov    %rdx,0x10(%rsp)
    495f:	48 8b 3c 24          	mov    (%rsp),%rdi
    4963:	c5 f1 57 c9          	vxorpd %xmm1,%xmm1,%xmm1
    4967:	31 c0                	xor    %eax,%eax
    4969:	48 89 f9             	mov    %rdi,%rcx
    496c:	31 ed                	xor    %ebp,%ebp
    496e:	66 90                	xchg   %ax,%ax
    4970:	48 ff c5             	inc    %rbp
    4973:	31 db                	xor    %ebx,%ebx
    4975:	66 2e 0f 1f 84 00 00 	nopw   %cs:0x0(%rax,%rax,1)
    497c:	00 00 00 
    497f:	90                   	nop
    4980:	48 8d 34 18          	lea    (%rax,%rbx,1),%rsi
    4984:	48 39 f2             	cmp    %rsi,%rdx
    4987:	0f 86 2d 02 00 00    	jbe    4bba <_ZN13num_perf_demo4main17haa0faba82560184cE+0x101a>
            sum += mat[i * n + j];
    498d:	c5 f3 58 0c d9       	vaddsd (%rcx,%rbx,8),%xmm1,%xmm1
    4992:	48 ff c3             	inc    %rbx
    4995:	49 39 dc             	cmp    %rbx,%r12
    4998:	75 e6                	jne    4980 <_ZN13num_perf_demo4main17haa0faba82560184cE+0xde0>
    499a:	4c 01 e0             	add    %r12,%rax
    499d:	4c 01 f9             	add    %r15,%rcx
    49a0:	4c 39 e5             	cmp    %r12,%rbp
    49a3:	75 cb                	jne    4970 <_ZN13num_perf_demo4main17haa0faba82560184cE+0xdd0>
    49a5:	48 83 7c 24 08 00    	cmpq   $0x0,0x8(%rsp)
    49ab:	74 12                	je     49bf <_ZN13num_perf_demo4main17haa0faba82560184cE+0xe1f>
    49ad:	c5 fb 11 4c 24 30    	vmovsd %xmm1,0x30(%rsp)
    49b3:	ff 15 ef 33 23 00    	callq  *0x2333ef(%rip)        # 237da8 <free@GLIBC_2.2.5>
    49b9:	c5 fb 10 4c 24 30    	vmovsd 0x30(%rsp),%xmm1
    let sum = mat_elem_sum(n, C) / ((n * n) as f64);
    49bf:	c5 fb 10 44 24 58    	vmovsd 0x58(%rsp),%xmm0
    49c5:	c5 f8 14 05 63 81 02 	vunpcklps 0x28163(%rip),%xmm0,%xmm0        # 2cb30 <_fini+0xc>
    49cc:	00 
    49cd:	c5 f9 5c 05 6b 81 02 	vsubpd 0x2816b(%rip),%xmm0,%xmm0        # 2cb40 <_fini+0x1c>
    49d4:	00 
    49d5:	c5 f9 7c c0          	vhaddpd %xmm0,%xmm0,%xmm0
    49d9:	c5 f3 5e c0          	vdivsd %xmm0,%xmm1,%xmm0
    49dd:	c5 fb 11 84 24 80 00 	vmovsd %xmm0,0x80(%rsp)
    49e4:	00 00 
    49e6:	c5 f9 57 c0          	vxorpd %xmm0,%xmm0,%xmm0
    49ea:	c5 f9 29 44 24 60    	vmovapd %xmm0,0x60(%rsp)
    49f0:	48 8d 74 24 60       	lea    0x60(%rsp),%rsi
    49f5:	bf 01 00 00 00       	mov    $0x1,%edi
    49fa:	ff 15 20 35 23 00    	callq  *0x233520(%rip)        # 237f20 <clock_gettime@GLIBC_2.2.5>
    4a00:	83 f8 ff             	cmp    $0xffffffff,%eax
    4a03:	4c 8b 25 9e 33 23 00 	mov    0x23339e(%rip),%r12        # 237da8 <free@GLIBC_2.2.5>
    4a0a:	0f 84 6b 03 00 00    	je     4d7b <_ZN13num_perf_demo4main17haa0faba82560184cE+0x11db>
    4a10:	c5 f8 28 44 24 60    	vmovaps 0x60(%rsp),%xmm0
    4a16:	c5 f8 29 44 24 40    	vmovaps %xmm0,0x40(%rsp)
    4a1c:	c5 f9 28 84 24 70 01 	vmovapd 0x170(%rsp),%xmm0
    4a23:	00 00 
    4a25:	c5 f9 29 44 24 60    	vmovapd %xmm0,0x60(%rsp)
    4a2b:	48 89 e7             	mov    %rsp,%rdi
    4a2e:	4c 8d 74 24 40       	lea    0x40(%rsp),%r14
    4a33:	4c 8d 7c 24 60       	lea    0x60(%rsp),%r15
    4a38:	4c 89 f6             	mov    %r14,%rsi
    4a3b:	4c 89 fa             	mov    %r15,%rdx
    4a3e:	e8 dd 92 01 00       	callq  1dd20 <_ZN3std3sys4unix4time8Timespec12sub_timespec17h7b26ddd705c1fdd5E>
    4a43:	48 83 3c 24 01       	cmpq   $0x1,(%rsp)
    4a48:	0f 84 76 03 00 00    	je     4dc4 <_ZN13num_perf_demo4main17haa0faba82560184cE+0x1224>
    4a4e:	8b 7c 24 10          	mov    0x10(%rsp),%edi
    4a52:	b8 00 ca 9a 3b       	mov    $0x3b9aca00,%eax
    4a57:	48 f7 64 24 08       	mulq   0x8(%rsp)
    4a5c:	48 01 c7             	add    %rax,%rdi
    4a5f:	48 83 d2 00          	adc    $0x0,%rdx

    let cpu_time_used = timer.elapsed().as_nanos() as f64 / 1.0e9;
    4a63:	48 89 d6             	mov    %rdx,%rsi
    4a66:	ff 15 6c 34 23 00    	callq  *0x23346c(%rip)        # 237ed8 <_GLOBAL_OFFSET_TABLE_+0x1b0>
    4a6c:	c5 fb 5e 05 6c 82 02 	vdivsd 0x2826c(%rip),%xmm0,%xmm0        # 2cce0 <_ZN4core7unicode12unicode_data2cc19BITSET_INDEX_CHUNKS17h8a1f39cd536e9344E+0x80>
    4a73:	00 
    4a74:	c5 fb 11 44 24 40    	vmovsd %xmm0,0x40(%rsp)
    4a7a:	48 8d 84 24 80 00 00 	lea    0x80(%rsp),%rax
    4a81:	00 

    eprintln!("Sum of product elements = {:.6}.", sum);
    4a82:	48 89 44 24 60       	mov    %rax,0x60(%rsp)
    4a87:	48 8d 2d 32 b5 00 00 	lea    0xb532(%rip),%rbp        # ffc0 <_ZN4core3fmt5float52_$LT$impl$u20$core..fmt..Display$u20$for$u20$f64$GT$3fmt17hb0a21601b08973cbE>
    4a8e:	48 89 6c 24 68       	mov    %rbp,0x68(%rsp)
    4a93:	48 8d 05 f6 1b 23 00 	lea    0x231bf6(%rip),%rax        # 236690 <__init_array_end+0xc0>
    4a9a:	48 89 04 24          	mov    %rax,(%rsp)
    4a9e:	48 c7 44 24 08 02 00 	movq   $0x2,0x8(%rsp)
    4aa5:	00 00 
    4aa7:	48 8d 1d 72 8b 02 00 	lea    0x28b72(%rip),%rbx        # 2d620 <_ZN4core7unicode12unicode_data2cc19BITSET_INDEX_CHUNKS17h8a1f39cd536e9344E+0x9c0>
    4aae:	48 89 5c 24 10       	mov    %rbx,0x10(%rsp)
    4ab3:	48 c7 44 24 18 01 00 	movq   $0x1,0x18(%rsp)
    4aba:	00 00 
    4abc:	4c 89 7c 24 20       	mov    %r15,0x20(%rsp)
    4ac1:	48 c7 44 24 28 01 00 	movq   $0x1,0x28(%rsp)
    4ac8:	00 00 
    4aca:	48 89 e7             	mov    %rsp,%rdi
    4acd:	e8 9e 8f 01 00       	callq  1da70 <_ZN3std2io5stdio7_eprint17hf19d6fb036d8919dE>
    eprintln!("Time taken = {:.6} second.", cpu_time_used);
    4ad2:	4c 89 74 24 60       	mov    %r14,0x60(%rsp)
    4ad7:	48 89 6c 24 68       	mov    %rbp,0x68(%rsp)
    4adc:	48 8d 05 cd 1b 23 00 	lea    0x231bcd(%rip),%rax        # 2366b0 <__init_array_end+0xe0>
    4ae3:	48 89 04 24          	mov    %rax,(%rsp)
    4ae7:	48 c7 44 24 08 02 00 	movq   $0x2,0x8(%rsp)
    4aee:	00 00 
    4af0:	48 89 5c 24 10       	mov    %rbx,0x10(%rsp)
    4af5:	48 c7 44 24 18 01 00 	movq   $0x1,0x18(%rsp)
    4afc:	00 00 
    4afe:	4c 89 7c 24 20       	mov    %r15,0x20(%rsp)
    4b03:	48 c7 44 24 28 01 00 	movq   $0x1,0x28(%rsp)
    4b0a:	00 00 
    4b0c:	48 89 e7             	mov    %rsp,%rdi
    4b0f:	e8 5c 8f 01 00       	callq  1da70 <_ZN3std2io5stdio7_eprint17hf19d6fb036d8919dE>
    4b14:	48 8b 84 24 08 01 00 	mov    0x108(%rsp),%rax
    4b1b:	00 
    4b1c:	48 85 c0             	test   %rax,%rax
    4b1f:	48 8b 9c 24 10 01 00 	mov    0x110(%rsp),%rbx
    4b26:	00 
    4b27:	74 38                	je     4b61 <_ZN13num_perf_demo4main17haa0faba82560184cE+0xfc1>
    4b29:	48 c1 e0 03          	shl    $0x3,%rax
    4b2d:	4c 8d 34 40          	lea    (%rax,%rax,2),%r14
    4b31:	31 ed                	xor    %ebp,%ebp
    4b33:	48 83 7c 2b 08 00    	cmpq   $0x0,0x8(%rbx,%rbp,1)
    4b39:	75 16                	jne    4b51 <_ZN13num_perf_demo4main17haa0faba82560184cE+0xfb1>
    4b3b:	0f 1f 44 00 00       	nopl   0x0(%rax,%rax,1)
    4b40:	48 83 c5 18          	add    $0x18,%rbp
    4b44:	49 39 ee             	cmp    %rbp,%r14
    4b47:	74 18                	je     4b61 <_ZN13num_perf_demo4main17haa0faba82560184cE+0xfc1>
    4b49:	48 83 7c 2b 08 00    	cmpq   $0x0,0x8(%rbx,%rbp,1)
    4b4f:	74 ef                	je     4b40 <_ZN13num_perf_demo4main17haa0faba82560184cE+0xfa0>
    4b51:	48 8b 3c 2b          	mov    (%rbx,%rbp,1),%rdi
    4b55:	41 ff d4             	callq  *%r12
    4b58:	48 83 c5 18          	add    $0x18,%rbp
    4b5c:	49 39 ee             	cmp    %rbp,%r14
    4b5f:	75 e8                	jne    4b49 <_ZN13num_perf_demo4main17haa0faba82560184cE+0xfa9>
    4b61:	48 83 bc 24 e8 00 00 	cmpq   $0x0,0xe8(%rsp)
    4b68:	00 00 
    4b6a:	74 09                	je     4b75 <_ZN13num_perf_demo4main17haa0faba82560184cE+0xfd5>
    4b6c:	48 89 df             	mov    %rbx,%rdi
    4b6f:	ff 15 33 32 23 00    	callq  *0x233233(%rip)        # 237da8 <free@GLIBC_2.2.5>
}
    4b75:	48 81 c4 88 01 00 00 	add    $0x188,%rsp
    4b7c:	5b                   	pop    %rbx
    4b7d:	41 5c                	pop    %r12
    4b7f:	41 5d                	pop    %r13
    4b81:	41 5e                	pop    %r14
    4b83:	41 5f                	pop    %r15
    4b85:	5d                   	pop    %rbp
    4b86:	c3                   	retq   
    4b87:	48 8d 3d b2 1a 23 00 	lea    0x231ab2(%rip),%rdi        # 236640 <__init_array_end+0x70>
    4b8e:	4c 89 e6             	mov    %r12,%rsi
    4b91:	4c 89 e2             	mov    %r12,%rdx
    4b94:	c5 f8 77             	vzeroupper 
    4b97:	e8 34 2c 00 00       	callq  77d0 <_ZN4core9panicking18panic_bounds_check17h83121a2515f55ceeE>
    4b9c:	e9 05 f3 ff ff       	jmpq   3ea6 <_ZN13num_perf_demo4main17haa0faba82560184cE+0x306>
    4ba1:	48 8d 3d 98 1a 23 00 	lea    0x231a98(%rip),%rdi        # 236640 <__init_array_end+0x70>
    4ba8:	48 8b 54 24 58       	mov    0x58(%rsp),%rdx
    4bad:	c5 f8 77             	vzeroupper 
    4bb0:	e8 1b 2c 00 00       	callq  77d0 <_ZN4core9panicking18panic_bounds_check17h83121a2515f55ceeE>
    4bb5:	e9 ec f2 ff ff       	jmpq   3ea6 <_ZN13num_perf_demo4main17haa0faba82560184cE+0x306>
    4bba:	48 8d 3d 67 1a 23 00 	lea    0x231a67(%rip),%rdi        # 236628 <__init_array_end+0x58>
    4bc1:	e8 0a 2c 00 00       	callq  77d0 <_ZN4core9panicking18panic_bounds_check17h83121a2515f55ceeE>
    4bc6:	e9 db f2 ff ff       	jmpq   3ea6 <_ZN13num_perf_demo4main17haa0faba82560184cE+0x306>
    4bcb:	4c 89 2c 24          	mov    %r13,(%rsp)
    4bcf:	4c 89 74 24 10       	mov    %r14,0x10(%rsp)
    4bd4:	48 c7 c7 ff ff ff ff 	mov    $0xffffffffffffffff,%rdi
    4bdb:	31 f6                	xor    %esi,%esi
    4bdd:	e8 be 33 00 00       	callq  7fa0 <_ZN4core5slice20slice_index_len_fail17h52736412c1ce1871E>
    4be2:	e9 bf f2 ff ff       	jmpq   3ea6 <_ZN13num_perf_demo4main17haa0faba82560184cE+0x306>
    4be7:	b2 01                	mov    $0x1,%dl
    4be9:	88 14 24             	mov    %dl,(%rsp)
    4bec:	48 8d 3d de ac 02 00 	lea    0x2acde(%rip),%rdi        # 2f8d1 <_ZN4core7unicode12unicode_data2cc6BITSET17h5201257bcf8f09faE+0x771>
    4bf3:	48 8d 0d 0e 1a 23 00 	lea    0x231a0e(%rip),%rcx        # 236608 <__init_array_end+0x38>
    4bfa:	4c 8d 05 67 1a 23 00 	lea    0x231a67(%rip),%r8        # 236668 <__init_array_end+0x98>
    4c01:	48 89 e2             	mov    %rsp,%rdx
    4c04:	be 2b 00 00 00       	mov    $0x2b,%esi
    4c09:	c5 f8 77             	vzeroupper 
    4c0c:	e8 1f 54 00 00       	callq  a030 <_ZN4core6option18expect_none_failed17he0fec195c6e4c2ecE>
    4c11:	e9 90 f2 ff ff       	jmpq   3ea6 <_ZN13num_perf_demo4main17haa0faba82560184cE+0x306>
    4c16:	48 89 6c 24 40       	mov    %rbp,0x40(%rsp)
    4c1b:	4c 89 7c 24 48       	mov    %r15,0x48(%rsp)
    4c20:	48 89 5c 24 50       	mov    %rbx,0x50(%rsp)
    4c25:	48 8d 3d a5 ac 02 00 	lea    0x2aca5(%rip),%rdi        # 2f8d1 <_ZN4core7unicode12unicode_data2cc6BITSET17h5201257bcf8f09faE+0x771>
    4c2c:	48 8d 0d 05 2b 23 00 	lea    0x232b05(%rip),%rcx        # 237738 <__init_array_end+0x1168>
    4c33:	4c 8d 05 1e 2b 23 00 	lea    0x232b1e(%rip),%r8        # 237758 <__init_array_end+0x1188>
    4c3a:	48 8d 54 24 40       	lea    0x40(%rsp),%rdx
    4c3f:	be 2b 00 00 00       	mov    $0x2b,%esi
    4c44:	e8 e7 53 00 00       	callq  a030 <_ZN4core6option18expect_none_failed17he0fec195c6e4c2ecE>
    4c49:	e9 58 f2 ff ff       	jmpq   3ea6 <_ZN13num_perf_demo4main17haa0faba82560184cE+0x306>
    4c4e:	4c 89 bc 24 90 00 00 	mov    %r15,0x90(%rsp)
    4c55:	00 
    4c56:	4c 89 bc 24 88 00 00 	mov    %r15,0x88(%rsp)
    4c5d:	00 
    4c5e:	e8 3d 0c 00 00       	callq  58a0 <_ZN5alloc7raw_vec17capacity_overflow17h9be7d3ce681ac1a6E>
    4c63:	e9 3e f2 ff ff       	jmpq   3ea6 <_ZN13num_perf_demo4main17haa0faba82560184cE+0x306>
    4c68:	45 31 e4             	xor    %r12d,%r12d
    4c6b:	4c 89 e7             	mov    %r12,%rdi
    4c6e:	4c 89 f6             	mov    %r14,%rsi
    4c71:	e8 1a 0c 00 00       	callq  5890 <_ZN5alloc5alloc18handle_alloc_error17hf7bb8682f6c8b1d7E>
    4c76:	0f 0b                	ud2    
    4c78:	be 08 00 00 00       	mov    $0x8,%esi
    4c7d:	48 89 ef             	mov    %rbp,%rdi
    4c80:	e8 0b 0c 00 00       	callq  5890 <_ZN5alloc5alloc18handle_alloc_error17hf7bb8682f6c8b1d7E>
    4c85:	0f 0b                	ud2    
    4c87:	e8 14 0c 00 00       	callq  58a0 <_ZN5alloc7raw_vec17capacity_overflow17h9be7d3ce681ac1a6E>
    4c8c:	e9 15 f2 ff ff       	jmpq   3ea6 <_ZN13num_perf_demo4main17haa0faba82560184cE+0x306>
    4c91:	31 d2                	xor    %edx,%edx
    4c93:	e9 51 ff ff ff       	jmpq   4be9 <_ZN13num_perf_demo4main17haa0faba82560184cE+0x1049>
    4c98:	4c 89 3c 24          	mov    %r15,(%rsp)
    4c9c:	4c 89 64 24 08       	mov    %r12,0x8(%rsp)
    4ca1:	4c 89 74 24 10       	mov    %r14,0x10(%rsp)
    4ca6:	48 8d 3d 24 ac 02 00 	lea    0x2ac24(%rip),%rdi        # 2f8d1 <_ZN4core7unicode12unicode_data2cc6BITSET17h5201257bcf8f09faE+0x771>
    4cad:	48 8d 0d 84 2a 23 00 	lea    0x232a84(%rip),%rcx        # 237738 <__init_array_end+0x1168>
    4cb4:	4c 8d 05 9d 2a 23 00 	lea    0x232a9d(%rip),%r8        # 237758 <__init_array_end+0x1188>
    4cbb:	48 89 e2             	mov    %rsp,%rdx
    4cbe:	be 2b 00 00 00       	mov    $0x2b,%esi
    4cc3:	e8 68 53 00 00       	callq  a030 <_ZN4core6option18expect_none_failed17he0fec195c6e4c2ecE>
    4cc8:	e9 d9 f1 ff ff       	jmpq   3ea6 <_ZN13num_perf_demo4main17haa0faba82560184cE+0x306>
    4ccd:	e8 4e ed ff ff       	callq  3a20 <_ZN5alloc7raw_vec19RawVec$LT$T$C$A$GT$11allocate_in28_$u7b$$u7b$closure$u7d$$u7d$17h09e49a6ecabf76dbE>
    4cd2:	e9 cf f1 ff ff       	jmpq   3ea6 <_ZN13num_perf_demo4main17haa0faba82560184cE+0x306>
    4cd7:	48 8d 05 a2 19 23 00 	lea    0x2319a2(%rip),%rax        # 236680 <__init_array_end+0xb0>
    4cde:	48 89 04 24          	mov    %rax,(%rsp)
    4ce2:	48 c7 44 24 08 01 00 	movq   $0x1,0x8(%rsp)
    4ce9:	00 00 
    4ceb:	48 c7 44 24 10 00 00 	movq   $0x0,0x10(%rsp)
    4cf2:	00 00 
    4cf4:	48 8d 05 4d a7 02 00 	lea    0x2a74d(%rip),%rax        # 2f448 <_ZN4core7unicode12unicode_data2cc6BITSET17h5201257bcf8f09faE+0x2e8>
    4cfb:	48 89 44 24 20       	mov    %rax,0x20(%rsp)
    4d00:	48 c7 44 24 28 00 00 	movq   $0x0,0x28(%rsp)
    4d07:	00 00 
    4d09:	48 89 e7             	mov    %rsp,%rdi
        eprintln!("Dimension argument too small.");
    4d0c:	c5 f8 77             	vzeroupper 
    4d0f:	e8 5c 8d 01 00       	callq  1da70 <_ZN3std2io5stdio7_eprint17hf19d6fb036d8919dE>
        exit(1);
    4d14:	e8 07 91 01 00       	callq  1de20 <_ZN3std7process4exit17h48d7a25190f60a46E>
    4d19:	e9 88 f1 ff ff       	jmpq   3ea6 <_ZN13num_perf_demo4main17haa0faba82560184cE+0x306>
    4d1e:	ff 15 9c 30 23 00    	callq  *0x23309c(%rip)        # 237dc0 <__errno_location@GLIBC_2.2.5>
    4d24:	8b 00                	mov    (%rax),%eax
    4d26:	c6 04 24 00          	movb   $0x0,(%rsp)
    4d2a:	0f b7 4c 24 40       	movzwl 0x40(%rsp),%ecx
    4d2f:	66 89 4c 24 01       	mov    %cx,0x1(%rsp)
    4d34:	8a 4c 24 42          	mov    0x42(%rsp),%cl
    4d38:	88 4c 24 03          	mov    %cl,0x3(%rsp)
    4d3c:	89 44 24 04          	mov    %eax,0x4(%rsp)
    4d40:	48 8d 3d 8a ab 02 00 	lea    0x2ab8a(%rip),%rdi        # 2f8d1 <_ZN4core7unicode12unicode_data2cc6BITSET17h5201257bcf8f09faE+0x771>
    4d47:	48 8d 0d 92 2b 23 00 	lea    0x232b92(%rip),%rcx        # 2378e0 <__init_array_end+0x1310>
    4d4e:	4c 8d 05 ab 2b 23 00 	lea    0x232bab(%rip),%r8        # 237900 <__init_array_end+0x1330>
    4d55:	48 89 e2             	mov    %rsp,%rdx
    4d58:	be 2b 00 00 00       	mov    $0x2b,%esi
    4d5d:	e8 ce 52 00 00       	callq  a030 <_ZN4core6option18expect_none_failed17he0fec195c6e4c2ecE>
    4d62:	e9 3f f1 ff ff       	jmpq   3ea6 <_ZN13num_perf_demo4main17haa0faba82560184cE+0x306>
    4d67:	e8 b4 ec ff ff       	callq  3a20 <_ZN5alloc7raw_vec19RawVec$LT$T$C$A$GT$11allocate_in28_$u7b$$u7b$closure$u7d$$u7d$17h09e49a6ecabf76dbE>
    4d6c:	e9 35 f1 ff ff       	jmpq   3ea6 <_ZN13num_perf_demo4main17haa0faba82560184cE+0x306>
    4d71:	e8 aa ec ff ff       	callq  3a20 <_ZN5alloc7raw_vec19RawVec$LT$T$C$A$GT$11allocate_in28_$u7b$$u7b$closure$u7d$$u7d$17h09e49a6ecabf76dbE>
    4d76:	e9 2b f1 ff ff       	jmpq   3ea6 <_ZN13num_perf_demo4main17haa0faba82560184cE+0x306>
    4d7b:	ff 15 3f 30 23 00    	callq  *0x23303f(%rip)        # 237dc0 <__errno_location@GLIBC_2.2.5>
    4d81:	8b 00                	mov    (%rax),%eax
    4d83:	c6 04 24 00          	movb   $0x0,(%rsp)
    4d87:	0f b7 4c 24 40       	movzwl 0x40(%rsp),%ecx
    4d8c:	66 89 4c 24 01       	mov    %cx,0x1(%rsp)
    4d91:	8a 4c 24 42          	mov    0x42(%rsp),%cl
    4d95:	88 4c 24 03          	mov    %cl,0x3(%rsp)
    4d99:	89 44 24 04          	mov    %eax,0x4(%rsp)
    4d9d:	48 8d 3d 2d ab 02 00 	lea    0x2ab2d(%rip),%rdi        # 2f8d1 <_ZN4core7unicode12unicode_data2cc6BITSET17h5201257bcf8f09faE+0x771>
    4da4:	48 8d 0d 35 2b 23 00 	lea    0x232b35(%rip),%rcx        # 2378e0 <__init_array_end+0x1310>
    4dab:	4c 8d 05 4e 2b 23 00 	lea    0x232b4e(%rip),%r8        # 237900 <__init_array_end+0x1330>
    4db2:	48 89 e2             	mov    %rsp,%rdx
    4db5:	be 2b 00 00 00       	mov    $0x2b,%esi
    4dba:	e8 71 52 00 00       	callq  a030 <_ZN4core6option18expect_none_failed17he0fec195c6e4c2ecE>
    4dbf:	e9 e2 f0 ff ff       	jmpq   3ea6 <_ZN13num_perf_demo4main17haa0faba82560184cE+0x306>
    4dc4:	48 8d 3d 3e ae 02 00 	lea    0x2ae3e(%rip),%rdi        # 2fc09 <_ZN4core7unicode12unicode_data2cc6BITSET17h5201257bcf8f09faE+0xaa9>
    4dcb:	48 8d 15 46 2b 23 00 	lea    0x232b46(%rip),%rdx        # 237918 <__init_array_end+0x1348>
    4dd2:	be 23 00 00 00       	mov    $0x23,%esi
    4dd7:	e8 e4 51 00 00       	callq  9fc0 <_ZN4core6option13expect_failed17h76ad4c74f3ea7214E>
    4ddc:	e9 c5 f0 ff ff       	jmpq   3ea6 <_ZN13num_perf_demo4main17haa0faba82560184cE+0x306>
    4de1:	48 89 c3             	mov    %rax,%rbx
    4de4:	48 89 e7             	mov    %rsp,%rdi
    4de7:	e8 e4 5f 01 00       	callq  1add0 <_ZN4core3ptr13drop_in_place17h0756a94afff92eb4E>
    4dec:	e9 2e 01 00 00       	jmpq   4f1f <_ZN13num_perf_demo4main17haa0faba82560184cE+0x137f>
    4df1:	48 89 c3             	mov    %rax,%rbx
    4df4:	e9 ec 00 00 00       	jmpq   4ee5 <_ZN13num_perf_demo4main17haa0faba82560184cE+0x1345>
    4df9:	48 89 c3             	mov    %rax,%rbx
    4dfc:	e9 ee 00 00 00       	jmpq   4eef <_ZN13num_perf_demo4main17haa0faba82560184cE+0x134f>
    4e01:	48 89 c3             	mov    %rax,%rbx
    4e04:	48 89 e7             	mov    %rsp,%rdi
    4e07:	e8 c4 5f 01 00       	callq  1add0 <_ZN4core3ptr13drop_in_place17h0756a94afff92eb4E>
    4e0c:	eb 03                	jmp    4e11 <_ZN13num_perf_demo4main17haa0faba82560184cE+0x1271>
    4e0e:	48 89 c3             	mov    %rax,%rbx
    4e11:	48 8d bc 24 58 01 00 	lea    0x158(%rsp),%rdi
    4e18:	00 
}
    4e19:	e8 e2 eb ff ff       	callq  3a00 <_ZN4core3ptr13drop_in_place17hc676cb92792a9e4bE>
    4e1e:	e9 e8 00 00 00       	jmpq   4f0b <_ZN13num_perf_demo4main17haa0faba82560184cE+0x136b>
    4e23:	48 89 c3             	mov    %rax,%rbx
    4e26:	48 89 e7             	mov    %rsp,%rdi
    4e29:	e8 22 eb ff ff       	callq  3950 <_ZN4core3ptr13drop_in_place17h64764b65f5c7353eE>
    4e2e:	eb 0b                	jmp    4e3b <_ZN13num_perf_demo4main17haa0faba82560184cE+0x129b>
    4e30:	48 89 c3             	mov    %rax,%rbx
    4e33:	48 89 e7             	mov    %rsp,%rdi
    4e36:	e8 95 2d 01 00       	callq  17bd0 <_ZN4core3ptr13drop_in_place17h5563ae43ca5ac214E>
    4e3b:	48 8d 7c 24 60       	lea    0x60(%rsp),%rdi
    4e40:	e8 9b ea ff ff       	callq  38e0 <_ZN4core3ptr13drop_in_place17h451f5cd648756192E>
    4e45:	48 89 df             	mov    %rbx,%rdi
    4e48:	e8 f3 e8 ff ff       	callq  3740 <_Unwind_Resume@plt>
    4e4d:	0f 0b                	ud2    
    4e4f:	48 89 c3             	mov    %rax,%rbx
    4e52:	eb 5b                	jmp    4eaf <_ZN13num_perf_demo4main17haa0faba82560184cE+0x130f>
    4e54:	48 89 c3             	mov    %rax,%rbx
    4e57:	48 8d 7c 24 40       	lea    0x40(%rsp),%rdi
    4e5c:	e8 ef ea ff ff       	callq  3950 <_ZN4core3ptr13drop_in_place17h64764b65f5c7353eE>
    4e61:	eb 22                	jmp    4e85 <_ZN13num_perf_demo4main17haa0faba82560184cE+0x12e5>
    4e63:	48 89 c3             	mov    %rax,%rbx
    4e66:	48 8d 7c 24 40       	lea    0x40(%rsp),%rdi
    4e6b:	e8 60 2d 01 00       	callq  17bd0 <_ZN4core3ptr13drop_in_place17h5563ae43ca5ac214E>
    4e70:	4c 89 ac 24 90 00 00 	mov    %r13,0x90(%rsp)
    4e77:	00 
    4e78:	48 8b 44 24 30       	mov    0x30(%rsp),%rax
    4e7d:	48 89 84 24 88 00 00 	mov    %rax,0x88(%rsp)
    4e84:	00 
    4e85:	48 89 e7             	mov    %rsp,%rdi
    4e88:	e8 53 ea ff ff       	callq  38e0 <_ZN4core3ptr13drop_in_place17h451f5cd648756192E>
    4e8d:	48 8d bc 24 80 00 00 	lea    0x80(%rsp),%rdi
    4e94:	00 
    4e95:	e8 d6 ea ff ff       	callq  3970 <_ZN4core3ptr13drop_in_place17hbcfb7369fd07f712E>
    4e9a:	48 89 df             	mov    %rbx,%rdi
    4e9d:	e8 9e e8 ff ff       	callq  3740 <_Unwind_Resume@plt>
    4ea2:	0f 0b                	ud2    
    4ea4:	48 89 c3             	mov    %rax,%rbx
    4ea7:	48 89 e7             	mov    %rsp,%rdi
    4eaa:	e8 81 76 01 00       	callq  1c530 <_ZN4core3ptr13drop_in_place17hd9662a405d88168dE>
    4eaf:	48 8d 7c 24 60       	lea    0x60(%rsp),%rdi
    4eb4:	e8 f7 75 01 00       	callq  1c4b0 <_ZN4core3ptr13drop_in_place17h3299cdb2d88644f0E>
    4eb9:	48 8d 7c 24 40       	lea    0x40(%rsp),%rdi
    4ebe:	e8 ad 15 01 00       	callq  16470 <_ZN4core3ptr13drop_in_place17hdc1814fe4f8f9b15E>
    4ec3:	48 89 df             	mov    %rbx,%rdi
    4ec6:	e8 75 e8 ff ff       	callq  3740 <_Unwind_Resume@plt>
    4ecb:	0f 0b                	ud2    
    4ecd:	48 89 c3             	mov    %rax,%rbx
    4ed0:	48 89 e7             	mov    %rsp,%rdi
}
    4ed3:	e8 28 eb ff ff       	callq  3a00 <_ZN4core3ptr13drop_in_place17hc676cb92792a9e4bE>
    4ed8:	eb 45                	jmp    4f1f <_ZN13num_perf_demo4main17haa0faba82560184cE+0x137f>
    4eda:	48 89 c3             	mov    %rax,%rbx
    4edd:	48 89 e7             	mov    %rsp,%rdi
}
    4ee0:	e8 1b eb ff ff       	callq  3a00 <_ZN4core3ptr13drop_in_place17hc676cb92792a9e4bE>
    4ee5:	48 8d 7c 24 60       	lea    0x60(%rsp),%rdi
    4eea:	e8 11 eb ff ff       	callq  3a00 <_ZN4core3ptr13drop_in_place17hc676cb92792a9e4bE>
    4eef:	48 8d 7c 24 40       	lea    0x40(%rsp),%rdi
    4ef4:	e8 07 eb ff ff       	callq  3a00 <_ZN4core3ptr13drop_in_place17hc676cb92792a9e4bE>
    4ef9:	48 8d bc 24 80 00 00 	lea    0x80(%rsp),%rdi
    4f00:	00 
    4f01:	e8 fa ea ff ff       	callq  3a00 <_ZN4core3ptr13drop_in_place17hc676cb92792a9e4bE>
    4f06:	eb 17                	jmp    4f1f <_ZN13num_perf_demo4main17haa0faba82560184cE+0x137f>
    4f08:	48 89 c3             	mov    %rax,%rbx
    4f0b:	48 8d bc 24 40 01 00 	lea    0x140(%rsp),%rdi
    4f12:	00 
}
    4f13:	e8 e8 ea ff ff       	callq  3a00 <_ZN4core3ptr13drop_in_place17hc676cb92792a9e4bE>
    4f18:	eb 05                	jmp    4f1f <_ZN13num_perf_demo4main17haa0faba82560184cE+0x137f>
    4f1a:	eb 00                	jmp    4f1c <_ZN13num_perf_demo4main17haa0faba82560184cE+0x137c>
    4f1c:	48 89 c3             	mov    %rax,%rbx
    4f1f:	48 8d bc 24 e0 00 00 	lea    0xe0(%rsp),%rdi
    4f26:	00 
    4f27:	e8 44 ea ff ff       	callq  3970 <_ZN4core3ptr13drop_in_place17hbcfb7369fd07f712E>
    4f2c:	48 89 df             	mov    %rbx,%rdi
    4f2f:	e8 0c e8 ff ff       	callq  3740 <_Unwind_Resume@plt>
    4f34:	0f 0b                	ud2    
    4f36:	66 2e 0f 1f 84 00 00 	nopw   %cs:0x0(%rax,%rax,1)
    4f3d:	00 00 00 

0000000000004f40 <main>:
    4f40:	55                   	push   %rbp
    4f41:	48 89 e5             	mov    %rsp,%rbp
    4f44:	41 57                	push   %r15
    4f46:	41 56                	push   %r14
    4f48:	41 55                	push   %r13
    4f4a:	41 54                	push   %r12
    4f4c:	53                   	push   %rbx
    4f4d:	48 83 e4 e0          	and    $0xffffffffffffffe0,%rsp
    4f51:	48 81 ec 80 01 00 00 	sub    $0x180,%rsp
    4f58:	8a 05 a2 c1 02 00    	mov    0x2c1a2(%rip),%al        # 31100 <__rustc_debug_gdb_scripts_section__>
    4f5e:	48 8d 05 3b ec ff ff 	lea    -0x13c5(%rip),%rax        # 3ba0 <_ZN13num_perf_demo4main17haa0faba82560184cE>
    4f65:	48 89 84 24 a8 00 00 	mov    %rax,0xa8(%rsp)
    4f6c:	00 
    4f6d:	48 8d 84 24 a8 00 00 	lea    0xa8(%rsp),%rax
    4f74:	00 
    4f75:	48 89 84 24 b0 00 00 	mov    %rax,0xb0(%rsp)
    4f7c:	00 
    4f7d:	48 8d 05 54 16 23 00 	lea    0x231654(%rip),%rax        # 2365d8 <__init_array_end+0x8>
    4f84:	48 89 84 24 b8 00 00 	mov    %rax,0xb8(%rsp)
    4f8b:	00 
    4f8c:	be 01 00 00 00       	mov    $0x1,%esi
    4f91:	bf 0d 00 00 00       	mov    $0xd,%edi
    4f96:	ff 15 34 2f 23 00    	callq  *0x232f34(%rip)        # 237ed0 <signal@GLIBC_2.2.5>
    4f9c:	48 83 f8 ff          	cmp    $0xffffffffffffffff,%rax
    4fa0:	0f 84 1d 04 00 00    	je     53c3 <main+0x483>
    4fa6:	bf 1e 00 00 00       	mov    $0x1e,%edi
    4fab:	ff 15 d7 2f 23 00    	callq  *0x232fd7(%rip)        # 237f88 <sysconf@GLIBC_2.2.5>
    4fb1:	48 89 05 08 32 23 00 	mov    %rax,0x233208(%rip)        # 2381c0 <_ZN3std3sys4unix6thread5guard9PAGE_SIZE17h3a4c25a44e74b197E>
    4fb8:	48 85 c0             	test   %rax,%rax
    4fbb:	0f 84 1c 04 00 00    	je     53dd <main+0x49d>
    4fc1:	c5 f8 57 c0          	vxorps %xmm0,%xmm0,%xmm0
    4fc5:	c5 fc 11 84 24 d8 00 	vmovups %ymm0,0xd8(%rsp)
    4fcc:	00 00 
    4fce:	c5 fc 29 84 24 c0 00 	vmovaps %ymm0,0xc0(%rsp)
    4fd5:	00 00 
    4fd7:	48 8d bc 24 c0 00 00 	lea    0xc0(%rsp),%rdi
    4fde:	00 
    4fdf:	c5 f8 77             	vzeroupper 
    4fe2:	ff 15 c8 2e 23 00    	callq  *0x232ec8(%rip)        # 237eb0 <pthread_attr_init@GLIBC_2.2.5>
    4fe8:	89 44 24 50          	mov    %eax,0x50(%rsp)
    4fec:	85 c0                	test   %eax,%eax
    4fee:	0f 85 03 04 00 00    	jne    53f7 <main+0x4b7>
    4ff4:	ff 15 76 2f 23 00    	callq  *0x232f76(%rip)        # 237f70 <pthread_self@GLIBC_2.2.5>
    4ffa:	48 8d b4 24 c0 00 00 	lea    0xc0(%rsp),%rsi
    5001:	00 
    5002:	48 89 c7             	mov    %rax,%rdi
    5005:	ff 15 bd 2d 23 00    	callq  *0x232dbd(%rip)        # 237dc8 <pthread_getattr_np@GLIBC_2.2.5>
    500b:	85 c0                	test   %eax,%eax
    500d:	74 07                	je     5016 <main+0xd6>
    500f:	bb 01 00 00 00       	mov    $0x1,%ebx
    5014:	eb 49                	jmp    505f <main+0x11f>
    5016:	48 c7 84 24 88 00 00 	movq   $0x0,0x88(%rsp)
    501d:	00 00 00 00 00 
    5022:	48 c7 44 24 50 00 00 	movq   $0x0,0x50(%rsp)
    5029:	00 00 
    502b:	48 8d bc 24 c0 00 00 	lea    0xc0(%rsp),%rdi
    5032:	00 
    5033:	48 8d b4 24 88 00 00 	lea    0x88(%rsp),%rsi
    503a:	00 
    503b:	48 8d 54 24 50       	lea    0x50(%rsp),%rdx
    5040:	ff 15 4a 2e 23 00    	callq  *0x232e4a(%rip)        # 237e90 <pthread_attr_getstack@GLIBC_2.2.5>
    5046:	89 84 24 84 00 00 00 	mov    %eax,0x84(%rsp)
    504d:	85 c0                	test   %eax,%eax
    504f:	0f 85 8d 05 00 00    	jne    55e2 <main+0x6a2>
    5055:	4c 8b b4 24 88 00 00 	mov    0x88(%rsp),%r14
    505c:	00 
    505d:	31 db                	xor    %ebx,%ebx
    505f:	48 8d bc 24 c0 00 00 	lea    0xc0(%rsp),%rdi
    5066:	00 
    5067:	ff 15 23 2f 23 00    	callq  *0x232f23(%rip)        # 237f90 <pthread_attr_destroy@GLIBC_2.2.5>
    506d:	89 44 24 50          	mov    %eax,0x50(%rsp)
    5071:	85 c0                	test   %eax,%eax
    5073:	0f 85 fd 03 00 00    	jne    5476 <main+0x536>
    5079:	48 85 db             	test   %rbx,%rbx
    507c:	74 0c                	je     508a <main+0x14a>
    507e:	31 c0                	xor    %eax,%eax
    5080:	48 89 84 24 90 00 00 	mov    %rax,0x90(%rsp)
    5087:	00 
    5088:	eb 4e                	jmp    50d8 <main+0x198>
    508a:	48 8b 0d 2f 31 23 00 	mov    0x23312f(%rip),%rcx        # 2381c0 <_ZN3std3sys4unix6thread5guard9PAGE_SIZE17h3a4c25a44e74b197E>
    5091:	48 85 c9             	test   %rcx,%rcx
    5094:	0f 84 ca 05 00 00    	je     5664 <main+0x724>
    509a:	4c 89 f0             	mov    %r14,%rax
    509d:	48 09 c8             	or     %rcx,%rax
    50a0:	48 c1 e8 20          	shr    $0x20,%rax
    50a4:	74 0a                	je     50b0 <main+0x170>
    50a6:	4c 89 f0             	mov    %r14,%rax
    50a9:	31 d2                	xor    %edx,%edx
    50ab:	48 f7 f1             	div    %rcx
    50ae:	eb 07                	jmp    50b7 <main+0x177>
    50b0:	44 89 f0             	mov    %r14d,%eax
    50b3:	31 d2                	xor    %edx,%edx
    50b5:	f7 f1                	div    %ecx
    50b7:	4e 8d 3c 31          	lea    (%rcx,%r14,1),%r15
    50bb:	49 29 d7             	sub    %rdx,%r15
    50be:	48 85 d2             	test   %rdx,%rdx
    50c1:	4d 0f 44 fe          	cmove  %r14,%r15
    50c5:	4d 89 fc             	mov    %r15,%r12
    50c8:	49 29 cc             	sub    %rcx,%r12
    50cb:	b8 01 00 00 00       	mov    $0x1,%eax
    50d0:	48 89 84 24 90 00 00 	mov    %rax,0x90(%rsp)
    50d7:	00 
    50d8:	c5 f8 57 c0          	vxorps %xmm0,%xmm0,%xmm0
    50dc:	c5 fc 11 84 24 38 01 	vmovups %ymm0,0x138(%rsp)
    50e3:	00 00 
    50e5:	c5 fc 11 84 24 28 01 	vmovups %ymm0,0x128(%rsp)
    50ec:	00 00 
    50ee:	c5 fc 11 84 24 08 01 	vmovups %ymm0,0x108(%rsp)
    50f5:	00 00 
    50f7:	c5 fc 11 84 24 e8 00 	vmovups %ymm0,0xe8(%rsp)
    50fe:	00 00 
    5100:	c5 fc 11 84 24 c8 00 	vmovups %ymm0,0xc8(%rsp)
    5107:	00 00 
    5109:	c7 84 24 48 01 00 00 	movl   $0x8000004,0x148(%rsp)
    5110:	04 00 00 08 
    5114:	48 8d 05 a5 9b 01 00 	lea    0x19ba5(%rip),%rax        # 1ecc0 <_ZN3std3sys4unix14stack_overflow3imp14signal_handler17h6d817a4444c19957E>
    511b:	48 89 84 24 c0 00 00 	mov    %rax,0xc0(%rsp)
    5122:	00 
    5123:	4c 8b 2d be 2c 23 00 	mov    0x232cbe(%rip),%r13        # 237de8 <sigaction@GLIBC_2.2.5>
    512a:	45 31 f6             	xor    %r14d,%r14d
    512d:	48 8d 9c 24 c0 00 00 	lea    0xc0(%rsp),%rbx
    5134:	00 
    5135:	bf 0b 00 00 00       	mov    $0xb,%edi
    513a:	48 89 de             	mov    %rbx,%rsi
    513d:	31 d2                	xor    %edx,%edx
    513f:	c5 f8 77             	vzeroupper 
    5142:	41 ff d5             	callq  *%r13
    5145:	bf 07 00 00 00       	mov    $0x7,%edi
    514a:	48 89 de             	mov    %rbx,%rsi
    514d:	31 d2                	xor    %edx,%edx
    514f:	41 ff d5             	callq  *%r13
    5152:	c5 f8 57 c0          	vxorps %xmm0,%xmm0,%xmm0
    5156:	c5 f8 29 44 24 20    	vmovaps %xmm0,0x20(%rsp)
    515c:	48 c7 44 24 30 00 00 	movq   $0x0,0x30(%rsp)
    5163:	00 00 
    5165:	48 8d 74 24 20       	lea    0x20(%rsp),%rsi
    516a:	31 ff                	xor    %edi,%edi
    516c:	ff 15 46 2e 23 00    	callq  *0x232e46(%rip)        # 237fb8 <sigaltstack@GLIBC_2.2.5>
    5172:	f6 44 24 28 02       	testb  $0x2,0x28(%rsp)
    5177:	74 55                	je     51ce <main+0x28e>
    5179:	be 00 20 00 00       	mov    $0x2000,%esi
    517e:	bf 00 00 00 00       	mov    $0x0,%edi
    5183:	ba 03 00 00 00       	mov    $0x3,%edx
    5188:	b9 22 00 00 00       	mov    $0x22,%ecx
    518d:	41 b8 ff ff ff ff    	mov    $0xffffffff,%r8d
    5193:	45 31 c9             	xor    %r9d,%r9d
    5196:	ff 15 a4 2c 23 00    	callq  *0x232ca4(%rip)        # 237e40 <mmap@GLIBC_2.2.5>
    519c:	48 83 f8 ff          	cmp    $0xffffffffffffffff,%rax
    51a0:	0f 84 c6 03 00 00    	je     556c <main+0x62c>
    51a6:	48 89 44 24 20       	mov    %rax,0x20(%rsp)
    51ab:	c7 44 24 28 00 00 00 	movl   $0x0,0x28(%rsp)
    51b2:	00 
    51b3:	48 c7 44 24 30 00 20 	movq   $0x2000,0x30(%rsp)
    51ba:	00 00 
    51bc:	48 8d 7c 24 20       	lea    0x20(%rsp),%rdi
    51c1:	31 f6                	xor    %esi,%esi
    51c3:	ff 15 ef 2d 23 00    	callq  *0x232def(%rip)        # 237fb8 <sigaltstack@GLIBC_2.2.5>
    51c9:	4c 8b 74 24 20       	mov    0x20(%rsp),%r14
    51ce:	4c 89 35 db 2f 23 00 	mov    %r14,0x232fdb(%rip)        # 2381b0 <_ZN3std3sys4unix14stack_overflow3imp13MAIN_ALTSTACK17h264a7759a758f34eE>
    51d5:	bf 04 00 00 00       	mov    $0x4,%edi
    51da:	ff 15 38 2d 23 00    	callq  *0x232d38(%rip)        # 237f18 <malloc@GLIBC_2.2.5>
    51e0:	48 85 c0             	test   %rax,%rax
    51e3:	0f 84 0c 03 00 00    	je     54f5 <main+0x5b5>
    51e9:	c7 00 6d 61 69 6e    	movl   $0x6e69616d,(%rax)
    51ef:	48 89 84 24 c0 00 00 	mov    %rax,0xc0(%rsp)
    51f6:	00 
    51f7:	c5 f8 28 05 51 79 02 	vmovaps 0x27951(%rip),%xmm0        # 2cb50 <_fini+0x2c>
    51fe:	00 
    51ff:	c5 f8 11 84 24 c8 00 	vmovups %xmm0,0xc8(%rsp)
    5206:	00 00 
    5208:	48 8d bc 24 c0 00 00 	lea    0xc0(%rsp),%rdi
    520f:	00 
    5210:	e8 2b 0a 01 00       	callq  15c40 <_ZN3std6thread6Thread3new17h4aa6d776ccf79e9dE>
    5215:	49 89 c6             	mov    %rax,%r14
    5218:	48 89 44 24 60       	mov    %rax,0x60(%rsp)
    521d:	64 48 83 3c 25 60 ff 	cmpq   $0x1,%fs:0xffffffffffffff60
    5224:	ff ff 01 
    5227:	75 20                	jne    5249 <main+0x309>
    5229:	64 48 8b 04 25 00 00 	mov    %fs:0x0,%rax
    5230:	00 00 
    5232:	48 8d 80 68 ff ff ff 	lea    -0x98(%rax),%rax
    5239:	48 8b 08             	mov    (%rax),%rcx
    523c:	48 ff c1             	inc    %rcx
    523f:	48 85 c9             	test   %rcx,%rcx
    5242:	7f 22                	jg     5266 <main+0x326>
    5244:	e9 bd 02 00 00       	jmpq   5506 <main+0x5c6>
    5249:	e8 22 07 01 00       	callq  15970 <_ZN3std6thread5local4fast12Key$LT$T$GT$14try_initialize17h181e6352b875e74bE>
    524e:	48 85 c0             	test   %rax,%rax
    5251:	0f 84 2f 03 00 00    	je     5586 <main+0x646>
    5257:	48 8b 08             	mov    (%rax),%rcx
    525a:	48 ff c1             	inc    %rcx
    525d:	48 85 c9             	test   %rcx,%rcx
    5260:	0f 8e a0 02 00 00    	jle    5506 <main+0x5c6>
    5266:	48 83 78 08 02       	cmpq   $0x2,0x8(%rax)
    526b:	0f 85 bb 02 00 00    	jne    552c <main+0x5ec>
    5271:	48 8b 84 24 90 00 00 	mov    0x90(%rsp),%rax
    5278:	00 
    5279:	48 89 44 24 20       	mov    %rax,0x20(%rsp)
    527e:	4c 89 64 24 28       	mov    %r12,0x28(%rsp)
    5283:	4c 89 7c 24 30       	mov    %r15,0x30(%rsp)
    5288:	4c 89 74 24 38       	mov    %r14,0x38(%rsp)
    528d:	64 48 83 3c 25 60 ff 	cmpq   $0x1,%fs:0xffffffffffffff60
    5294:	ff ff 01 
    5297:	75 12                	jne    52ab <main+0x36b>
    5299:	64 48 8b 04 25 00 00 	mov    %fs:0x0,%rax
    52a0:	00 00 
    52a2:	48 8d 98 68 ff ff ff 	lea    -0x98(%rax),%rbx
    52a9:	eb 11                	jmp    52bc <main+0x37c>
    52ab:	e8 c0 06 01 00       	callq  15970 <_ZN3std6thread5local4fast12Key$LT$T$GT$14try_initialize17h181e6352b875e74bE>
    52b0:	48 89 c3             	mov    %rax,%rbx
    52b3:	48 85 c0             	test   %rax,%rax
    52b6:	0f 84 f0 02 00 00    	je     55ac <main+0x66c>
    52bc:	48 8b 44 24 30       	mov    0x30(%rsp),%rax
    52c1:	48 89 84 24 d0 00 00 	mov    %rax,0xd0(%rsp)
    52c8:	00 
    52c9:	c5 f8 10 44 24 20    	vmovups 0x20(%rsp),%xmm0
    52cf:	c5 f8 29 84 24 c0 00 	vmovaps %xmm0,0xc0(%rsp)
    52d6:	00 00 
    52d8:	4c 89 b4 24 d8 00 00 	mov    %r14,0xd8(%rsp)
    52df:	00 
    52e0:	48 83 3b 00          	cmpq   $0x0,(%rbx)
    52e4:	0f 85 5c 02 00 00    	jne    5546 <main+0x606>
    52ea:	48 c7 03 ff ff ff ff 	movq   $0xffffffffffffffff,(%rbx)
    52f1:	4c 8d 73 08          	lea    0x8(%rbx),%r14
    52f5:	48 83 7b 08 02       	cmpq   $0x2,0x8(%rbx)
    52fa:	74 13                	je     530f <main+0x3cf>
    52fc:	48 8b 43 20          	mov    0x20(%rbx),%rax
    5300:	f0 48 ff 08          	lock decq (%rax)
    5304:	75 09                	jne    530f <main+0x3cf>
    5306:	48 8d 7b 20          	lea    0x20(%rbx),%rdi
    530a:	e8 81 0e 01 00       	callq  16190 <_ZN5alloc4sync12Arc$LT$T$GT$9drop_slow17h671cd2375e6e21b7E>
    530f:	c5 fc 10 84 24 c0 00 	vmovups 0xc0(%rsp),%ymm0
    5316:	00 00 
    5318:	c4 c1 7c 11 06       	vmovups %ymm0,(%r14)
    531d:	48 ff 03             	incq   (%rbx)
    5320:	48 8b bc 24 b0 00 00 	mov    0xb0(%rsp),%rdi
    5327:	00 
    5328:	48 8b b4 24 b8 00 00 	mov    0xb8(%rsp),%rsi
    532f:	00 
    5330:	c5 f8 77             	vzeroupper 
    5333:	e8 98 9c 01 00       	callq  1efd0 <_ZN3std10sys_common9backtrace28__rust_begin_short_backtrace17hcbc62328ecb87c1cE>
    5338:	89 84 24 c4 00 00 00 	mov    %eax,0xc4(%rsp)
    533f:	31 c0                	xor    %eax,%eax
    5341:	89 84 24 c0 00 00 00 	mov    %eax,0xc0(%rsp)
    5348:	48 8b 05 59 2e 23 00 	mov    0x232e59(%rip),%rax        # 2381a8 <_ZN3std10sys_common7cleanup7CLEANUP17he74d084b7257e166E>
    534f:	48 83 f8 03          	cmp    $0x3,%rax
    5353:	74 19                	je     536e <main+0x42e>
    5355:	c6 44 24 60 01       	movb   $0x1,0x60(%rsp)
    535a:	48 8d 44 24 60       	lea    0x60(%rsp),%rax
    535f:	48 89 44 24 20       	mov    %rax,0x20(%rsp)
    5364:	48 8d 7c 24 20       	lea    0x20(%rsp),%rdi
    5369:	e8 12 8b 01 00       	callq  1de80 <_ZN3std4sync4once4Once10call_inner17hfabbd1bc15485aefE>
    536e:	8b 84 24 c0 00 00 00 	mov    0xc0(%rsp),%eax
    5375:	4c 8b bc 24 c8 00 00 	mov    0xc8(%rsp),%r15
    537c:	00 
    537d:	4c 8b a4 24 d0 00 00 	mov    0xd0(%rsp),%r12
    5384:	00 
    5385:	bb 65 00 00 00       	mov    $0x65,%ebx
    538a:	83 f8 01             	cmp    $0x1,%eax
    538d:	74 07                	je     5396 <main+0x456>
    538f:	8b 9c 24 c4 00 00 00 	mov    0xc4(%rsp),%ebx
    5396:	85 c0                	test   %eax,%eax
    5398:	74 18                	je     53b2 <main+0x472>
    539a:	4c 89 ff             	mov    %r15,%rdi
    539d:	41 ff 14 24          	callq  *(%r12)
    53a1:	49 83 7c 24 08 00    	cmpq   $0x0,0x8(%r12)
    53a7:	74 09                	je     53b2 <main+0x472>
    53a9:	4c 89 ff             	mov    %r15,%rdi
    53ac:	ff 15 f6 29 23 00    	callq  *0x2329f6(%rip)        # 237da8 <free@GLIBC_2.2.5>
    53b2:	89 d8                	mov    %ebx,%eax
    53b4:	48 8d 65 d8          	lea    -0x28(%rbp),%rsp
    53b8:	5b                   	pop    %rbx
    53b9:	41 5c                	pop    %r12
    53bb:	41 5d                	pop    %r13
    53bd:	41 5e                	pop    %r14
    53bf:	41 5f                	pop    %r15
    53c1:	5d                   	pop    %rbp
    53c2:	c3                   	retq   
    53c3:	48 8d 3d 0c aa 02 00 	lea    0x2aa0c(%rip),%rdi        # 2fdd6 <_ZN4core7unicode12unicode_data2cc6BITSET17h5201257bcf8f09faE+0xc76>
    53ca:	48 8d 15 4f 26 23 00 	lea    0x23264f(%rip),%rdx        # 237a20 <__init_array_end+0x1450>
    53d1:	be 47 00 00 00       	mov    $0x47,%esi
    53d6:	e8 65 10 01 00       	callq  16440 <_ZN3std9panicking11begin_panic17hc5f3eabb2c219d56E>
    53db:	0f 0b                	ud2    
    53dd:	48 8d 3d 54 8a 02 00 	lea    0x28a54(%rip),%rdi        # 2de38 <_ZN4core3str15UTF8_CHAR_WIDTH17h639c7c3d8ce7e983E+0x160>
    53e4:	48 8d 15 95 26 23 00 	lea    0x232695(%rip),%rdx        # 237a80 <__init_array_end+0x14b0>
    53eb:	be 20 00 00 00       	mov    $0x20,%esi
    53f0:	e8 4b 10 01 00       	callq  16440 <_ZN3std9panicking11begin_panic17hc5f3eabb2c219d56E>
    53f5:	0f 0b                	ud2    
    53f7:	48 8d 44 24 50       	lea    0x50(%rsp),%rax
    53fc:	48 89 44 24 58       	mov    %rax,0x58(%rsp)
    5401:	48 8d 05 90 98 02 00 	lea    0x29890(%rip),%rax        # 2ec98 <_ZN4core7unicode12unicode_data15grapheme_extend6BITSET17h68ce7f61ccfa32feE+0x9f8>
    5408:	48 89 44 24 18       	mov    %rax,0x18(%rsp)
    540d:	48 8d 44 24 58       	lea    0x58(%rsp),%rax
    5412:	48 89 44 24 60       	mov    %rax,0x60(%rsp)
    5417:	48 8d 05 c2 10 01 00 	lea    0x110c2(%rip),%rax        # 164e0 <_ZN42_$LT$$RF$T$u20$as$u20$core..fmt..Debug$GT$3fmt17h60ee9c74ee2aa888E>
    541e:	48 89 44 24 68       	mov    %rax,0x68(%rsp)
    5423:	48 8d 4c 24 18       	lea    0x18(%rsp),%rcx
    5428:	48 89 4c 24 70       	mov    %rcx,0x70(%rsp)
    542d:	48 89 44 24 78       	mov    %rax,0x78(%rsp)
    5432:	48 8d 05 df 1b 23 00 	lea    0x231bdf(%rip),%rax        # 237018 <__init_array_end+0xa48>
    5439:	48 89 44 24 20       	mov    %rax,0x20(%rsp)
    543e:	48 c7 44 24 28 03 00 	movq   $0x3,0x28(%rsp)
    5445:	00 00 
    5447:	48 c7 44 24 30 00 00 	movq   $0x0,0x30(%rsp)
    544e:	00 00 
    5450:	48 8d 44 24 60       	lea    0x60(%rsp),%rax
    5455:	48 89 44 24 40       	mov    %rax,0x40(%rsp)
    545a:	48 c7 44 24 48 02 00 	movq   $0x2,0x48(%rsp)
    5461:	00 00 
    5463:	48 8d 35 ce 25 23 00 	lea    0x2325ce(%rip),%rsi        # 237a38 <__init_array_end+0x1468>
    546a:	48 8d 7c 24 20       	lea    0x20(%rsp),%rdi
    546f:	e8 7c 12 01 00       	callq  166f0 <_ZN3std9panicking15begin_panic_fmt17h7fd3ef9bf535b4d1E>
    5474:	0f 0b                	ud2    
    5476:	48 8d 44 24 50       	lea    0x50(%rsp),%rax
    547b:	48 89 44 24 58       	mov    %rax,0x58(%rsp)
    5480:	48 8d 05 11 98 02 00 	lea    0x29811(%rip),%rax        # 2ec98 <_ZN4core7unicode12unicode_data15grapheme_extend6BITSET17h68ce7f61ccfa32feE+0x9f8>
    5487:	48 89 44 24 18       	mov    %rax,0x18(%rsp)
    548c:	48 8d 44 24 58       	lea    0x58(%rsp),%rax
    5491:	48 89 44 24 60       	mov    %rax,0x60(%rsp)
    5496:	48 8d 05 43 10 01 00 	lea    0x11043(%rip),%rax        # 164e0 <_ZN42_$LT$$RF$T$u20$as$u20$core..fmt..Debug$GT$3fmt17h60ee9c74ee2aa888E>
    549d:	48 89 44 24 68       	mov    %rax,0x68(%rsp)
    54a2:	48 8d 4c 24 18       	lea    0x18(%rsp),%rcx
    54a7:	48 89 4c 24 70       	mov    %rcx,0x70(%rsp)
    54ac:	48 89 44 24 78       	mov    %rax,0x78(%rsp)
    54b1:	48 8d 05 60 1b 23 00 	lea    0x231b60(%rip),%rax        # 237018 <__init_array_end+0xa48>
    54b8:	48 89 44 24 20       	mov    %rax,0x20(%rsp)
    54bd:	48 c7 44 24 28 03 00 	movq   $0x3,0x28(%rsp)
    54c4:	00 00 
    54c6:	48 c7 44 24 30 00 00 	movq   $0x0,0x30(%rsp)
    54cd:	00 00 
    54cf:	48 8d 44 24 60       	lea    0x60(%rsp),%rax
    54d4:	48 89 44 24 40       	mov    %rax,0x40(%rsp)
    54d9:	48 c7 44 24 48 02 00 	movq   $0x2,0x48(%rsp)
    54e0:	00 00 
    54e2:	48 8d 35 7f 25 23 00 	lea    0x23257f(%rip),%rsi        # 237a68 <__init_array_end+0x1498>
    54e9:	48 8d 7c 24 20       	lea    0x20(%rsp),%rdi
    54ee:	e8 fd 11 01 00       	callq  166f0 <_ZN3std9panicking15begin_panic_fmt17h7fd3ef9bf535b4d1E>
    54f3:	0f 0b                	ud2    
    54f5:	bf 04 00 00 00       	mov    $0x4,%edi
    54fa:	be 01 00 00 00       	mov    $0x1,%esi
    54ff:	e8 8c 03 00 00       	callq  5890 <_ZN5alloc5alloc18handle_alloc_error17hf7bb8682f6c8b1d7E>
    5504:	0f 0b                	ud2    
    5506:	48 8d 3d 0d 9e 02 00 	lea    0x29e0d(%rip),%rdi        # 2f31a <_ZN4core7unicode12unicode_data2cc6BITSET17h5201257bcf8f09faE+0x1ba>
    550d:	48 8d 0d 14 1a 23 00 	lea    0x231a14(%rip),%rcx        # 236f28 <__init_array_end+0x958>
    5514:	4c 8d 05 2d 1a 23 00 	lea    0x231a2d(%rip),%r8        # 236f48 <__init_array_end+0x978>
    551b:	48 8d 54 24 18       	lea    0x18(%rsp),%rdx
    5520:	be 18 00 00 00       	mov    $0x18,%esi
    5525:	e8 06 4b 00 00       	callq  a030 <_ZN4core6option18expect_none_failed17he0fec195c6e4c2ecE>
    552a:	eb 7e                	jmp    55aa <main+0x66a>
    552c:	48 8d 3d 3f a8 02 00 	lea    0x2a83f(%rip),%rdi        # 2fd72 <_ZN4core7unicode12unicode_data2cc6BITSET17h5201257bcf8f09faE+0xc12>
    5533:	48 8d 15 9e 24 23 00 	lea    0x23249e(%rip),%rdx        # 2379d8 <__init_array_end+0x1408>
    553a:	be 26 00 00 00       	mov    $0x26,%esi
    553f:	e8 fc 0e 01 00       	callq  16440 <_ZN3std9panicking11begin_panic17hc5f3eabb2c219d56E>
    5544:	eb 64                	jmp    55aa <main+0x66a>
    5546:	48 8d 3d 33 77 02 00 	lea    0x27733(%rip),%rdi        # 2cc80 <_ZN4core7unicode12unicode_data2cc19BITSET_INDEX_CHUNKS17h8a1f39cd536e9344E+0x20>
    554d:	48 8d 0d 0c 1a 23 00 	lea    0x231a0c(%rip),%rcx        # 236f60 <__init_array_end+0x990>
    5554:	4c 8d 05 25 1a 23 00 	lea    0x231a25(%rip),%r8        # 236f80 <__init_array_end+0x9b0>
    555b:	48 8d 54 24 18       	lea    0x18(%rsp),%rdx
    5560:	be 10 00 00 00       	mov    $0x10,%esi
    5565:	e8 c6 4a 00 00       	callq  a030 <_ZN4core6option18expect_none_failed17he0fec195c6e4c2ecE>
    556a:	eb 3e                	jmp    55aa <main+0x66a>
    556c:	48 8d 3d e6 a8 02 00 	lea    0x2a8e6(%rip),%rdi        # 2fe59 <str.0+0x39>
    5573:	48 8d 15 36 25 23 00 	lea    0x232536(%rip),%rdx        # 237ab0 <__init_array_end+0x14e0>
    557a:	be 27 00 00 00       	mov    $0x27,%esi
    557f:	e8 bc 0e 01 00       	callq  16440 <_ZN3std9panicking11begin_panic17hc5f3eabb2c219d56E>
    5584:	0f 0b                	ud2    
    5586:	48 8d 3d 43 a1 02 00 	lea    0x2a143(%rip),%rdi        # 2f6d0 <_ZN4core7unicode12unicode_data2cc6BITSET17h5201257bcf8f09faE+0x570>
    558d:	48 8d 0d dc 1e 23 00 	lea    0x231edc(%rip),%rcx        # 237470 <__init_array_end+0xea0>
    5594:	4c 8d 05 f5 1e 23 00 	lea    0x231ef5(%rip),%r8        # 237490 <__init_array_end+0xec0>
    559b:	48 8d 54 24 18       	lea    0x18(%rsp),%rdx
    55a0:	be 46 00 00 00       	mov    $0x46,%esi
    55a5:	e8 86 4a 00 00       	callq  a030 <_ZN4core6option18expect_none_failed17he0fec195c6e4c2ecE>
    55aa:	0f 0b                	ud2    
    55ac:	f0 49 ff 0e          	lock decq (%r14)
    55b0:	75 0a                	jne    55bc <main+0x67c>
    55b2:	48 8d 7c 24 38       	lea    0x38(%rsp),%rdi
    55b7:	e8 d4 0b 01 00       	callq  16190 <_ZN5alloc4sync12Arc$LT$T$GT$9drop_slow17h671cd2375e6e21b7E>
    55bc:	48 8d 3d 0d a1 02 00 	lea    0x2a10d(%rip),%rdi        # 2f6d0 <_ZN4core7unicode12unicode_data2cc6BITSET17h5201257bcf8f09faE+0x570>
    55c3:	48 8d 0d a6 1e 23 00 	lea    0x231ea6(%rip),%rcx        # 237470 <__init_array_end+0xea0>
    55ca:	4c 8d 05 bf 1e 23 00 	lea    0x231ebf(%rip),%r8        # 237490 <__init_array_end+0xec0>
    55d1:	48 8d 54 24 18       	lea    0x18(%rsp),%rdx
    55d6:	be 46 00 00 00       	mov    $0x46,%esi
    55db:	e8 50 4a 00 00       	callq  a030 <_ZN4core6option18expect_none_failed17he0fec195c6e4c2ecE>
    55e0:	0f 0b                	ud2    
    55e2:	48 8d 84 24 84 00 00 	lea    0x84(%rsp),%rax
    55e9:	00 
    55ea:	48 89 44 24 58       	mov    %rax,0x58(%rsp)
    55ef:	48 8d 05 a2 96 02 00 	lea    0x296a2(%rip),%rax        # 2ec98 <_ZN4core7unicode12unicode_data15grapheme_extend6BITSET17h68ce7f61ccfa32feE+0x9f8>
    55f6:	48 89 44 24 18       	mov    %rax,0x18(%rsp)
    55fb:	48 8d 44 24 58       	lea    0x58(%rsp),%rax
    5600:	48 89 44 24 60       	mov    %rax,0x60(%rsp)
    5605:	48 8d 05 d4 0e 01 00 	lea    0x10ed4(%rip),%rax        # 164e0 <_ZN42_$LT$$RF$T$u20$as$u20$core..fmt..Debug$GT$3fmt17h60ee9c74ee2aa888E>
    560c:	48 89 44 24 68       	mov    %rax,0x68(%rsp)
    5611:	48 8d 4c 24 18       	lea    0x18(%rsp),%rcx
    5616:	48 89 4c 24 70       	mov    %rcx,0x70(%rsp)
    561b:	48 89 44 24 78       	mov    %rax,0x78(%rsp)
    5620:	48 8d 05 f1 19 23 00 	lea    0x2319f1(%rip),%rax        # 237018 <__init_array_end+0xa48>
    5627:	48 89 44 24 20       	mov    %rax,0x20(%rsp)
    562c:	48 c7 44 24 28 03 00 	movq   $0x3,0x28(%rsp)
    5633:	00 00 
    5635:	48 c7 44 24 30 00 00 	movq   $0x0,0x30(%rsp)
    563c:	00 00 
    563e:	48 8d 44 24 60       	lea    0x60(%rsp),%rax
    5643:	48 89 44 24 40       	mov    %rax,0x40(%rsp)
    5648:	48 c7 44 24 48 02 00 	movq   $0x2,0x48(%rsp)
    564f:	00 00 
    5651:	48 8d 35 f8 23 23 00 	lea    0x2323f8(%rip),%rsi        # 237a50 <__init_array_end+0x1480>
    5658:	48 8d 7c 24 20       	lea    0x20(%rsp),%rdi
    565d:	e8 8e 10 01 00       	callq  166f0 <_ZN3std9panicking15begin_panic_fmt17h7fd3ef9bf535b4d1E>
    5662:	0f 0b                	ud2    
    5664:	48 8d 3d b5 a7 02 00 	lea    0x2a7b5(%rip),%rdi        # 2fe20 <str.0>
    566b:	48 8d 15 26 24 23 00 	lea    0x232426(%rip),%rdx        # 237a98 <__init_array_end+0x14c8>
    5672:	be 39 00 00 00       	mov    $0x39,%esi
    5677:	e8 04 21 00 00       	callq  7780 <_ZN4core9panicking5panic17h6861470adfbddef8E>
    567c:	0f 0b                	ud2    
    567e:	49 89 c6             	mov    %rax,%r14
    5681:	48 8d bc 24 c0 00 00 	lea    0xc0(%rsp),%rdi
    5688:	00 
    5689:	e8 72 0b 01 00       	callq  16200 <_ZN4core3ptr13drop_in_place17h18d5975e844cd51eE>
    568e:	4c 89 f7             	mov    %r14,%rdi
    5691:	e8 aa e0 ff ff       	callq  3740 <_Unwind_Resume@plt>
    5696:	0f 0b                	ud2    
    5698:	49 89 c6             	mov    %rax,%r14
    569b:	48 8d bc 24 c0 00 00 	lea    0xc0(%rsp),%rdi
    56a2:	00 
    56a3:	e8 c8 98 01 00       	callq  1ef70 <_ZN4core3ptr13drop_in_place17h900fcba381d9a228E>
    56a8:	4c 89 f7             	mov    %r14,%rdi
    56ab:	e8 90 e0 ff ff       	callq  3740 <_Unwind_Resume@plt>
    56b0:	0f 0b                	ud2    
    56b2:	49 89 c6             	mov    %rax,%r14
    56b5:	48 8d 7c 24 20       	lea    0x20(%rsp),%rdi
    56ba:	e8 a1 94 01 00       	callq  1eb60 <_ZN4core3ptr13drop_in_place17h0b0c9c9dbcb8881cE>
    56bf:	4c 89 f7             	mov    %r14,%rdi
    56c2:	e8 79 e0 ff ff       	callq  3740 <_Unwind_Resume@plt>
    56c7:	0f 0b                	ud2    
    56c9:	49 89 c6             	mov    %rax,%r14
    56cc:	48 8d 7c 24 60       	lea    0x60(%rsp),%rdi
    56d1:	e8 ca 6c 01 00       	callq  1c3a0 <_ZN4core3ptr13drop_in_place17hda96a1da1fd89bf6E>
    56d6:	4c 89 f7             	mov    %r14,%rdi
    56d9:	e8 62 e0 ff ff       	callq  3740 <_Unwind_Resume@plt>
    56de:	0f 0b                	ud2    
    56e0:	49 89 c6             	mov    %rax,%r14
    56e3:	4c 89 ff             	mov    %r15,%rdi
    56e6:	4c 89 e6             	mov    %r12,%rsi
    56e9:	e8 42 1f 01 00       	callq  17630 <_ZN5alloc5alloc8box_free17h3741427eaa5804e6E>
    56ee:	4c 89 f7             	mov    %r14,%rdi
    56f1:	e8 4a e0 ff ff       	callq  3740 <_Unwind_Resume@plt>
    56f6:	0f 0b                	ud2    
    56f8:	c5 fa 6f 40 40       	vmovdqu 0x40(%rax),%xmm0
    56fd:	c5 f9 7f 84 24 90 00 	vmovdqa %xmm0,0x90(%rsp)
    5704:	00 00 
    5706:	48 89 c7             	mov    %rax,%rdi
    5709:	ff 15 99 26 23 00    	callq  *0x232699(%rip)        # 237da8 <free@GLIBC_2.2.5>
    570f:	64 48 83 3c 25 a0 ff 	cmpq   $0x1,%fs:0xffffffffffffffa0
    5716:	ff ff 01 
    5719:	75 0e                	jne    5729 <main+0x7e9>
    571b:	64 48 8b 04 25 a8 ff 	mov    %fs:0xffffffffffffffa8,%rax
    5722:	ff ff 
    5724:	48 ff c8             	dec    %rax
    5727:	eb 1b                	jmp    5744 <main+0x804>
    5729:	b8 01 00 00 00       	mov    $0x1,%eax
    572e:	c4 e1 f9 6e c0       	vmovq  %rax,%xmm0
    5733:	64 c5 f9 7f 04 25 a0 	vmovdqa %xmm0,%fs:0xffffffffffffffa0
    573a:	ff ff ff 
    573d:	48 c7 c0 ff ff ff ff 	mov    $0xffffffffffffffff,%rax
    5744:	64 48 89 04 25 a8 ff 	mov    %rax,%fs:0xffffffffffffffa8
    574b:	ff ff 
    574d:	c5 f8 28 84 24 90 00 	vmovaps 0x90(%rsp),%xmm0
    5754:	00 00 
    5756:	c5 f8 11 84 24 c8 00 	vmovups %xmm0,0xc8(%rsp)
    575d:	00 00 
    575f:	b8 01 00 00 00       	mov    $0x1,%eax
    5764:	89 84 24 c0 00 00 00 	mov    %eax,0xc0(%rsp)
    576b:	48 8b 05 36 2a 23 00 	mov    0x232a36(%rip),%rax        # 2381a8 <_ZN3std10sys_common7cleanup7CLEANUP17he74d084b7257e166E>
    5772:	48 83 f8 03          	cmp    $0x3,%rax
    5776:	0f 85 d9 fb ff ff    	jne    5355 <main+0x415>
    577c:	e9 ed fb ff ff       	jmpq   536e <main+0x42e>
    5781:	66 2e 0f 1f 84 00 00 	nopw   %cs:0x0(%rax,%rax,1)
    5788:	00 00 00 
    578b:	0f 1f 44 00 00       	nopl   0x0(%rax,%rax,1)

0000000000005790 <__rust_alloc>:
    5790:	50                   	push   %rax
    5791:	48 89 fa             	mov    %rdi,%rdx
    5794:	48 83 fe 10          	cmp    $0x10,%rsi
    5798:	77 0f                	ja     57a9 <__rust_alloc+0x19>
    579a:	48 39 d6             	cmp    %rdx,%rsi
    579d:	77 0a                	ja     57a9 <__rust_alloc+0x19>
    579f:	48 89 d7             	mov    %rdx,%rdi
    57a2:	58                   	pop    %rax
    57a3:	ff 25 6f 27 23 00    	jmpq   *0x23276f(%rip)        # 237f18 <malloc@GLIBC_2.2.5>
    57a9:	48 c7 04 24 00 00 00 	movq   $0x0,(%rsp)
    57b0:	00 
    57b1:	48 83 fe 08          	cmp    $0x8,%rsi
    57b5:	b8 08 00 00 00       	mov    $0x8,%eax
    57ba:	48 0f 47 c6          	cmova  %rsi,%rax
    57be:	48 89 e7             	mov    %rsp,%rdi
    57c1:	48 89 c6             	mov    %rax,%rsi
    57c4:	ff 15 de 27 23 00    	callq  *0x2327de(%rip)        # 237fa8 <posix_memalign@GLIBC_2.2.5>
    57ca:	85 c0                	test   %eax,%eax
    57cc:	75 06                	jne    57d4 <__rust_alloc+0x44>
    57ce:	48 8b 04 24          	mov    (%rsp),%rax
    57d2:	59                   	pop    %rcx
    57d3:	c3                   	retq   
    57d4:	31 c0                	xor    %eax,%eax
    57d6:	59                   	pop    %rcx
    57d7:	c3                   	retq   
    57d8:	0f 1f 84 00 00 00 00 	nopl   0x0(%rax,%rax,1)
    57df:	00 

00000000000057e0 <__rust_dealloc>:
    57e0:	ff 25 c2 25 23 00    	jmpq   *0x2325c2(%rip)        # 237da8 <free@GLIBC_2.2.5>
    57e6:	66 2e 0f 1f 84 00 00 	nopw   %cs:0x0(%rax,%rax,1)
    57ed:	00 00 00 

00000000000057f0 <__rust_realloc>:
    57f0:	41 57                	push   %r15
    57f2:	41 56                	push   %r14
    57f4:	41 54                	push   %r12
    57f6:	53                   	push   %rbx
    57f7:	50                   	push   %rax
    57f8:	48 89 cb             	mov    %rcx,%rbx
    57fb:	49 89 f7             	mov    %rsi,%r15
    57fe:	49 89 fe             	mov    %rdi,%r14
    5801:	48 83 fa 10          	cmp    $0x10,%rdx
    5805:	77 1c                	ja     5823 <__rust_realloc+0x33>
    5807:	48 39 da             	cmp    %rbx,%rdx
    580a:	77 17                	ja     5823 <__rust_realloc+0x33>
    580c:	4c 89 f7             	mov    %r14,%rdi
    580f:	48 89 de             	mov    %rbx,%rsi
    5812:	48 83 c4 08          	add    $0x8,%rsp
    5816:	5b                   	pop    %rbx
    5817:	41 5c                	pop    %r12
    5819:	41 5e                	pop    %r14
    581b:	41 5f                	pop    %r15
    581d:	ff 25 1d 27 23 00    	jmpq   *0x23271d(%rip)        # 237f40 <realloc@GLIBC_2.2.5>
    5823:	48 c7 04 24 00 00 00 	movq   $0x0,(%rsp)
    582a:	00 
    582b:	48 83 fa 08          	cmp    $0x8,%rdx
    582f:	be 08 00 00 00       	mov    $0x8,%esi
    5834:	48 0f 47 f2          	cmova  %rdx,%rsi
    5838:	48 89 e7             	mov    %rsp,%rdi
    583b:	48 89 da             	mov    %rbx,%rdx
    583e:	ff 15 64 27 23 00    	callq  *0x232764(%rip)        # 237fa8 <posix_memalign@GLIBC_2.2.5>
    5844:	89 c1                	mov    %eax,%ecx
    5846:	31 c0                	xor    %eax,%eax
    5848:	85 c9                	test   %ecx,%ecx
    584a:	75 2b                	jne    5877 <__rust_realloc+0x87>
    584c:	4c 8b 24 24          	mov    (%rsp),%r12
    5850:	4d 85 e4             	test   %r12,%r12
    5853:	74 22                	je     5877 <__rust_realloc+0x87>
    5855:	49 39 df             	cmp    %rbx,%r15
    5858:	4c 0f 47 fb          	cmova  %rbx,%r15
    585c:	4c 89 e7             	mov    %r12,%rdi
    585f:	4c 89 f6             	mov    %r14,%rsi
    5862:	4c 89 fa             	mov    %r15,%rdx
    5865:	ff 15 7d 26 23 00    	callq  *0x23267d(%rip)        # 237ee8 <memcpy@GLIBC_2.14>
    586b:	4c 89 f7             	mov    %r14,%rdi
    586e:	ff 15 34 25 23 00    	callq  *0x232534(%rip)        # 237da8 <free@GLIBC_2.2.5>
    5874:	4c 89 e0             	mov    %r12,%rax
    5877:	48 83 c4 08          	add    $0x8,%rsp
    587b:	5b                   	pop    %rbx
    587c:	41 5c                	pop    %r12
    587e:	41 5e                	pop    %r14
    5880:	41 5f                	pop    %r15
    5882:	c3                   	retq   
    5883:	66 2e 0f 1f 84 00 00 	nopw   %cs:0x0(%rax,%rax,1)
    588a:	00 00 00 
    588d:	0f 1f 00             	nopl   (%rax)

0000000000005890 <_ZN5alloc5alloc18handle_alloc_error17hf7bb8682f6c8b1d7E>:
    5890:	50                   	push   %rax
    5891:	e8 ba 93 01 00       	callq  1ec50 <rust_oom>
    5896:	0f 0b                	ud2    
    5898:	0f 1f 84 00 00 00 00 	nopl   0x0(%rax,%rax,1)
    589f:	00 

00000000000058a0 <_ZN5alloc7raw_vec17capacity_overflow17h9be7d3ce681ac1a6E>:
    58a0:	50                   	push   %rax
    58a1:	48 8d 3d c6 7d 02 00 	lea    0x27dc6(%rip),%rdi        # 2d66e <_ZN4core7unicode12unicode_data2cc19BITSET_INDEX_CHUNKS17h8a1f39cd536e9344E+0xa0e>
    58a8:	48 8d 15 21 0e 23 00 	lea    0x230e21(%rip),%rdx        # 2366d0 <__init_array_end+0x100>
    58af:	be 11 00 00 00       	mov    $0x11,%esi
    58b4:	e8 c7 1e 00 00       	callq  7780 <_ZN4core9panicking5panic17h6861470adfbddef8E>
    58b9:	0f 0b                	ud2    
    58bb:	0f 1f 44 00 00       	nopl   0x0(%rax,%rax,1)

00000000000058c0 <_ZN50_$LT$$BP$mut$u20$T$u20$as$u20$core..fmt..Debug$GT$3fmt17h0c22205dba98029aE>:
    58c0:	55                   	push   %rbp
    58c1:	53                   	push   %rbx
    58c2:	48 81 ec 98 00 00 00 	sub    $0x98,%rsp
    58c9:	48 89 f3             	mov    %rsi,%rbx
    58cc:	48 8b 07             	mov    (%rdi),%rax
    58cf:	f3 0f 6f 0e          	movdqu (%rsi),%xmm1
    58d3:	8b 6e 30             	mov    0x30(%rsi),%ebp
    58d6:	89 e9                	mov    %ebp,%ecx
    58d8:	40 f6 c5 04          	test   $0x4,%bpl
    58dc:	74 1d                	je     58fb <_ZN50_$LT$$BP$mut$u20$T$u20$as$u20$core..fmt..Debug$GT$3fmt17h0c22205dba98029aE+0x3b>
    58de:	66 48 0f 7e ca       	movq   %xmm1,%rdx
    58e3:	89 e9                	mov    %ebp,%ecx
    58e5:	83 c9 08             	or     $0x8,%ecx
    58e8:	89 4b 30             	mov    %ecx,0x30(%rbx)
    58eb:	48 83 fa 01          	cmp    $0x1,%rdx
    58ef:	74 0a                	je     58fb <_ZN50_$LT$$BP$mut$u20$T$u20$as$u20$core..fmt..Debug$GT$3fmt17h0c22205dba98029aE+0x3b>
    58f1:	0f 28 05 68 72 02 00 	movaps 0x27268(%rip),%xmm0        # 2cb60 <_fini+0x3c>
    58f8:	0f 11 03             	movups %xmm0,(%rbx)
    58fb:	83 c9 04             	or     $0x4,%ecx
    58fe:	89 4b 30             	mov    %ecx,0x30(%rbx)
    5901:	4c 8d 84 24 98 00 00 	lea    0x98(%rsp),%r8
    5908:	00 
    5909:	45 31 c9             	xor    %r9d,%r9d
    590c:	48 89 c1             	mov    %rax,%rcx
    590f:	90                   	nop
    5910:	48 c1 e9 04          	shr    $0x4,%rcx
    5914:	24 0f                	and    $0xf,%al
    5916:	8d 50 30             	lea    0x30(%rax),%edx
    5919:	8d 70 57             	lea    0x57(%rax),%esi
    591c:	3c 0a                	cmp    $0xa,%al
    591e:	0f b6 c2             	movzbl %dl,%eax
    5921:	40 0f b6 d6          	movzbl %sil,%edx
    5925:	0f 42 d0             	cmovb  %eax,%edx
    5928:	41 88 50 ff          	mov    %dl,-0x1(%r8)
    592c:	49 83 c0 ff          	add    $0xffffffffffffffff,%r8
    5930:	49 83 c1 01          	add    $0x1,%r9
    5934:	48 89 c8             	mov    %rcx,%rax
    5937:	48 85 c9             	test   %rcx,%rcx
    593a:	75 d4                	jne    5910 <_ZN50_$LT$$BP$mut$u20$T$u20$as$u20$core..fmt..Debug$GT$3fmt17h0c22205dba98029aE+0x50>
    593c:	66 0f 7f 0c 24       	movdqa %xmm1,(%rsp)
    5941:	bf 80 00 00 00       	mov    $0x80,%edi
    5946:	4c 29 cf             	sub    %r9,%rdi
    5949:	48 81 ff 81 00 00 00 	cmp    $0x81,%rdi
    5950:	73 2d                	jae    597f <_ZN50_$LT$$BP$mut$u20$T$u20$as$u20$core..fmt..Debug$GT$3fmt17h0c22205dba98029aE+0xbf>
    5952:	48 8d 15 ae 98 02 00 	lea    0x298ae(%rip),%rdx        # 2f207 <_ZN4core7unicode12unicode_data2cc6BITSET17h5201257bcf8f09faE+0xa7>
    5959:	b9 02 00 00 00       	mov    $0x2,%ecx
    595e:	48 89 df             	mov    %rbx,%rdi
    5961:	be 01 00 00 00       	mov    $0x1,%esi
    5966:	e8 55 20 00 00       	callq  79c0 <_ZN4core3fmt9Formatter12pad_integral17hc55c32e78eb96054E>
    596b:	0f 28 04 24          	movaps (%rsp),%xmm0
    596f:	0f 11 03             	movups %xmm0,(%rbx)
    5972:	89 6b 30             	mov    %ebp,0x30(%rbx)
    5975:	48 81 c4 98 00 00 00 	add    $0x98,%rsp
    597c:	5b                   	pop    %rbx
    597d:	5d                   	pop    %rbp
    597e:	c3                   	retq   
    597f:	be 80 00 00 00       	mov    $0x80,%esi
    5984:	e8 97 26 00 00       	callq  8020 <_ZN4core5slice22slice_index_order_fail17h7bcf2f94ba9e06deE>
    5989:	0f 0b                	ud2    
    598b:	0f 1f 44 00 00       	nopl   0x0(%rax,%rax,1)

0000000000005990 <_ZN9backtrace9symbolize6Symbol4name17h05b3ddd11e7b9af9E>:
    5990:	41 57                	push   %r15
    5992:	41 56                	push   %r14
    5994:	53                   	push   %rbx
    5995:	48 81 ec 00 01 00 00 	sub    $0x100,%rsp
    599c:	48 89 fb             	mov    %rdi,%rbx
    599f:	8b 06                	mov    (%rsi),%eax
    59a1:	48 85 c0             	test   %rax,%rax
    59a4:	0f 84 fe 00 00 00    	je     5aa8 <_ZN9backtrace9symbolize6Symbol4name17h05b3ddd11e7b9af9E+0x118>
    59aa:	48 83 f8 01          	cmp    $0x1,%rax
    59ae:	0f 84 0e 01 00 00    	je     5ac2 <_ZN9backtrace9symbolize6Symbol4name17h05b3ddd11e7b9af9E+0x132>
    59b4:	4c 8b 76 18          	mov    0x18(%rsi),%r14
    59b8:	4d 85 f6             	test   %r14,%r14
    59bb:	0f 84 f4 00 00 00    	je     5ab5 <_ZN9backtrace9symbolize6Symbol4name17h05b3ddd11e7b9af9E+0x125>
    59c1:	4c 89 f7             	mov    %r14,%rdi
    59c4:	ff 15 66 24 23 00    	callq  *0x232466(%rip)        # 237e30 <strlen@GLIBC_2.2.5>
    59ca:	49 89 c7             	mov    %rax,%r15
    59cd:	48 89 e7             	mov    %rsp,%rdi
    59d0:	4c 89 f6             	mov    %r14,%rsi
    59d3:	48 89 c2             	mov    %rax,%rdx
    59d6:	e8 55 61 00 00       	callq  bb30 <_ZN4core3str9from_utf817ha5f1d279f7594d61E>
    59db:	48 83 3c 24 01       	cmpq   $0x1,(%rsp)
    59e0:	b8 03 00 00 00       	mov    $0x3,%eax
    59e5:	74 51                	je     5a38 <_ZN9backtrace9symbolize6Symbol4name17h05b3ddd11e7b9af9E+0xa8>
    59e7:	48 8b 74 24 08       	mov    0x8(%rsp),%rsi
    59ec:	48 85 f6             	test   %rsi,%rsi
    59ef:	74 47                	je     5a38 <_ZN9backtrace9symbolize6Symbol4name17h05b3ddd11e7b9af9E+0xa8>
    59f1:	48 8b 54 24 10       	mov    0x10(%rsp),%rdx
    59f6:	48 89 e7             	mov    %rsp,%rdi
    59f9:	e8 e2 ef 00 00       	callq  149e0 <_ZN14rustc_demangle12try_demangle17hf842abb1db86492cE>
    59fe:	48 8b 0c 24          	mov    (%rsp),%rcx
    5a02:	b8 03 00 00 00       	mov    $0x3,%eax
    5a07:	48 83 f9 03          	cmp    $0x3,%rcx
    5a0b:	74 2b                	je     5a38 <_ZN9backtrace9symbolize6Symbol4name17h05b3ddd11e7b9af9E+0xa8>
    5a0d:	48 8b 44 24 38       	mov    0x38(%rsp),%rax
    5a12:	48 89 44 24 70       	mov    %rax,0x70(%rsp)
    5a17:	0f 10 44 24 08       	movups 0x8(%rsp),%xmm0
    5a1c:	0f 10 4c 24 18       	movups 0x18(%rsp),%xmm1
    5a21:	0f 10 54 24 28       	movups 0x28(%rsp),%xmm2
    5a26:	0f 29 54 24 60       	movaps %xmm2,0x60(%rsp)
    5a2b:	0f 29 4c 24 50       	movaps %xmm1,0x50(%rsp)
    5a30:	0f 29 44 24 40       	movaps %xmm0,0x40(%rsp)
    5a35:	48 89 c8             	mov    %rcx,%rax
    5a38:	48 8b 4c 24 70       	mov    0x70(%rsp),%rcx
    5a3d:	48 89 8c 24 b0 00 00 	mov    %rcx,0xb0(%rsp)
    5a44:	00 
    5a45:	0f 28 44 24 40       	movaps 0x40(%rsp),%xmm0
    5a4a:	0f 28 4c 24 50       	movaps 0x50(%rsp),%xmm1
    5a4f:	0f 28 54 24 60       	movaps 0x60(%rsp),%xmm2
    5a54:	0f 29 94 24 a0 00 00 	movaps %xmm2,0xa0(%rsp)
    5a5b:	00 
    5a5c:	0f 29 8c 24 90 00 00 	movaps %xmm1,0x90(%rsp)
    5a63:	00 
    5a64:	0f 29 84 24 80 00 00 	movaps %xmm0,0x80(%rsp)
    5a6b:	00 
    5a6c:	4c 89 33             	mov    %r14,(%rbx)
    5a6f:	4c 89 7b 08          	mov    %r15,0x8(%rbx)
    5a73:	48 89 43 10          	mov    %rax,0x10(%rbx)
    5a77:	0f 28 84 24 80 00 00 	movaps 0x80(%rsp),%xmm0
    5a7e:	00 
    5a7f:	0f 28 8c 24 90 00 00 	movaps 0x90(%rsp),%xmm1
    5a86:	00 
    5a87:	0f 28 94 24 a0 00 00 	movaps 0xa0(%rsp),%xmm2
    5a8e:	00 
    5a8f:	0f 11 43 18          	movups %xmm0,0x18(%rbx)
    5a93:	0f 11 4b 28          	movups %xmm1,0x28(%rbx)
    5a97:	0f 11 53 38          	movups %xmm2,0x38(%rbx)
    5a9b:	48 8b 84 24 b0 00 00 	mov    0xb0(%rsp),%rax
    5aa2:	00 
    5aa3:	e9 11 01 00 00       	jmpq   5bb9 <_ZN9backtrace9symbolize6Symbol4name17h05b3ddd11e7b9af9E+0x229>
    5aa8:	4c 8b 76 10          	mov    0x10(%rsi),%r14
    5aac:	4d 85 f6             	test   %r14,%r14
    5aaf:	0f 85 0c ff ff ff    	jne    59c1 <_ZN9backtrace9symbolize6Symbol4name17h05b3ddd11e7b9af9E+0x31>
    5ab5:	48 c7 43 10 04 00 00 	movq   $0x4,0x10(%rbx)
    5abc:	00 
    5abd:	e9 fb 00 00 00       	jmpq   5bbd <_ZN9backtrace9symbolize6Symbol4name17h05b3ddd11e7b9af9E+0x22d>
    5ac2:	4c 8b 76 18          	mov    0x18(%rsi),%r14
    5ac6:	4d 85 f6             	test   %r14,%r14
    5ac9:	0f 84 fb 00 00 00    	je     5bca <_ZN9backtrace9symbolize6Symbol4name17h05b3ddd11e7b9af9E+0x23a>
    5acf:	4c 89 f7             	mov    %r14,%rdi
    5ad2:	ff 15 58 23 23 00    	callq  *0x232358(%rip)        # 237e30 <strlen@GLIBC_2.2.5>
    5ad8:	49 89 c7             	mov    %rax,%r15
    5adb:	48 89 e7             	mov    %rsp,%rdi
    5ade:	4c 89 f6             	mov    %r14,%rsi
    5ae1:	48 89 c2             	mov    %rax,%rdx
    5ae4:	e8 47 60 00 00       	callq  bb30 <_ZN4core3str9from_utf817ha5f1d279f7594d61E>
    5ae9:	48 83 3c 24 01       	cmpq   $0x1,(%rsp)
    5aee:	b8 03 00 00 00       	mov    $0x3,%eax
    5af3:	74 51                	je     5b46 <_ZN9backtrace9symbolize6Symbol4name17h05b3ddd11e7b9af9E+0x1b6>
    5af5:	48 8b 74 24 08       	mov    0x8(%rsp),%rsi
    5afa:	48 85 f6             	test   %rsi,%rsi
    5afd:	74 47                	je     5b46 <_ZN9backtrace9symbolize6Symbol4name17h05b3ddd11e7b9af9E+0x1b6>
    5aff:	48 8b 54 24 10       	mov    0x10(%rsp),%rdx
    5b04:	48 89 e7             	mov    %rsp,%rdi
    5b07:	e8 d4 ee 00 00       	callq  149e0 <_ZN14rustc_demangle12try_demangle17hf842abb1db86492cE>
    5b0c:	48 8b 0c 24          	mov    (%rsp),%rcx
    5b10:	b8 03 00 00 00       	mov    $0x3,%eax
    5b15:	48 83 f9 03          	cmp    $0x3,%rcx
    5b19:	74 2b                	je     5b46 <_ZN9backtrace9symbolize6Symbol4name17h05b3ddd11e7b9af9E+0x1b6>
    5b1b:	48 8b 44 24 38       	mov    0x38(%rsp),%rax
    5b20:	48 89 44 24 70       	mov    %rax,0x70(%rsp)
    5b25:	0f 10 44 24 08       	movups 0x8(%rsp),%xmm0
    5b2a:	0f 10 4c 24 18       	movups 0x18(%rsp),%xmm1
    5b2f:	0f 10 54 24 28       	movups 0x28(%rsp),%xmm2
    5b34:	0f 29 54 24 60       	movaps %xmm2,0x60(%rsp)
    5b39:	0f 29 4c 24 50       	movaps %xmm1,0x50(%rsp)
    5b3e:	0f 29 44 24 40       	movaps %xmm0,0x40(%rsp)
    5b43:	48 89 c8             	mov    %rcx,%rax
    5b46:	48 8b 4c 24 70       	mov    0x70(%rsp),%rcx
    5b4b:	48 89 8c 24 b0 00 00 	mov    %rcx,0xb0(%rsp)
    5b52:	00 
    5b53:	0f 28 44 24 40       	movaps 0x40(%rsp),%xmm0
    5b58:	0f 28 4c 24 50       	movaps 0x50(%rsp),%xmm1
    5b5d:	0f 28 54 24 60       	movaps 0x60(%rsp),%xmm2
    5b62:	0f 29 84 24 c0 00 00 	movaps %xmm0,0xc0(%rsp)
    5b69:	00 
    5b6a:	0f 29 8c 24 d0 00 00 	movaps %xmm1,0xd0(%rsp)
    5b71:	00 
    5b72:	0f 29 94 24 e0 00 00 	movaps %xmm2,0xe0(%rsp)
    5b79:	00 
    5b7a:	48 89 8c 24 f0 00 00 	mov    %rcx,0xf0(%rsp)
    5b81:	00 
    5b82:	4c 89 33             	mov    %r14,(%rbx)
    5b85:	4c 89 7b 08          	mov    %r15,0x8(%rbx)
    5b89:	48 89 43 10          	mov    %rax,0x10(%rbx)
    5b8d:	0f 28 84 24 c0 00 00 	movaps 0xc0(%rsp),%xmm0
    5b94:	00 
    5b95:	0f 28 8c 24 d0 00 00 	movaps 0xd0(%rsp),%xmm1
    5b9c:	00 
    5b9d:	0f 28 94 24 e0 00 00 	movaps 0xe0(%rsp),%xmm2
    5ba4:	00 
    5ba5:	0f 11 43 18          	movups %xmm0,0x18(%rbx)
    5ba9:	0f 11 4b 28          	movups %xmm1,0x28(%rbx)
    5bad:	0f 11 53 38          	movups %xmm2,0x38(%rbx)
    5bb1:	48 8b 84 24 f0 00 00 	mov    0xf0(%rsp),%rax
    5bb8:	00 
    5bb9:	48 89 43 48          	mov    %rax,0x48(%rbx)
    5bbd:	48 81 c4 00 01 00 00 	add    $0x100,%rsp
    5bc4:	5b                   	pop    %rbx
    5bc5:	41 5e                	pop    %r14
    5bc7:	41 5f                	pop    %r15
    5bc9:	c3                   	retq   
    5bca:	4c 8b 76 20          	mov    0x20(%rsi),%r14
    5bce:	4d 85 f6             	test   %r14,%r14
    5bd1:	0f 85 ea fd ff ff    	jne    59c1 <_ZN9backtrace9symbolize6Symbol4name17h05b3ddd11e7b9af9E+0x31>
    5bd7:	e9 d9 fe ff ff       	jmpq   5ab5 <_ZN9backtrace9symbolize6Symbol4name17h05b3ddd11e7b9af9E+0x125>
    5bdc:	0f 1f 40 00          	nopl   0x0(%rax)

0000000000005be0 <_ZN9backtrace5print17BacktraceFrameFmt9print_raw17h69930da516f47357E>:
    5be0:	55                   	push   %rbp
    5be1:	41 57                	push   %r15
    5be3:	41 56                	push   %r14
    5be5:	41 55                	push   %r13
    5be7:	41 54                	push   %r12
    5be9:	53                   	push   %rbx
    5bea:	48 81 ec 58 01 00 00 	sub    $0x158,%rsp
    5bf1:	45 89 ce             	mov    %r9d,%r14d
    5bf4:	45 89 c4             	mov    %r8d,%r12d
    5bf7:	48 89 fb             	mov    %rdi,%rbx
    5bfa:	0f 10 02             	movups (%rdx),%xmm0
    5bfd:	0f 29 84 24 30 01 00 	movaps %xmm0,0x130(%rsp)
    5c04:	00 
    5c05:	48 8b 6a 10          	mov    0x10(%rdx),%rbp
    5c09:	0f 10 42 28          	movups 0x28(%rdx),%xmm0
    5c0d:	0f 29 84 24 00 01 00 	movaps %xmm0,0x100(%rsp)
    5c14:	00 
    5c15:	0f 10 42 38          	movups 0x38(%rdx),%xmm0
    5c19:	0f 29 84 24 10 01 00 	movaps %xmm0,0x110(%rsp)
    5c20:	00 
    5c21:	48 8b 42 48          	mov    0x48(%rdx),%rax
    5c25:	48 89 84 24 20 01 00 	mov    %rax,0x120(%rsp)
    5c2c:	00 
    5c2d:	0f 10 42 18          	movups 0x18(%rdx),%xmm0
    5c31:	0f 29 84 24 f0 00 00 	movaps %xmm0,0xf0(%rsp)
    5c38:	00 
    5c39:	4c 8b 39             	mov    (%rcx),%r15
    5c3c:	f3 0f 6f 41 08       	movdqu 0x8(%rcx),%xmm0
    5c41:	66 0f 7f 84 24 40 01 	movdqa %xmm0,0x140(%rsp)
    5c48:	00 00 
    5c4a:	48 89 b4 24 e8 00 00 	mov    %rsi,0xe8(%rsp)
    5c51:	00 
    5c52:	48 8b 07             	mov    (%rdi),%rax
    5c55:	48 85 f6             	test   %rsi,%rsi
    5c58:	75 12                	jne    5c6c <_ZN9backtrace5print17BacktraceFrameFmt9print_raw17h69930da516f47357E+0x8c>
    5c5a:	80 78 20 00          	cmpb   $0x0,0x20(%rax)
    5c5e:	75 0c                	jne    5c6c <_ZN9backtrace5print17BacktraceFrameFmt9print_raw17h69930da516f47357E+0x8c>
    5c60:	48 83 43 08 01       	addq   $0x1,0x8(%rbx)
    5c65:	31 c0                	xor    %eax,%eax
    5c67:	e9 1f 04 00 00       	jmpq   608b <_ZN9backtrace5print17BacktraceFrameFmt9print_raw17h69930da516f47357E+0x4ab>
    5c6c:	48 83 7b 08 00       	cmpq   $0x0,0x8(%rbx)
    5c71:	48 8b 08             	mov    (%rax),%rcx
    5c74:	0f 84 d7 00 00 00    	je     5d51 <_ZN9backtrace5print17BacktraceFrameFmt9print_raw17h69930da516f47357E+0x171>
    5c7a:	48 8b 79 20          	mov    0x20(%rcx),%rdi
    5c7e:	48 8b 71 28          	mov    0x28(%rcx),%rsi
    5c82:	48 8d 05 5f 0a 23 00 	lea    0x230a5f(%rip),%rax        # 2366e8 <__init_array_end+0x118>
    5c89:	48 89 04 24          	mov    %rax,(%rsp)
    5c8d:	48 c7 44 24 08 01 00 	movq   $0x1,0x8(%rsp)
    5c94:	00 00 
    5c96:	48 c7 44 24 10 00 00 	movq   $0x0,0x10(%rsp)
    5c9d:	00 00 
    5c9f:	48 8d 05 a2 97 02 00 	lea    0x297a2(%rip),%rax        # 2f448 <_ZN4core7unicode12unicode_data2cc6BITSET17h5201257bcf8f09faE+0x2e8>
    5ca6:	48 89 44 24 20       	mov    %rax,0x20(%rsp)
    5cab:	48 c7 44 24 28 00 00 	movq   $0x0,0x28(%rsp)
    5cb2:	00 00 
    5cb4:	48 89 e2             	mov    %rsp,%rdx
    5cb7:	e8 44 31 00 00       	callq  8e00 <_ZN4core3fmt5write17h0db54a985afb558eE>
    5cbc:	84 c0                	test   %al,%al
    5cbe:	0f 85 c5 03 00 00    	jne    6089 <_ZN9backtrace5print17BacktraceFrameFmt9print_raw17h69930da516f47357E+0x4a9>
    5cc4:	48 8b 03             	mov    (%rbx),%rax
    5cc7:	80 78 20 01          	cmpb   $0x1,0x20(%rax)
    5ccb:	0f 85 83 01 00 00    	jne    5e54 <_ZN9backtrace5print17BacktraceFrameFmt9print_raw17h69930da516f47357E+0x274>
    5cd1:	48 8b 00             	mov    (%rax),%rax
    5cd4:	48 8d 0d 45 23 01 00 	lea    0x12345(%rip),%rcx        # 18020 <_ZN44_$LT$$RF$T$u20$as$u20$core..fmt..Display$GT$3fmt17h9716022a15e5b13cE>
    5cdb:	66 48 0f 6e c1       	movq   %rcx,%xmm0
    5ce0:	48 8d 0d 39 16 23 00 	lea    0x231639(%rip),%rcx        # 237320 <__init_array_end+0xd50>
    5ce7:	66 48 0f 6e c9       	movq   %rcx,%xmm1
    5cec:	66 0f 6c c8          	punpcklqdq %xmm0,%xmm1
    5cf0:	66 0f 7f 4c 24 60    	movdqa %xmm1,0x60(%rsp)
    5cf6:	48 8d 15 b3 33 00 00 	lea    0x33b3(%rip),%rdx        # 90b0 <_ZN4core3fmt10ArgumentV110show_usize17h2a88cb8749ea423eE>
    5cfd:	66 48 0f 6e c2       	movq   %rdx,%xmm0
    5d02:	48 8d 15 e7 6f 02 00 	lea    0x26fe7(%rip),%rdx        # 2ccf0 <_ZN4core7unicode12unicode_data2cc19BITSET_INDEX_CHUNKS17h8a1f39cd536e9344E+0x90>
    5d09:	66 48 0f 6e ca       	movq   %rdx,%xmm1
    5d0e:	66 0f 6c c8          	punpcklqdq %xmm0,%xmm1
    5d12:	66 0f 7f 4c 24 70    	movdqa %xmm1,0x70(%rsp)
    5d18:	48 8b 78 20          	mov    0x20(%rax),%rdi
    5d1c:	48 8b 70 28          	mov    0x28(%rax),%rsi
    5d20:	48 89 0c 24          	mov    %rcx,(%rsp)
    5d24:	48 c7 44 24 08 01 00 	movq   $0x1,0x8(%rsp)
    5d2b:	00 00 
    5d2d:	48 8d 05 a4 79 02 00 	lea    0x279a4(%rip),%rax        # 2d6d8 <_ZN4core7unicode12unicode_data2cc19BITSET_INDEX_CHUNKS17h8a1f39cd536e9344E+0xa78>
    5d34:	48 89 44 24 10       	mov    %rax,0x10(%rsp)
    5d39:	48 c7 44 24 18 01 00 	movq   $0x1,0x18(%rsp)
    5d40:	00 00 
    5d42:	48 8d 44 24 60       	lea    0x60(%rsp),%rax
    5d47:	48 89 44 24 20       	mov    %rax,0x20(%rsp)
    5d4c:	e9 ea 00 00 00       	jmpq   5e3b <_ZN9backtrace5print17BacktraceFrameFmt9print_raw17h69930da516f47357E+0x25b>
    5d51:	48 83 c0 08          	add    $0x8,%rax
    5d55:	48 89 44 24 60       	mov    %rax,0x60(%rsp)
    5d5a:	48 8d 05 ef 1a 00 00 	lea    0x1aef(%rip),%rax        # 7850 <_ZN4core3fmt3num3imp52_$LT$impl$u20$core..fmt..Display$u20$for$u20$u64$GT$3fmt17h29103e8b1c853837E>
    5d61:	48 89 44 24 68       	mov    %rax,0x68(%rsp)
    5d66:	48 8b 79 20          	mov    0x20(%rcx),%rdi
    5d6a:	48 8b 71 28          	mov    0x28(%rcx),%rsi
    5d6e:	48 8d 05 03 0f 23 00 	lea    0x230f03(%rip),%rax        # 236c78 <__init_array_end+0x6a8>
    5d75:	48 89 04 24          	mov    %rax,(%rsp)
    5d79:	48 c7 44 24 08 02 00 	movq   $0x2,0x8(%rsp)
    5d80:	00 00 
    5d82:	48 8d 05 17 79 02 00 	lea    0x27917(%rip),%rax        # 2d6a0 <_ZN4core7unicode12unicode_data2cc19BITSET_INDEX_CHUNKS17h8a1f39cd536e9344E+0xa40>
    5d89:	48 89 44 24 10       	mov    %rax,0x10(%rsp)
    5d8e:	48 c7 44 24 18 01 00 	movq   $0x1,0x18(%rsp)
    5d95:	00 00 
    5d97:	4c 8d 6c 24 60       	lea    0x60(%rsp),%r13
    5d9c:	4c 89 6c 24 20       	mov    %r13,0x20(%rsp)
    5da1:	48 c7 44 24 28 01 00 	movq   $0x1,0x28(%rsp)
    5da8:	00 00 
    5daa:	48 89 e2             	mov    %rsp,%rdx
    5dad:	e8 4e 30 00 00       	callq  8e00 <_ZN4core3fmt5write17h0db54a985afb558eE>
    5db2:	84 c0                	test   %al,%al
    5db4:	0f 85 cf 02 00 00    	jne    6089 <_ZN9backtrace5print17BacktraceFrameFmt9print_raw17h69930da516f47357E+0x4a9>
    5dba:	48 8b 03             	mov    (%rbx),%rax
    5dbd:	80 78 20 01          	cmpb   $0x1,0x20(%rax)
    5dc1:	0f 85 8d 00 00 00    	jne    5e54 <_ZN9backtrace5print17BacktraceFrameFmt9print_raw17h69930da516f47357E+0x274>
    5dc7:	48 8b 00             	mov    (%rax),%rax
    5dca:	48 8d 8c 24 e8 00 00 	lea    0xe8(%rsp),%rcx
    5dd1:	00 
    5dd2:	48 89 4c 24 60       	mov    %rcx,0x60(%rsp)
    5dd7:	48 8d 0d 0a 6f 02 00 	lea    0x26f0a(%rip),%rcx        # 2cce8 <_ZN4core7unicode12unicode_data2cc19BITSET_INDEX_CHUNKS17h8a1f39cd536e9344E+0x88>
    5dde:	66 48 0f 6e c1       	movq   %rcx,%xmm0
    5de3:	48 8d 0d d6 fa ff ff 	lea    -0x52a(%rip),%rcx        # 58c0 <_ZN50_$LT$$BP$mut$u20$T$u20$as$u20$core..fmt..Debug$GT$3fmt17h0c22205dba98029aE>
    5dea:	66 48 0f 6e c9       	movq   %rcx,%xmm1
    5def:	66 0f 6c c8          	punpcklqdq %xmm0,%xmm1
    5df3:	f3 0f 7f 4c 24 68    	movdqu %xmm1,0x68(%rsp)
    5df9:	48 8d 0d b0 32 00 00 	lea    0x32b0(%rip),%rcx        # 90b0 <_ZN4core3fmt10ArgumentV110show_usize17h2a88cb8749ea423eE>
    5e00:	48 89 4c 24 78       	mov    %rcx,0x78(%rsp)
    5e05:	48 8b 78 20          	mov    0x20(%rax),%rdi
    5e09:	48 8b 70 28          	mov    0x28(%rax),%rsi
    5e0d:	48 8d 05 e4 08 23 00 	lea    0x2308e4(%rip),%rax        # 2366f8 <__init_array_end+0x128>
    5e14:	48 89 04 24          	mov    %rax,(%rsp)
    5e18:	48 c7 44 24 08 02 00 	movq   $0x2,0x8(%rsp)
    5e1f:	00 00 
    5e21:	48 8d 05 b0 78 02 00 	lea    0x278b0(%rip),%rax        # 2d6d8 <_ZN4core7unicode12unicode_data2cc19BITSET_INDEX_CHUNKS17h8a1f39cd536e9344E+0xa78>
    5e28:	48 89 44 24 10       	mov    %rax,0x10(%rsp)
    5e2d:	48 c7 44 24 18 01 00 	movq   $0x1,0x18(%rsp)
    5e34:	00 00 
    5e36:	4c 89 6c 24 20       	mov    %r13,0x20(%rsp)
    5e3b:	48 c7 44 24 28 02 00 	movq   $0x2,0x28(%rsp)
    5e42:	00 00 
    5e44:	48 89 e2             	mov    %rsp,%rdx
    5e47:	e8 b4 2f 00 00       	callq  8e00 <_ZN4core3fmt5write17h0db54a985afb558eE>
    5e4c:	84 c0                	test   %al,%al
    5e4e:	0f 85 35 02 00 00    	jne    6089 <_ZN9backtrace5print17BacktraceFrameFmt9print_raw17h69930da516f47357E+0x4a9>
    5e54:	0f 28 84 24 30 01 00 	movaps 0x130(%rsp),%xmm0
    5e5b:	00 
    5e5c:	0f 29 84 24 a0 00 00 	movaps %xmm0,0xa0(%rsp)
    5e63:	00 
    5e64:	48 8b 84 24 20 01 00 	mov    0x120(%rsp),%rax
    5e6b:	00 
    5e6c:	48 89 84 24 90 00 00 	mov    %rax,0x90(%rsp)
    5e73:	00 
    5e74:	66 0f 6f 84 24 f0 00 	movdqa 0xf0(%rsp),%xmm0
    5e7b:	00 00 
    5e7d:	66 0f 6f 8c 24 00 01 	movdqa 0x100(%rsp),%xmm1
    5e84:	00 00 
    5e86:	0f 28 94 24 10 01 00 	movaps 0x110(%rsp),%xmm2
    5e8d:	00 
    5e8e:	0f 29 94 24 80 00 00 	movaps %xmm2,0x80(%rsp)
    5e95:	00 
    5e96:	66 0f 7f 4c 24 70    	movdqa %xmm1,0x70(%rsp)
    5e9c:	66 0f 7f 44 24 60    	movdqa %xmm0,0x60(%rsp)
    5ea2:	48 8b 03             	mov    (%rbx),%rax
    5ea5:	48 83 fd 04          	cmp    $0x4,%rbp
    5ea9:	0f 84 b4 00 00 00    	je     5f63 <_ZN9backtrace5print17BacktraceFrameFmt9print_raw17h69930da516f47357E+0x383>
    5eaf:	0f b6 48 20          	movzbl 0x20(%rax),%ecx
    5eb3:	48 83 f9 01          	cmp    $0x1,%rcx
    5eb7:	0f 84 f8 00 00 00    	je     5fb5 <_ZN9backtrace5print17BacktraceFrameFmt9print_raw17h69930da516f47357E+0x3d5>
    5ebd:	48 85 c9             	test   %rcx,%rcx
    5ec0:	0f 85 9d 00 00 00    	jne    5f63 <_ZN9backtrace5print17BacktraceFrameFmt9print_raw17h69930da516f47357E+0x383>
    5ec6:	0f 28 84 24 a0 00 00 	movaps 0xa0(%rsp),%xmm0
    5ecd:	00 
    5ece:	0f 29 04 24          	movaps %xmm0,(%rsp)
    5ed2:	48 89 6c 24 10       	mov    %rbp,0x10(%rsp)
    5ed7:	66 0f 6f 44 24 60    	movdqa 0x60(%rsp),%xmm0
    5edd:	66 0f 6f 4c 24 70    	movdqa 0x70(%rsp),%xmm1
    5ee3:	0f 28 94 24 80 00 00 	movaps 0x80(%rsp),%xmm2
    5eea:	00 
    5eeb:	f3 0f 7f 44 24 18    	movdqu %xmm0,0x18(%rsp)
    5ef1:	f3 0f 7f 4c 24 28    	movdqu %xmm1,0x28(%rsp)
    5ef7:	0f 11 54 24 38       	movups %xmm2,0x38(%rsp)
    5efc:	48 8b 8c 24 90 00 00 	mov    0x90(%rsp),%rcx
    5f03:	00 
    5f04:	48 89 4c 24 48       	mov    %rcx,0x48(%rsp)
    5f09:	48 8b 00             	mov    (%rax),%rax
    5f0c:	48 89 e1             	mov    %rsp,%rcx
    5f0f:	48 89 4c 24 50       	mov    %rcx,0x50(%rsp)
    5f14:	48 8d 0d 55 03 00 00 	lea    0x355(%rip),%rcx        # 6270 <_ZN71_$LT$backtrace..symbolize..SymbolName$u20$as$u20$core..fmt..Display$GT$3fmt17h17077a10756a9dedE>
    5f1b:	48 89 4c 24 58       	mov    %rcx,0x58(%rsp)
    5f20:	48 8b 78 20          	mov    0x20(%rax),%rdi
    5f24:	48 8b 70 28          	mov    0x28(%rax),%rsi
    5f28:	48 8d 05 f1 13 23 00 	lea    0x2313f1(%rip),%rax        # 237320 <__init_array_end+0xd50>
    5f2f:	48 89 84 24 b0 00 00 	mov    %rax,0xb0(%rsp)
    5f36:	00 
    5f37:	48 c7 84 24 b8 00 00 	movq   $0x1,0xb8(%rsp)
    5f3e:	00 01 00 00 00 
    5f43:	48 8d 05 c6 77 02 00 	lea    0x277c6(%rip),%rax        # 2d710 <_ZN4core7unicode12unicode_data2cc19BITSET_INDEX_CHUNKS17h8a1f39cd536e9344E+0xab0>
    5f4a:	48 89 84 24 c0 00 00 	mov    %rax,0xc0(%rsp)
    5f51:	00 
    5f52:	48 c7 84 24 c8 00 00 	movq   $0x1,0xc8(%rsp)
    5f59:	00 01 00 00 00 
    5f5e:	e9 db 00 00 00       	jmpq   603e <_ZN9backtrace5print17BacktraceFrameFmt9print_raw17h69930da516f47357E+0x45e>
    5f63:	48 8b 00             	mov    (%rax),%rax
    5f66:	48 8b 78 20          	mov    0x20(%rax),%rdi
    5f6a:	48 8b 70 28          	mov    0x28(%rax),%rsi
    5f6e:	48 8d 05 a3 07 23 00 	lea    0x2307a3(%rip),%rax        # 236718 <__init_array_end+0x148>
    5f75:	48 89 04 24          	mov    %rax,(%rsp)
    5f79:	48 c7 44 24 08 01 00 	movq   $0x1,0x8(%rsp)
    5f80:	00 00 
    5f82:	48 c7 44 24 10 00 00 	movq   $0x0,0x10(%rsp)
    5f89:	00 00 
    5f8b:	48 8d 05 b6 94 02 00 	lea    0x294b6(%rip),%rax        # 2f448 <_ZN4core7unicode12unicode_data2cc6BITSET17h5201257bcf8f09faE+0x2e8>
    5f92:	48 89 44 24 20       	mov    %rax,0x20(%rsp)
    5f97:	48 c7 44 24 28 00 00 	movq   $0x0,0x28(%rsp)
    5f9e:	00 00 
    5fa0:	48 89 e2             	mov    %rsp,%rdx
    5fa3:	e8 58 2e 00 00       	callq  8e00 <_ZN4core3fmt5write17h0db54a985afb558eE>
    5fa8:	84 c0                	test   %al,%al
    5faa:	0f 84 b8 00 00 00    	je     6068 <_ZN9backtrace5print17BacktraceFrameFmt9print_raw17h69930da516f47357E+0x488>
    5fb0:	e9 d4 00 00 00       	jmpq   6089 <_ZN9backtrace5print17BacktraceFrameFmt9print_raw17h69930da516f47357E+0x4a9>
    5fb5:	0f 28 84 24 a0 00 00 	movaps 0xa0(%rsp),%xmm0
    5fbc:	00 
    5fbd:	0f 29 04 24          	movaps %xmm0,(%rsp)
    5fc1:	48 89 6c 24 10       	mov    %rbp,0x10(%rsp)
    5fc6:	66 0f 6f 44 24 60    	movdqa 0x60(%rsp),%xmm0
    5fcc:	66 0f 6f 4c 24 70    	movdqa 0x70(%rsp),%xmm1
    5fd2:	0f 28 94 24 80 00 00 	movaps 0x80(%rsp),%xmm2
    5fd9:	00 
    5fda:	f3 0f 7f 44 24 18    	movdqu %xmm0,0x18(%rsp)
    5fe0:	f3 0f 7f 4c 24 28    	movdqu %xmm1,0x28(%rsp)
    5fe6:	0f 11 54 24 38       	movups %xmm2,0x38(%rsp)
    5feb:	48 8b 8c 24 90 00 00 	mov    0x90(%rsp),%rcx
    5ff2:	00 
    5ff3:	48 89 4c 24 48       	mov    %rcx,0x48(%rsp)
    5ff8:	48 8b 00             	mov    (%rax),%rax
    5ffb:	48 89 e1             	mov    %rsp,%rcx
    5ffe:	48 89 4c 24 50       	mov    %rcx,0x50(%rsp)
    6003:	48 8d 0d 66 02 00 00 	lea    0x266(%rip),%rcx        # 6270 <_ZN71_$LT$backtrace..symbolize..SymbolName$u20$as$u20$core..fmt..Display$GT$3fmt17h17077a10756a9dedE>
    600a:	48 89 4c 24 58       	mov    %rcx,0x58(%rsp)
    600f:	48 8b 78 20          	mov    0x20(%rax),%rdi
    6013:	48 8b 70 28          	mov    0x28(%rax),%rsi
    6017:	48 8d 05 02 13 23 00 	lea    0x231302(%rip),%rax        # 237320 <__init_array_end+0xd50>
    601e:	48 89 84 24 b0 00 00 	mov    %rax,0xb0(%rsp)
    6025:	00 
    6026:	48 c7 84 24 b8 00 00 	movq   $0x1,0xb8(%rsp)
    602d:	00 01 00 00 00 
    6032:	48 c7 84 24 c0 00 00 	movq   $0x0,0xc0(%rsp)
    6039:	00 00 00 00 00 
    603e:	48 8d 44 24 50       	lea    0x50(%rsp),%rax
    6043:	48 89 84 24 d0 00 00 	mov    %rax,0xd0(%rsp)
    604a:	00 
    604b:	48 c7 84 24 d8 00 00 	movq   $0x1,0xd8(%rsp)
    6052:	00 01 00 00 00 
    6057:	48 8d 94 24 b0 00 00 	lea    0xb0(%rsp),%rdx
    605e:	00 
    605f:	e8 9c 2d 00 00       	callq  8e00 <_ZN4core3fmt5write17h0db54a985afb558eE>
    6064:	84 c0                	test   %al,%al
    6066:	75 21                	jne    6089 <_ZN9backtrace5print17BacktraceFrameFmt9print_raw17h69930da516f47357E+0x4a9>
    6068:	48 8b 03             	mov    (%rbx),%rax
    606b:	48 8b 00             	mov    (%rax),%rax
    606e:	48 8b 78 20          	mov    0x20(%rax),%rdi
    6072:	48 8b 40 28          	mov    0x28(%rax),%rax
    6076:	48 8d 35 58 94 02 00 	lea    0x29458(%rip),%rsi        # 2f4d5 <_ZN4core7unicode12unicode_data2cc6BITSET17h5201257bcf8f09faE+0x375>
    607d:	ba 01 00 00 00       	mov    $0x1,%edx
    6082:	ff 50 18             	callq  *0x18(%rax)
    6085:	84 c0                	test   %al,%al
    6087:	74 14                	je     609d <_ZN9backtrace5print17BacktraceFrameFmt9print_raw17h69930da516f47357E+0x4bd>
    6089:	b0 01                	mov    $0x1,%al
    608b:	48 81 c4 58 01 00 00 	add    $0x158,%rsp
    6092:	5b                   	pop    %rbx
    6093:	41 5c                	pop    %r12
    6095:	41 5d                	pop    %r13
    6097:	41 5e                	pop    %r14
    6099:	41 5f                	pop    %r15
    609b:	5d                   	pop    %rbp
    609c:	c3                   	retq   
    609d:	66 0f 6f 84 24 40 01 	movdqa 0x140(%rsp),%xmm0
    60a4:	00 00 
    60a6:	66 0f 7f 44 24 50    	movdqa %xmm0,0x50(%rsp)
    60ac:	41 83 fc 01          	cmp    $0x1,%r12d
    60b0:	0f 85 aa fb ff ff    	jne    5c60 <_ZN9backtrace5print17BacktraceFrameFmt9print_raw17h69930da516f47357E+0x80>
    60b6:	49 83 ff 02          	cmp    $0x2,%r15
    60ba:	0f 84 a0 fb ff ff    	je     5c60 <_ZN9backtrace5print17BacktraceFrameFmt9print_raw17h69930da516f47357E+0x80>
    60c0:	66 0f 6f 44 24 50    	movdqa 0x50(%rsp),%xmm0
    60c6:	66 0f 7f 84 24 b0 00 	movdqa %xmm0,0xb0(%rsp)
    60cd:	00 00 
    60cf:	44 89 b4 24 a0 00 00 	mov    %r14d,0xa0(%rsp)
    60d6:	00 
    60d7:	48 8b 03             	mov    (%rbx),%rax
    60da:	80 78 20 01          	cmpb   $0x1,0x20(%rax)
    60de:	0f 85 97 00 00 00    	jne    617b <_ZN9backtrace5print17BacktraceFrameFmt9print_raw17h69930da516f47357E+0x59b>
    60e4:	48 8b 00             	mov    (%rax),%rax
    60e7:	48 8d 0d 32 1f 01 00 	lea    0x11f32(%rip),%rcx        # 18020 <_ZN44_$LT$$RF$T$u20$as$u20$core..fmt..Display$GT$3fmt17h9716022a15e5b13cE>
    60ee:	66 48 0f 6e c1       	movq   %rcx,%xmm0
    60f3:	48 8d 0d 26 12 23 00 	lea    0x231226(%rip),%rcx        # 237320 <__init_array_end+0xd50>
    60fa:	66 48 0f 6e c9       	movq   %rcx,%xmm1
    60ff:	66 0f 6c c8          	punpcklqdq %xmm0,%xmm1
    6103:	66 0f 7f 4c 24 60    	movdqa %xmm1,0x60(%rsp)
    6109:	48 8d 15 a0 2f 00 00 	lea    0x2fa0(%rip),%rdx        # 90b0 <_ZN4core3fmt10ArgumentV110show_usize17h2a88cb8749ea423eE>
    6110:	66 48 0f 6e c2       	movq   %rdx,%xmm0
    6115:	48 8d 15 cc 6b 02 00 	lea    0x26bcc(%rip),%rdx        # 2cce8 <_ZN4core7unicode12unicode_data2cc19BITSET_INDEX_CHUNKS17h8a1f39cd536e9344E+0x88>
    611c:	66 48 0f 6e ca       	movq   %rdx,%xmm1
    6121:	66 0f 6c c8          	punpcklqdq %xmm0,%xmm1
    6125:	66 0f 7f 4c 24 70    	movdqa %xmm1,0x70(%rsp)
    612b:	48 8b 78 20          	mov    0x20(%rax),%rdi
    612f:	48 8b 70 28          	mov    0x28(%rax),%rsi
    6133:	48 89 0c 24          	mov    %rcx,(%rsp)
    6137:	48 c7 44 24 08 01 00 	movq   $0x1,0x8(%rsp)
    613e:	00 00 
    6140:	48 8d 05 91 75 02 00 	lea    0x27591(%rip),%rax        # 2d6d8 <_ZN4core7unicode12unicode_data2cc19BITSET_INDEX_CHUNKS17h8a1f39cd536e9344E+0xa78>
    6147:	48 89 44 24 10       	mov    %rax,0x10(%rsp)
    614c:	48 c7 44 24 18 01 00 	movq   $0x1,0x18(%rsp)
    6153:	00 00 
    6155:	48 8d 44 24 60       	lea    0x60(%rsp),%rax
    615a:	48 89 44 24 20       	mov    %rax,0x20(%rsp)
    615f:	48 c7 44 24 28 02 00 	movq   $0x2,0x28(%rsp)
    6166:	00 00 
    6168:	48 89 e2             	mov    %rsp,%rdx
    616b:	e8 90 2c 00 00       	callq  8e00 <_ZN4core3fmt5write17h0db54a985afb558eE>
    6170:	84 c0                	test   %al,%al
    6172:	0f 85 11 ff ff ff    	jne    6089 <_ZN9backtrace5print17BacktraceFrameFmt9print_raw17h69930da516f47357E+0x4a9>
    6178:	48 8b 03             	mov    (%rbx),%rax
    617b:	48 8b 00             	mov    (%rax),%rax
    617e:	48 8b 78 20          	mov    0x20(%rax),%rdi
    6182:	48 8b 70 28          	mov    0x28(%rax),%rsi
    6186:	48 8d 05 9b 05 23 00 	lea    0x23059b(%rip),%rax        # 236728 <__init_array_end+0x158>
    618d:	48 89 04 24          	mov    %rax,(%rsp)
    6191:	48 c7 44 24 08 01 00 	movq   $0x1,0x8(%rsp)
    6198:	00 00 
    619a:	48 c7 44 24 10 00 00 	movq   $0x0,0x10(%rsp)
    61a1:	00 00 
    61a3:	48 8d 05 9e 92 02 00 	lea    0x2929e(%rip),%rax        # 2f448 <_ZN4core7unicode12unicode_data2cc6BITSET17h5201257bcf8f09faE+0x2e8>
    61aa:	48 89 44 24 20       	mov    %rax,0x20(%rsp)
    61af:	48 c7 44 24 28 00 00 	movq   $0x0,0x28(%rsp)
    61b6:	00 00 
    61b8:	48 89 e2             	mov    %rsp,%rdx
    61bb:	e8 40 2c 00 00       	callq  8e00 <_ZN4core3fmt5write17h0db54a985afb558eE>
    61c0:	84 c0                	test   %al,%al
    61c2:	0f 85 c1 fe ff ff    	jne    6089 <_ZN9backtrace5print17BacktraceFrameFmt9print_raw17h69930da516f47357E+0x4a9>
    61c8:	48 8b 03             	mov    (%rbx),%rax
    61cb:	48 8b 78 10          	mov    0x10(%rax),%rdi
    61cf:	48 8b 48 18          	mov    0x18(%rax),%rcx
    61d3:	48 8b 30             	mov    (%rax),%rsi
    61d6:	48 89 34 24          	mov    %rsi,(%rsp)
    61da:	48 8d 54 24 08       	lea    0x8(%rsp),%rdx
    61df:	4c 89 7c 24 08       	mov    %r15,0x8(%rsp)
    61e4:	66 0f 6f 84 24 b0 00 	movdqa 0xb0(%rsp),%xmm0
    61eb:	00 00 
    61ed:	f3 0f 7f 44 24 10    	movdqu %xmm0,0x10(%rsp)
    61f3:	ff 51 18             	callq  *0x18(%rcx)
    61f6:	84 c0                	test   %al,%al
    61f8:	0f 85 8b fe ff ff    	jne    6089 <_ZN9backtrace5print17BacktraceFrameFmt9print_raw17h69930da516f47357E+0x4a9>
    61fe:	48 8b 03             	mov    (%rbx),%rax
    6201:	48 8b 00             	mov    (%rax),%rax
    6204:	48 8d 8c 24 a0 00 00 	lea    0xa0(%rsp),%rcx
    620b:	00 
    620c:	48 89 4c 24 60       	mov    %rcx,0x60(%rsp)
    6211:	48 8d 0d b8 3e 00 00 	lea    0x3eb8(%rip),%rcx        # a0d0 <_ZN4core3fmt3num3imp52_$LT$impl$u20$core..fmt..Display$u20$for$u20$u32$GT$3fmt17h0d5c971f484cf42aE>
    6218:	48 89 4c 24 68       	mov    %rcx,0x68(%rsp)
    621d:	48 8b 78 20          	mov    0x20(%rax),%rdi
    6221:	48 8b 70 28          	mov    0x28(%rax),%rsi
    6225:	48 8d 05 0c 05 23 00 	lea    0x23050c(%rip),%rax        # 236738 <__init_array_end+0x168>
    622c:	48 89 04 24          	mov    %rax,(%rsp)
    6230:	48 c7 44 24 08 02 00 	movq   $0x2,0x8(%rsp)
    6237:	00 00 
    6239:	48 c7 44 24 10 00 00 	movq   $0x0,0x10(%rsp)
    6240:	00 00 
    6242:	48 8d 44 24 60       	lea    0x60(%rsp),%rax
    6247:	48 89 44 24 20       	mov    %rax,0x20(%rsp)
    624c:	48 c7 44 24 28 01 00 	movq   $0x1,0x28(%rsp)
    6253:	00 00 
    6255:	48 89 e2             	mov    %rsp,%rdx
    6258:	e8 a3 2b 00 00       	callq  8e00 <_ZN4core3fmt5write17h0db54a985afb558eE>
    625d:	84 c0                	test   %al,%al
    625f:	0f 84 fb f9 ff ff    	je     5c60 <_ZN9backtrace5print17BacktraceFrameFmt9print_raw17h69930da516f47357E+0x80>
    6265:	e9 1f fe ff ff       	jmpq   6089 <_ZN9backtrace5print17BacktraceFrameFmt9print_raw17h69930da516f47357E+0x4a9>
    626a:	66 0f 1f 44 00 00    	nopw   0x0(%rax,%rax,1)

0000000000006270 <_ZN71_$LT$backtrace..symbolize..SymbolName$u20$as$u20$core..fmt..Display$GT$3fmt17h17077a10756a9dedE>:
    6270:	55                   	push   %rbp
    6271:	41 57                	push   %r15
    6273:	41 56                	push   %r14
    6275:	41 55                	push   %r13
    6277:	41 54                	push   %r12
    6279:	53                   	push   %rbx
    627a:	48 81 ec 98 00 00 00 	sub    $0x98,%rsp
    6281:	48 89 74 24 28       	mov    %rsi,0x28(%rsp)
    6286:	48 8b 47 10          	mov    0x10(%rdi),%rax
    628a:	48 83 f8 02          	cmp    $0x2,%rax
    628e:	0f 84 97 00 00 00    	je     632b <_ZN71_$LT$backtrace..symbolize..SymbolName$u20$as$u20$core..fmt..Display$GT$3fmt17h17077a10756a9dedE+0xbb>
    6294:	48 83 f8 03          	cmp    $0x3,%rax
    6298:	0f 85 be 00 00 00    	jne    635c <_ZN71_$LT$backtrace..symbolize..SymbolName$u20$as$u20$core..fmt..Display$GT$3fmt17h17077a10756a9dedE+0xec>
    629e:	48 8b 5f 08          	mov    0x8(%rdi),%rbx
    62a2:	48 85 db             	test   %rbx,%rbx
    62a5:	0f 84 35 12 00 00    	je     74e0 <_ZN71_$LT$backtrace..symbolize..SymbolName$u20$as$u20$core..fmt..Display$GT$3fmt17h17077a10756a9dedE+0x1270>
    62ab:	4c 8b 27             	mov    (%rdi),%r12
    62ae:	4c 8d 74 24 30       	lea    0x30(%rsp),%r14
    62b3:	66 2e 0f 1f 84 00 00 	nopw   %cs:0x0(%rax,%rax,1)
    62ba:	00 00 00 
    62bd:	0f 1f 00             	nopl   (%rax)
    62c0:	4c 89 f7             	mov    %r14,%rdi
    62c3:	4c 89 e6             	mov    %r12,%rsi
    62c6:	48 89 da             	mov    %rbx,%rdx
    62c9:	e8 62 58 00 00       	callq  bb30 <_ZN4core3str9from_utf817ha5f1d279f7594d61E>
    62ce:	48 83 7c 24 30 01    	cmpq   $0x1,0x30(%rsp)
    62d4:	0f 85 ea 11 00 00    	jne    74c4 <_ZN71_$LT$backtrace..symbolize..SymbolName$u20$as$u20$core..fmt..Display$GT$3fmt17h17077a10756a9dedE+0x1254>
    62da:	48 8b 6c 24 38       	mov    0x38(%rsp),%rbp
    62df:	44 0f b6 7c 24 40    	movzbl 0x40(%rsp),%r15d
    62e5:	44 0f b6 6c 24 41    	movzbl 0x41(%rsp),%r13d
    62eb:	ba 03 00 00 00       	mov    $0x3,%edx
    62f0:	48 8b 7c 24 28       	mov    0x28(%rsp),%rdi
    62f5:	48 8d 35 9a 73 02 00 	lea    0x2739a(%rip),%rsi        # 2d696 <_ZN4core7unicode12unicode_data2cc19BITSET_INDEX_CHUNKS17h8a1f39cd536e9344E+0xa36>
    62fc:	e8 9f 1d 00 00       	callq  80a0 <_ZN4core3fmt9Formatter3pad17h7ef001ba65c2db9cE>
    6301:	84 c0                	test   %al,%al
    6303:	0f 85 d3 11 00 00    	jne    74dc <_ZN71_$LT$backtrace..symbolize..SymbolName$u20$as$u20$core..fmt..Display$GT$3fmt17h17077a10756a9dedE+0x126c>
    6309:	45 84 ff             	test   %r15b,%r15b
    630c:	0f 84 ce 11 00 00    	je     74e0 <_ZN71_$LT$backtrace..symbolize..SymbolName$u20$as$u20$core..fmt..Display$GT$3fmt17h17077a10756a9dedE+0x1270>
    6312:	4c 01 ed             	add    %r13,%rbp
    6315:	48 39 eb             	cmp    %rbp,%rbx
    6318:	0f 82 55 12 00 00    	jb     7573 <_ZN71_$LT$backtrace..symbolize..SymbolName$u20$as$u20$core..fmt..Display$GT$3fmt17h17077a10756a9dedE+0x1303>
    631e:	49 01 ec             	add    %rbp,%r12
    6321:	48 29 eb             	sub    %rbp,%rbx
    6324:	75 9a                	jne    62c0 <_ZN71_$LT$backtrace..symbolize..SymbolName$u20$as$u20$core..fmt..Display$GT$3fmt17h17077a10756a9dedE+0x50>
    6326:	e9 b5 11 00 00       	jmpq   74e0 <_ZN71_$LT$backtrace..symbolize..SymbolName$u20$as$u20$core..fmt..Display$GT$3fmt17h17077a10756a9dedE+0x1270>
    632b:	48 8b 77 30          	mov    0x30(%rdi),%rsi
    632f:	48 89 bc 24 88 00 00 	mov    %rdi,0x88(%rsp)
    6336:	00 
    6337:	48 8b 57 38          	mov    0x38(%rdi),%rdx
    633b:	48 8b 44 24 28       	mov    0x28(%rsp),%rax
    6340:	48 8b 78 20          	mov    0x20(%rax),%rdi
    6344:	48 8b 40 28          	mov    0x28(%rax),%rax
    6348:	ff 50 18             	callq  *0x18(%rax)
    634b:	89 c1                	mov    %eax,%ecx
    634d:	b0 01                	mov    $0x1,%al
    634f:	84 c9                	test   %cl,%cl
    6351:	0f 85 8b 11 00 00    	jne    74e2 <_ZN71_$LT$backtrace..symbolize..SymbolName$u20$as$u20$core..fmt..Display$GT$3fmt17h17077a10756a9dedE+0x1272>
    6357:	e9 46 11 00 00       	jmpq   74a2 <_ZN71_$LT$backtrace..symbolize..SymbolName$u20$as$u20$core..fmt..Display$GT$3fmt17h17077a10756a9dedE+0x1232>
    635c:	48 83 f8 01          	cmp    $0x1,%rax
    6360:	48 89 bc 24 88 00 00 	mov    %rdi,0x88(%rsp)
    6367:	00 
    6368:	75 46                	jne    63b0 <_ZN71_$LT$backtrace..symbolize..SymbolName$u20$as$u20$core..fmt..Display$GT$3fmt17h17077a10756a9dedE+0x140>
    636a:	f3 0f 6f 47 18       	movdqu 0x18(%rdi),%xmm0
    636f:	66 0f 7f 44 24 30    	movdqa %xmm0,0x30(%rsp)
    6375:	48 c7 44 24 40 00 00 	movq   $0x0,0x40(%rsp)
    637c:	00 00 
    637e:	48 8b 44 24 28       	mov    0x28(%rsp),%rax
    6383:	48 89 44 24 48       	mov    %rax,0x48(%rsp)
    6388:	c7 44 24 50 00 00 00 	movl   $0x0,0x50(%rsp)
    638f:	00 
    6390:	48 8d 7c 24 30       	lea    0x30(%rsp),%rdi
    6395:	be 01 00 00 00       	mov    $0x1,%esi
    639a:	e8 51 a6 00 00       	callq  109f0 <_ZN14rustc_demangle2v07Printer10print_path17haa095a98ac60aefaE>
    639f:	89 c1                	mov    %eax,%ecx
    63a1:	b0 01                	mov    $0x1,%al
    63a3:	84 c9                	test   %cl,%cl
    63a5:	0f 84 f7 10 00 00    	je     74a2 <_ZN71_$LT$backtrace..symbolize..SymbolName$u20$as$u20$core..fmt..Display$GT$3fmt17h17077a10756a9dedE+0x1232>
    63ab:	e9 32 11 00 00       	jmpq   74e2 <_ZN71_$LT$backtrace..symbolize..SymbolName$u20$as$u20$core..fmt..Display$GT$3fmt17h17077a10756a9dedE+0x1272>
    63b0:	4c 8b 67 18          	mov    0x18(%rdi),%r12
    63b4:	4c 8b 77 20          	mov    0x20(%rdi),%r14
    63b8:	48 8b 47 28          	mov    0x28(%rdi),%rax
    63bc:	48 89 84 24 90 00 00 	mov    %rax,0x90(%rsp)
    63c3:	00 
    63c4:	31 c0                	xor    %eax,%eax
    63c6:	48 89 84 24 80 00 00 	mov    %rax,0x80(%rsp)
    63cd:	00 
    63ce:	66 0f 6f 15 9a 67 02 	movdqa 0x2679a(%rip),%xmm2        # 2cb70 <_fini+0x4c>
    63d5:	00 
    63d6:	66 0f 6f 1d a2 67 02 	movdqa 0x267a2(%rip),%xmm3        # 2cb80 <_fini+0x5c>
    63dd:	00 
    63de:	66 0f 6f 25 aa 67 02 	movdqa 0x267aa(%rip),%xmm4        # 2cb90 <_fini+0x6c>
    63e5:	00 
    63e6:	4c 8b 84 24 80 00 00 	mov    0x80(%rsp),%r8
    63ed:	00 
    63ee:	4c 3b 84 24 90 00 00 	cmp    0x90(%rsp),%r8
    63f5:	00 
    63f6:	75 64                	jne    645c <_ZN71_$LT$backtrace..symbolize..SymbolName$u20$as$u20$core..fmt..Display$GT$3fmt17h17077a10756a9dedE+0x1ec>
    63f8:	e9 a5 10 00 00       	jmpq   74a2 <_ZN71_$LT$backtrace..symbolize..SymbolName$u20$as$u20$core..fmt..Display$GT$3fmt17h17077a10756a9dedE+0x1232>
    63fd:	4c 89 64 24 40       	mov    %r12,0x40(%rsp)
    6402:	4c 8b 64 24 60       	mov    0x60(%rsp),%r12
    6407:	48 8b 44 24 28       	mov    0x28(%rsp),%rax
    640c:	48 8b 78 20          	mov    0x20(%rax),%rdi
    6410:	48 8b 40 28          	mov    0x28(%rax),%rax
    6414:	4c 89 ee             	mov    %r13,%rsi
    6417:	4c 89 e2             	mov    %r12,%rdx
    641a:	ff 50 18             	callq  *0x18(%rax)
    641d:	66 0f 6f 25 6b 67 02 	movdqa 0x2676b(%rip),%xmm4        # 2cb90 <_fini+0x6c>
    6424:	00 
    6425:	66 0f 6f 1d 53 67 02 	movdqa 0x26753(%rip),%xmm3        # 2cb80 <_fini+0x5c>
    642c:	00 
    642d:	66 0f 6f 15 3b 67 02 	movdqa 0x2673b(%rip),%xmm2        # 2cb70 <_fini+0x4c>
    6434:	00 
    6435:	89 c1                	mov    %eax,%ecx
    6437:	b0 01                	mov    $0x1,%al
    6439:	4c 8b 64 24 68       	mov    0x68(%rsp),%r12
    643e:	84 c9                	test   %cl,%cl
    6440:	0f 85 9c 10 00 00    	jne    74e2 <_ZN71_$LT$backtrace..symbolize..SymbolName$u20$as$u20$core..fmt..Display$GT$3fmt17h17077a10756a9dedE+0x1272>
    6446:	4c 8b 84 24 80 00 00 	mov    0x80(%rsp),%r8
    644d:	00 
    644e:	4c 3b 84 24 90 00 00 	cmp    0x90(%rsp),%r8
    6455:	00 
    6456:	0f 84 46 10 00 00    	je     74a2 <_ZN71_$LT$backtrace..symbolize..SymbolName$u20$as$u20$core..fmt..Display$GT$3fmt17h17077a10756a9dedE+0x1232>
    645c:	4d 85 f6             	test   %r14,%r14
    645f:	0f 84 b9 10 00 00    	je     751e <_ZN71_$LT$backtrace..symbolize..SymbolName$u20$as$u20$core..fmt..Display$GT$3fmt17h17077a10756a9dedE+0x12ae>
    6465:	49 8d 40 01          	lea    0x1(%r8),%rax
    6469:	48 89 84 24 80 00 00 	mov    %rax,0x80(%rsp)
    6470:	00 
    6471:	4f 8d 14 34          	lea    (%r12,%r14,1),%r10
    6475:	4d 8d 4e ff          	lea    -0x1(%r14),%r9
    6479:	31 db                	xor    %ebx,%ebx
    647b:	4c 89 f6             	mov    %r14,%rsi
    647e:	41 0f b6 0c 1c       	movzbl (%r12,%rbx,1),%ecx
    6483:	84 c9                	test   %cl,%cl
    6485:	79 23                	jns    64aa <_ZN71_$LT$backtrace..symbolize..SymbolName$u20$as$u20$core..fmt..Display$GT$3fmt17h17077a10756a9dedE+0x23a>
    6487:	eb 47                	jmp    64d0 <_ZN71_$LT$backtrace..symbolize..SymbolName$u20$as$u20$core..fmt..Display$GT$3fmt17h17077a10756a9dedE+0x260>
    6489:	0f 1f 80 00 00 00 00 	nopl   0x0(%rax)
    6490:	48 83 c6 ff          	add    $0xffffffffffffffff,%rsi
    6494:	48 83 c3 01          	add    $0x1,%rbx
    6498:	49 39 de             	cmp    %rbx,%r14
    649b:	0f 84 7d 10 00 00    	je     751e <_ZN71_$LT$backtrace..symbolize..SymbolName$u20$as$u20$core..fmt..Display$GT$3fmt17h17077a10756a9dedE+0x12ae>
    64a1:	41 0f b6 0c 1c       	movzbl (%r12,%rbx,1),%ecx
    64a6:	84 c9                	test   %cl,%cl
    64a8:	78 26                	js     64d0 <_ZN71_$LT$backtrace..symbolize..SymbolName$u20$as$u20$core..fmt..Display$GT$3fmt17h17077a10756a9dedE+0x260>
    64aa:	89 cf                	mov    %ecx,%edi
    64ac:	4d 8d 2c 1c          	lea    (%r12,%rbx,1),%r13
    64b0:	83 c7 d0             	add    $0xffffffd0,%edi
    64b3:	83 ff 0a             	cmp    $0xa,%edi
    64b6:	0f 82 b0 00 00 00    	jb     656c <_ZN71_$LT$backtrace..symbolize..SymbolName$u20$as$u20$core..fmt..Display$GT$3fmt17h17077a10756a9dedE+0x2fc>
    64bc:	e9 ef 00 00 00       	jmpq   65b0 <_ZN71_$LT$backtrace..symbolize..SymbolName$u20$as$u20$core..fmt..Display$GT$3fmt17h17077a10756a9dedE+0x340>
    64c1:	66 2e 0f 1f 84 00 00 	nopw   %cs:0x0(%rax,%rax,1)
    64c8:	00 00 00 
    64cb:	0f 1f 44 00 00       	nopl   0x0(%rax,%rax,1)
    64d0:	31 ff                	xor    %edi,%edi
    64d2:	4c 89 d0             	mov    %r10,%rax
    64d5:	49 39 d9             	cmp    %rbx,%r9
    64d8:	74 11                	je     64eb <_ZN71_$LT$backtrace..symbolize..SymbolName$u20$as$u20$core..fmt..Display$GT$3fmt17h17077a10756a9dedE+0x27b>
    64da:	49 8d 04 1c          	lea    (%r12,%rbx,1),%rax
    64de:	48 83 c0 02          	add    $0x2,%rax
    64e2:	41 0f b6 7c 1c 01    	movzbl 0x1(%r12,%rbx,1),%edi
    64e8:	83 e7 3f             	and    $0x3f,%edi
    64eb:	89 ca                	mov    %ecx,%edx
    64ed:	83 e2 1f             	and    $0x1f,%edx
    64f0:	80 f9 df             	cmp    $0xdf,%cl
    64f3:	76 26                	jbe    651b <_ZN71_$LT$backtrace..symbolize..SymbolName$u20$as$u20$core..fmt..Display$GT$3fmt17h17077a10756a9dedE+0x2ab>
    64f5:	4c 39 d0             	cmp    %r10,%rax
    64f8:	74 26                	je     6520 <_ZN71_$LT$backtrace..symbolize..SymbolName$u20$as$u20$core..fmt..Display$GT$3fmt17h17077a10756a9dedE+0x2b0>
    64fa:	0f b6 28             	movzbl (%rax),%ebp
    64fd:	48 83 c0 01          	add    $0x1,%rax
    6501:	83 e5 3f             	and    $0x3f,%ebp
    6504:	c1 e7 06             	shl    $0x6,%edi
    6507:	09 ef                	or     %ebp,%edi
    6509:	80 f9 f0             	cmp    $0xf0,%cl
    650c:	72 21                	jb     652f <_ZN71_$LT$backtrace..symbolize..SymbolName$u20$as$u20$core..fmt..Display$GT$3fmt17h17077a10756a9dedE+0x2bf>
    650e:	4c 39 d0             	cmp    %r10,%rax
    6511:	74 2f                	je     6542 <_ZN71_$LT$backtrace..symbolize..SymbolName$u20$as$u20$core..fmt..Display$GT$3fmt17h17077a10756a9dedE+0x2d2>
    6513:	0f b6 00             	movzbl (%rax),%eax
    6516:	83 e0 3f             	and    $0x3f,%eax
    6519:	eb 29                	jmp    6544 <_ZN71_$LT$backtrace..symbolize..SymbolName$u20$as$u20$core..fmt..Display$GT$3fmt17h17077a10756a9dedE+0x2d4>
    651b:	c1 e2 06             	shl    $0x6,%edx
    651e:	eb 12                	jmp    6532 <_ZN71_$LT$backtrace..symbolize..SymbolName$u20$as$u20$core..fmt..Display$GT$3fmt17h17077a10756a9dedE+0x2c2>
    6520:	31 ed                	xor    %ebp,%ebp
    6522:	4c 89 d0             	mov    %r10,%rax
    6525:	c1 e7 06             	shl    $0x6,%edi
    6528:	09 ef                	or     %ebp,%edi
    652a:	80 f9 f0             	cmp    $0xf0,%cl
    652d:	73 df                	jae    650e <_ZN71_$LT$backtrace..symbolize..SymbolName$u20$as$u20$core..fmt..Display$GT$3fmt17h17077a10756a9dedE+0x29e>
    652f:	c1 e2 0c             	shl    $0xc,%edx
    6532:	09 d7                	or     %edx,%edi
    6534:	4d 8d 2c 1c          	lea    (%r12,%rbx,1),%r13
    6538:	83 c7 d0             	add    $0xffffffd0,%edi
    653b:	83 ff 0a             	cmp    $0xa,%edi
    653e:	72 2c                	jb     656c <_ZN71_$LT$backtrace..symbolize..SymbolName$u20$as$u20$core..fmt..Display$GT$3fmt17h17077a10756a9dedE+0x2fc>
    6540:	eb 6e                	jmp    65b0 <_ZN71_$LT$backtrace..symbolize..SymbolName$u20$as$u20$core..fmt..Display$GT$3fmt17h17077a10756a9dedE+0x340>
    6542:	31 c0                	xor    %eax,%eax
    6544:	83 e2 07             	and    $0x7,%edx
    6547:	c1 e2 12             	shl    $0x12,%edx
    654a:	c1 e7 06             	shl    $0x6,%edi
    654d:	09 d7                	or     %edx,%edi
    654f:	09 c7                	or     %eax,%edi
    6551:	81 ff 00 00 11 00    	cmp    $0x110000,%edi
    6557:	0f 84 c1 0f 00 00    	je     751e <_ZN71_$LT$backtrace..symbolize..SymbolName$u20$as$u20$core..fmt..Display$GT$3fmt17h17077a10756a9dedE+0x12ae>
    655d:	0f 1f 00             	nopl   (%rax)
    6560:	4d 8d 2c 1c          	lea    (%r12,%rbx,1),%r13
    6564:	83 c7 d0             	add    $0xffffffd0,%edi
    6567:	83 ff 0a             	cmp    $0xa,%edi
    656a:	73 44                	jae    65b0 <_ZN71_$LT$backtrace..symbolize..SymbolName$u20$as$u20$core..fmt..Display$GT$3fmt17h17077a10756a9dedE+0x340>
    656c:	4c 89 6c 24 18       	mov    %r13,0x18(%rsp)
    6571:	48 89 74 24 20       	mov    %rsi,0x20(%rsp)
    6576:	48 c7 44 24 08 01 00 	movq   $0x1,0x8(%rsp)
    657d:	00 00 
    657f:	48 89 74 24 10       	mov    %rsi,0x10(%rsp)
    6584:	48 83 fe 01          	cmp    $0x1,%rsi
    6588:	0f 84 02 ff ff ff    	je     6490 <_ZN71_$LT$backtrace..symbolize..SymbolName$u20$as$u20$core..fmt..Display$GT$3fmt17h17077a10756a9dedE+0x220>
    658e:	48 85 f6             	test   %rsi,%rsi
    6591:	0f 84 5d 0f 00 00    	je     74f4 <_ZN71_$LT$backtrace..symbolize..SymbolName$u20$as$u20$core..fmt..Display$GT$3fmt17h17077a10756a9dedE+0x1284>
    6597:	41 80 7c 1c 01 bf    	cmpb   $0xbf,0x1(%r12,%rbx,1)
    659d:	0f 8f ed fe ff ff    	jg     6490 <_ZN71_$LT$backtrace..symbolize..SymbolName$u20$as$u20$core..fmt..Display$GT$3fmt17h17077a10756a9dedE+0x220>
    65a3:	e9 4c 0f 00 00       	jmpq   74f4 <_ZN71_$LT$backtrace..symbolize..SymbolName$u20$as$u20$core..fmt..Display$GT$3fmt17h17077a10756a9dedE+0x1284>
    65a8:	0f 1f 84 00 00 00 00 	nopl   0x0(%rax,%rax,1)
    65af:	00 
    65b0:	4c 89 64 24 30       	mov    %r12,0x30(%rsp)
    65b5:	4c 89 74 24 38       	mov    %r14,0x38(%rsp)
    65ba:	49 39 de             	cmp    %rbx,%r14
    65bd:	74 21                	je     65e0 <_ZN71_$LT$backtrace..symbolize..SymbolName$u20$as$u20$core..fmt..Display$GT$3fmt17h17077a10756a9dedE+0x370>
    65bf:	48 85 db             	test   %rbx,%rbx
    65c2:	74 1c                	je     65e0 <_ZN71_$LT$backtrace..symbolize..SymbolName$u20$as$u20$core..fmt..Display$GT$3fmt17h17077a10756a9dedE+0x370>
    65c4:	49 39 de             	cmp    %rbx,%r14
    65c7:	41 ba 0a 00 00 00    	mov    $0xa,%r10d
    65cd:	0f 86 91 0f 00 00    	jbe    7564 <_ZN71_$LT$backtrace..symbolize..SymbolName$u20$as$u20$core..fmt..Display$GT$3fmt17h17077a10756a9dedE+0x12f4>
    65d3:	41 80 3c 1c c0       	cmpb   $0xc0,(%r12,%rbx,1)
    65d8:	7d 15                	jge    65ef <_ZN71_$LT$backtrace..symbolize..SymbolName$u20$as$u20$core..fmt..Display$GT$3fmt17h17077a10756a9dedE+0x37f>
    65da:	e9 85 0f 00 00       	jmpq   7564 <_ZN71_$LT$backtrace..symbolize..SymbolName$u20$as$u20$core..fmt..Display$GT$3fmt17h17077a10756a9dedE+0x12f4>
    65df:	90                   	nop
    65e0:	48 85 db             	test   %rbx,%rbx
    65e3:	41 ba 0a 00 00 00    	mov    $0xa,%r10d
    65e9:	0f 84 c7 0f 00 00    	je     75b6 <_ZN71_$LT$backtrace..symbolize..SymbolName$u20$as$u20$core..fmt..Display$GT$3fmt17h17077a10756a9dedE+0x1346>
    65ef:	41 80 3c 24 2b       	cmpb   $0x2b,(%r12)
    65f4:	48 89 d9             	mov    %rbx,%rcx
    65f7:	4d 89 e1             	mov    %r12,%r9
    65fa:	75 13                	jne    660f <_ZN71_$LT$backtrace..symbolize..SymbolName$u20$as$u20$core..fmt..Display$GT$3fmt17h17077a10756a9dedE+0x39f>
    65fc:	48 83 fb 01          	cmp    $0x1,%rbx
    6600:	0f 84 b0 0f 00 00    	je     75b6 <_ZN71_$LT$backtrace..symbolize..SymbolName$u20$as$u20$core..fmt..Display$GT$3fmt17h17077a10756a9dedE+0x1346>
    6606:	4d 8d 4c 24 01       	lea    0x1(%r12),%r9
    660b:	48 8d 4b ff          	lea    -0x1(%rbx),%rcx
    660f:	48 8d 05 64 8b 02 00 	lea    0x28b64(%rip),%rax        # 2f17a <_ZN4core7unicode12unicode_data2cc6BITSET17h5201257bcf8f09faE+0x1a>
    6616:	4c 29 e0             	sub    %r12,%rax
    6619:	48 89 44 24 78       	mov    %rax,0x78(%rsp)
    661e:	4d 8d 1c 1c          	lea    (%r12,%rbx,1),%r11
    6622:	49 83 c3 01          	add    $0x1,%r11
    6626:	31 ed                	xor    %ebp,%ebp
    6628:	45 31 ff             	xor    %r15d,%r15d
    662b:	0f 1f 44 00 00       	nopl   0x0(%rax,%rax,1)
    6630:	48 39 e9             	cmp    %rbp,%rcx
    6633:	74 3b                	je     6670 <_ZN71_$LT$backtrace..symbolize..SymbolName$u20$as$u20$core..fmt..Display$GT$3fmt17h17077a10756a9dedE+0x400>
    6635:	49 8d 04 29          	lea    (%r9,%rbp,1),%rax
    6639:	0f b6 38             	movzbl (%rax),%edi
    663c:	83 c7 d0             	add    $0xffffffd0,%edi
    663f:	83 ff 09             	cmp    $0x9,%edi
    6642:	0f 87 f0 0e 00 00    	ja     7538 <_ZN71_$LT$backtrace..symbolize..SymbolName$u20$as$u20$core..fmt..Display$GT$3fmt17h17077a10756a9dedE+0x12c8>
    6648:	4c 89 f8             	mov    %r15,%rax
    664b:	49 f7 e2             	mul    %r10
    664e:	b2 02                	mov    $0x2,%dl
    6650:	0f 80 e4 0e 00 00    	jo     753a <_ZN71_$LT$backtrace..symbolize..SymbolName$u20$as$u20$core..fmt..Display$GT$3fmt17h17077a10756a9dedE+0x12ca>
    6656:	49 89 c7             	mov    %rax,%r15
    6659:	89 f8                	mov    %edi,%eax
    665b:	48 83 c5 01          	add    $0x1,%rbp
    665f:	49 01 c7             	add    %rax,%r15
    6662:	73 cc                	jae    6630 <_ZN71_$LT$backtrace..symbolize..SymbolName$u20$as$u20$core..fmt..Display$GT$3fmt17h17077a10756a9dedE+0x3c0>
    6664:	e9 d1 0e 00 00       	jmpq   753a <_ZN71_$LT$backtrace..symbolize..SymbolName$u20$as$u20$core..fmt..Display$GT$3fmt17h17077a10756a9dedE+0x12ca>
    6669:	0f 1f 80 00 00 00 00 	nopl   0x0(%rax)
    6670:	4c 89 6c 24 18       	mov    %r13,0x18(%rsp)
    6675:	48 89 74 24 20       	mov    %rsi,0x20(%rsp)
    667a:	4c 89 7c 24 08       	mov    %r15,0x8(%rsp)
    667f:	48 89 74 24 10       	mov    %rsi,0x10(%rsp)
    6684:	4d 85 ff             	test   %r15,%r15
    6687:	0f 94 c1             	sete   %cl
    668a:	4d 29 fe             	sub    %r15,%r14
    668d:	49 29 de             	sub    %rbx,%r14
    6690:	0f 94 c0             	sete   %al
    6693:	08 c8                	or     %cl,%al
    6695:	75 17                	jne    66ae <_ZN71_$LT$backtrace..symbolize..SymbolName$u20$as$u20$core..fmt..Display$GT$3fmt17h17077a10756a9dedE+0x43e>
    6697:	4c 39 fe             	cmp    %r15,%rsi
    669a:	0f 86 54 0e 00 00    	jbe    74f4 <_ZN71_$LT$backtrace..symbolize..SymbolName$u20$as$u20$core..fmt..Display$GT$3fmt17h17077a10756a9dedE+0x1284>
    66a0:	4b 8d 0c 3c          	lea    (%r12,%r15,1),%rcx
    66a4:	80 3c 0b bf          	cmpb   $0xbf,(%rbx,%rcx,1)
    66a8:	0f 8e 46 0e 00 00    	jle    74f4 <_ZN71_$LT$backtrace..symbolize..SymbolName$u20$as$u20$core..fmt..Display$GT$3fmt17h17077a10756a9dedE+0x1284>
    66ae:	4c 89 6c 24 30       	mov    %r13,0x30(%rsp)
    66b3:	48 89 74 24 38       	mov    %rsi,0x38(%rsp)
    66b8:	84 c0                	test   %al,%al
    66ba:	75 17                	jne    66d3 <_ZN71_$LT$backtrace..symbolize..SymbolName$u20$as$u20$core..fmt..Display$GT$3fmt17h17077a10756a9dedE+0x463>
    66bc:	4c 39 fe             	cmp    %r15,%rsi
    66bf:	0f 86 e2 0e 00 00    	jbe    75a7 <_ZN71_$LT$backtrace..symbolize..SymbolName$u20$as$u20$core..fmt..Display$GT$3fmt17h17077a10756a9dedE+0x1337>
    66c5:	4b 8d 04 3c          	lea    (%r12,%r15,1),%rax
    66c9:	80 3c 18 bf          	cmpb   $0xbf,(%rax,%rbx,1)
    66cd:	0f 8e d4 0e 00 00    	jle    75a7 <_ZN71_$LT$backtrace..symbolize..SymbolName$u20$as$u20$core..fmt..Display$GT$3fmt17h17077a10756a9dedE+0x1337>
    66d3:	4b 8d 04 2f          	lea    (%r15,%r13,1),%rax
    66d7:	48 89 44 24 68       	mov    %rax,0x68(%rsp)
    66dc:	4d 85 ff             	test   %r15,%r15
    66df:	0f 84 ab 01 00 00    	je     6890 <_ZN71_$LT$backtrace..symbolize..SymbolName$u20$as$u20$core..fmt..Display$GT$3fmt17h17077a10756a9dedE+0x620>
    66e5:	48 8b 84 24 80 00 00 	mov    0x80(%rsp),%rax
    66ec:	00 
    66ed:	48 3b 84 24 90 00 00 	cmp    0x90(%rsp),%rax
    66f4:	00 
    66f5:	0f 85 95 01 00 00    	jne    6890 <_ZN71_$LT$backtrace..symbolize..SymbolName$u20$as$u20$core..fmt..Display$GT$3fmt17h17077a10756a9dedE+0x620>
    66fb:	48 8b 44 24 28       	mov    0x28(%rsp),%rax
    6700:	8b 40 30             	mov    0x30(%rax),%eax
    6703:	83 e0 04             	and    $0x4,%eax
    6706:	0f 84 84 01 00 00    	je     6890 <_ZN71_$LT$backtrace..symbolize..SymbolName$u20$as$u20$core..fmt..Display$GT$3fmt17h17077a10756a9dedE+0x620>
    670c:	41 80 7d 00 68       	cmpb   $0x68,0x0(%r13)
    6711:	0f 85 79 01 00 00    	jne    6890 <_ZN71_$LT$backtrace..symbolize..SymbolName$u20$as$u20$core..fmt..Display$GT$3fmt17h17077a10756a9dedE+0x620>
    6717:	4c 89 6c 24 18       	mov    %r13,0x18(%rsp)
    671c:	4c 89 7c 24 20       	mov    %r15,0x20(%rsp)
    6721:	48 c7 44 24 08 01 00 	movq   $0x1,0x8(%rsp)
    6728:	00 00 
    672a:	4c 89 7c 24 10       	mov    %r15,0x10(%rsp)
    672f:	49 83 ff 01          	cmp    $0x1,%r15
    6733:	0f 84 69 0d 00 00    	je     74a2 <_ZN71_$LT$backtrace..symbolize..SymbolName$u20$as$u20$core..fmt..Display$GT$3fmt17h17077a10756a9dedE+0x1232>
    6739:	41 8a 0b             	mov    (%r11),%cl
    673c:	80 f9 bf             	cmp    $0xbf,%cl
    673f:	0f 8e af 0d 00 00    	jle    74f4 <_ZN71_$LT$backtrace..symbolize..SymbolName$u20$as$u20$core..fmt..Display$GT$3fmt17h17077a10756a9dedE+0x1284>
    6745:	4d 89 f9             	mov    %r15,%r9
    6748:	49 f7 d9             	neg    %r9
    674b:	4c 89 e2             	mov    %r12,%rdx
    674e:	48 f7 da             	neg    %rdx
    6751:	4c 89 de             	mov    %r11,%rsi
    6754:	84 c9                	test   %cl,%cl
    6756:	0f 89 16 01 00 00    	jns    6872 <_ZN71_$LT$backtrace..symbolize..SymbolName$u20$as$u20$core..fmt..Display$GT$3fmt17h17077a10756a9dedE+0x602>
    675c:	0f 1f 40 00          	nopl   0x0(%rax)
    6760:	4a 8d 04 0e          	lea    (%rsi,%r9,1),%rax
    6764:	48 8d 3c 02          	lea    (%rdx,%rax,1),%rdi
    6768:	48 83 c7 01          	add    $0x1,%rdi
    676c:	89 c8                	mov    %ecx,%eax
    676e:	24 1f                	and    $0x1f,%al
    6770:	48 39 df             	cmp    %rbx,%rdi
    6773:	74 4b                	je     67c0 <_ZN71_$LT$backtrace..symbolize..SymbolName$u20$as$u20$core..fmt..Display$GT$3fmt17h17077a10756a9dedE+0x550>
    6775:	0f b6 7e 01          	movzbl 0x1(%rsi),%edi
    6779:	48 83 c6 02          	add    $0x2,%rsi
    677d:	83 e7 3f             	and    $0x3f,%edi
    6780:	0f b6 c0             	movzbl %al,%eax
    6783:	80 f9 df             	cmp    $0xdf,%cl
    6786:	76 47                	jbe    67cf <_ZN71_$LT$backtrace..symbolize..SymbolName$u20$as$u20$core..fmt..Display$GT$3fmt17h17077a10756a9dedE+0x55f>
    6788:	4a 8d 2c 0e          	lea    (%rsi,%r9,1),%rbp
    678c:	48 01 d5             	add    %rdx,%rbp
    678f:	48 39 dd             	cmp    %rbx,%rbp
    6792:	74 76                	je     680a <_ZN71_$LT$backtrace..symbolize..SymbolName$u20$as$u20$core..fmt..Display$GT$3fmt17h17077a10756a9dedE+0x59a>
    6794:	0f b6 2e             	movzbl (%rsi),%ebp
    6797:	48 83 c6 01          	add    $0x1,%rsi
    679b:	83 e5 3f             	and    $0x3f,%ebp
    679e:	c1 e7 06             	shl    $0x6,%edi
    67a1:	09 ef                	or     %ebp,%edi
    67a3:	80 f9 f0             	cmp    $0xf0,%cl
    67a6:	72 73                	jb     681b <_ZN71_$LT$backtrace..symbolize..SymbolName$u20$as$u20$core..fmt..Display$GT$3fmt17h17077a10756a9dedE+0x5ab>
    67a8:	4a 8d 0c 0e          	lea    (%rsi,%r9,1),%rcx
    67ac:	48 01 d1             	add    %rdx,%rcx
    67af:	48 39 d9             	cmp    %rbx,%rcx
    67b2:	74 76                	je     682a <_ZN71_$LT$backtrace..symbolize..SymbolName$u20$as$u20$core..fmt..Display$GT$3fmt17h17077a10756a9dedE+0x5ba>
    67b4:	0f b6 0e             	movzbl (%rsi),%ecx
    67b7:	48 83 c6 01          	add    $0x1,%rsi
    67bb:	83 e1 3f             	and    $0x3f,%ecx
    67be:	eb 71                	jmp    6831 <_ZN71_$LT$backtrace..symbolize..SymbolName$u20$as$u20$core..fmt..Display$GT$3fmt17h17077a10756a9dedE+0x5c1>
    67c0:	31 ff                	xor    %edi,%edi
    67c2:	48 8b 74 24 68       	mov    0x68(%rsp),%rsi
    67c7:	0f b6 c0             	movzbl %al,%eax
    67ca:	80 f9 df             	cmp    $0xdf,%cl
    67cd:	77 b9                	ja     6788 <_ZN71_$LT$backtrace..symbolize..SymbolName$u20$as$u20$core..fmt..Display$GT$3fmt17h17077a10756a9dedE+0x518>
    67cf:	c1 e0 06             	shl    $0x6,%eax
    67d2:	09 c7                	or     %eax,%edi
    67d4:	8d 47 d0             	lea    -0x30(%rdi),%eax
    67d7:	83 f8 0a             	cmp    $0xa,%eax
    67da:	72 7c                	jb     6858 <_ZN71_$LT$backtrace..symbolize..SymbolName$u20$as$u20$core..fmt..Display$GT$3fmt17h17077a10756a9dedE+0x5e8>
    67dc:	0f 1f 40 00          	nopl   0x0(%rax)
    67e0:	8d 4f 9f             	lea    -0x61(%rdi),%ecx
    67e3:	b8 a9 ff ff ff       	mov    $0xffffffa9,%eax
    67e8:	83 f9 1a             	cmp    $0x1a,%ecx
    67eb:	72 11                	jb     67fe <_ZN71_$LT$backtrace..symbolize..SymbolName$u20$as$u20$core..fmt..Display$GT$3fmt17h17077a10756a9dedE+0x58e>
    67ed:	8d 4f bf             	lea    -0x41(%rdi),%ecx
    67f0:	b8 c9 ff ff ff       	mov    $0xffffffc9,%eax
    67f5:	83 f9 19             	cmp    $0x19,%ecx
    67f8:	0f 87 92 00 00 00    	ja     6890 <_ZN71_$LT$backtrace..symbolize..SymbolName$u20$as$u20$core..fmt..Display$GT$3fmt17h17077a10756a9dedE+0x620>
    67fe:	01 c7                	add    %eax,%edi
    6800:	83 ff 0f             	cmp    $0xf,%edi
    6803:	76 53                	jbe    6858 <_ZN71_$LT$backtrace..symbolize..SymbolName$u20$as$u20$core..fmt..Display$GT$3fmt17h17077a10756a9dedE+0x5e8>
    6805:	e9 86 00 00 00       	jmpq   6890 <_ZN71_$LT$backtrace..symbolize..SymbolName$u20$as$u20$core..fmt..Display$GT$3fmt17h17077a10756a9dedE+0x620>
    680a:	31 ed                	xor    %ebp,%ebp
    680c:	48 8b 74 24 68       	mov    0x68(%rsp),%rsi
    6811:	c1 e7 06             	shl    $0x6,%edi
    6814:	09 ef                	or     %ebp,%edi
    6816:	80 f9 f0             	cmp    $0xf0,%cl
    6819:	73 8d                	jae    67a8 <_ZN71_$LT$backtrace..symbolize..SymbolName$u20$as$u20$core..fmt..Display$GT$3fmt17h17077a10756a9dedE+0x538>
    681b:	c1 e0 0c             	shl    $0xc,%eax
    681e:	09 c7                	or     %eax,%edi
    6820:	8d 47 d0             	lea    -0x30(%rdi),%eax
    6823:	83 f8 0a             	cmp    $0xa,%eax
    6826:	73 b8                	jae    67e0 <_ZN71_$LT$backtrace..symbolize..SymbolName$u20$as$u20$core..fmt..Display$GT$3fmt17h17077a10756a9dedE+0x570>
    6828:	eb 2e                	jmp    6858 <_ZN71_$LT$backtrace..symbolize..SymbolName$u20$as$u20$core..fmt..Display$GT$3fmt17h17077a10756a9dedE+0x5e8>
    682a:	31 c9                	xor    %ecx,%ecx
    682c:	48 8b 74 24 68       	mov    0x68(%rsp),%rsi
    6831:	83 e0 07             	and    $0x7,%eax
    6834:	c1 e0 12             	shl    $0x12,%eax
    6837:	c1 e7 06             	shl    $0x6,%edi
    683a:	09 c7                	or     %eax,%edi
    683c:	09 cf                	or     %ecx,%edi
    683e:	81 ff 00 00 11 00    	cmp    $0x110000,%edi
    6844:	0f 84 58 0c 00 00    	je     74a2 <_ZN71_$LT$backtrace..symbolize..SymbolName$u20$as$u20$core..fmt..Display$GT$3fmt17h17077a10756a9dedE+0x1232>
    684a:	66 0f 1f 44 00 00    	nopw   0x0(%rax,%rax,1)
    6850:	8d 47 d0             	lea    -0x30(%rdi),%eax
    6853:	83 f8 0a             	cmp    $0xa,%eax
    6856:	73 88                	jae    67e0 <_ZN71_$LT$backtrace..symbolize..SymbolName$u20$as$u20$core..fmt..Display$GT$3fmt17h17077a10756a9dedE+0x570>
    6858:	4a 8d 04 0e          	lea    (%rsi,%r9,1),%rax
    685c:	48 01 d0             	add    %rdx,%rax
    685f:	48 39 d8             	cmp    %rbx,%rax
    6862:	0f 84 3a 0c 00 00    	je     74a2 <_ZN71_$LT$backtrace..symbolize..SymbolName$u20$as$u20$core..fmt..Display$GT$3fmt17h17077a10756a9dedE+0x1232>
    6868:	8a 0e                	mov    (%rsi),%cl
    686a:	84 c9                	test   %cl,%cl
    686c:	0f 88 ee fe ff ff    	js     6760 <_ZN71_$LT$backtrace..symbolize..SymbolName$u20$as$u20$core..fmt..Display$GT$3fmt17h17077a10756a9dedE+0x4f0>
    6872:	48 83 c6 01          	add    $0x1,%rsi
    6876:	0f b6 f9             	movzbl %cl,%edi
    6879:	8d 47 d0             	lea    -0x30(%rdi),%eax
    687c:	83 f8 0a             	cmp    $0xa,%eax
    687f:	0f 83 5b ff ff ff    	jae    67e0 <_ZN71_$LT$backtrace..symbolize..SymbolName$u20$as$u20$core..fmt..Display$GT$3fmt17h17077a10756a9dedE+0x570>
    6885:	eb d1                	jmp    6858 <_ZN71_$LT$backtrace..symbolize..SymbolName$u20$as$u20$core..fmt..Display$GT$3fmt17h17077a10756a9dedE+0x5e8>
    6887:	66 0f 1f 84 00 00 00 	nopw   0x0(%rax,%rax,1)
    688e:	00 00 
    6890:	4d 85 c0             	test   %r8,%r8
    6893:	74 42                	je     68d7 <_ZN71_$LT$backtrace..symbolize..SymbolName$u20$as$u20$core..fmt..Display$GT$3fmt17h17077a10756a9dedE+0x667>
    6895:	48 8b 44 24 28       	mov    0x28(%rsp),%rax
    689a:	48 8b 78 20          	mov    0x20(%rax),%rdi
    689e:	48 8b 40 28          	mov    0x28(%rax),%rax
    68a2:	ba 02 00 00 00       	mov    $0x2,%edx
    68a7:	48 8d 35 ca 88 02 00 	lea    0x288ca(%rip),%rsi        # 2f178 <_ZN4core7unicode12unicode_data2cc6BITSET17h5201257bcf8f09faE+0x18>
    68ae:	4c 89 dd             	mov    %r11,%rbp
    68b1:	ff 50 18             	callq  *0x18(%rax)
    68b4:	49 89 eb             	mov    %rbp,%r11
    68b7:	66 0f 6f 25 d1 62 02 	movdqa 0x262d1(%rip),%xmm4        # 2cb90 <_fini+0x6c>
    68be:	00 
    68bf:	66 0f 6f 1d b9 62 02 	movdqa 0x262b9(%rip),%xmm3        # 2cb80 <_fini+0x5c>
    68c6:	00 
    68c7:	66 0f 6f 15 a1 62 02 	movdqa 0x262a1(%rip),%xmm2        # 2cb70 <_fini+0x4c>
    68ce:	00 
    68cf:	84 c0                	test   %al,%al
    68d1:	0f 85 05 0c 00 00    	jne    74dc <_ZN71_$LT$backtrace..symbolize..SymbolName$u20$as$u20$core..fmt..Display$GT$3fmt17h17077a10756a9dedE+0x126c>
    68d7:	49 83 ff 02          	cmp    $0x2,%r15
    68db:	72 53                	jb     6930 <_ZN71_$LT$backtrace..symbolize..SymbolName$u20$as$u20$core..fmt..Display$GT$3fmt17h17077a10756a9dedE+0x6c0>
    68dd:	48 8d 05 96 88 02 00 	lea    0x28896(%rip),%rax        # 2f17a <_ZN4core7unicode12unicode_data2cc6BITSET17h5201257bcf8f09faE+0x1a>
    68e4:	48 39 5c 24 78       	cmp    %rbx,0x78(%rsp)
    68e9:	74 10                	je     68fb <_ZN71_$LT$backtrace..symbolize..SymbolName$u20$as$u20$core..fmt..Display$GT$3fmt17h17077a10756a9dedE+0x68b>
    68eb:	41 0f b7 4d 00       	movzwl 0x0(%r13),%ecx
    68f0:	4c 89 e8             	mov    %r13,%rax
    68f3:	81 f9 5f 24 00 00    	cmp    $0x245f,%ecx
    68f9:	75 35                	jne    6930 <_ZN71_$LT$backtrace..symbolize..SymbolName$u20$as$u20$core..fmt..Display$GT$3fmt17h17077a10756a9dedE+0x6c0>
    68fb:	48 89 44 24 18       	mov    %rax,0x18(%rsp)
    6900:	4c 89 7c 24 20       	mov    %r15,0x20(%rsp)
    6905:	48 c7 44 24 08 01 00 	movq   $0x1,0x8(%rsp)
    690c:	00 00 
    690e:	4c 89 7c 24 10       	mov    %r15,0x10(%rsp)
    6913:	41 80 3b bf          	cmpb   $0xbf,(%r11)
    6917:	0f 8e d7 0b 00 00    	jle    74f4 <_ZN71_$LT$backtrace..symbolize..SymbolName$u20$as$u20$core..fmt..Display$GT$3fmt17h17077a10756a9dedE+0x1284>
    691d:	49 83 c7 ff          	add    $0xffffffffffffffff,%r15
    6921:	4d 8d 2c 1c          	lea    (%r12,%rbx,1),%r13
    6925:	49 83 c5 01          	add    $0x1,%r13
    6929:	0f 1f 80 00 00 00 00 	nopl   0x0(%rax)
    6930:	4d 89 fc             	mov    %r15,%r12
    6933:	4d 85 ff             	test   %r15,%r15
    6936:	0f 84 b4 09 00 00    	je     72f0 <_ZN71_$LT$backtrace..symbolize..SymbolName$u20$as$u20$core..fmt..Display$GT$3fmt17h17077a10756a9dedE+0x1080>
    693c:	41 8a 45 00          	mov    0x0(%r13),%al
    6940:	3c 24                	cmp    $0x24,%al
    6942:	0f 84 b8 00 00 00    	je     6a00 <_ZN71_$LT$backtrace..symbolize..SymbolName$u20$as$u20$core..fmt..Display$GT$3fmt17h17077a10756a9dedE+0x790>
    6948:	3c 2e                	cmp    $0x2e,%al
    694a:	0f 85 a0 09 00 00    	jne    72f0 <_ZN71_$LT$backtrace..symbolize..SymbolName$u20$as$u20$core..fmt..Display$GT$3fmt17h17077a10756a9dedE+0x1080>
    6950:	4c 89 6c 24 18       	mov    %r13,0x18(%rsp)
    6955:	4c 89 64 24 20       	mov    %r12,0x20(%rsp)
    695a:	48 c7 44 24 08 01 00 	movq   $0x1,0x8(%rsp)
    6961:	00 00 
    6963:	4c 89 64 24 10       	mov    %r12,0x10(%rsp)
    6968:	49 83 fc 01          	cmp    $0x1,%r12
    696c:	74 0b                	je     6979 <_ZN71_$LT$backtrace..symbolize..SymbolName$u20$as$u20$core..fmt..Display$GT$3fmt17h17077a10756a9dedE+0x709>
    696e:	41 80 7d 01 bf       	cmpb   $0xbf,0x1(%r13)
    6973:	0f 8e 7b 0b 00 00    	jle    74f4 <_ZN71_$LT$backtrace..symbolize..SymbolName$u20$as$u20$core..fmt..Display$GT$3fmt17h17077a10756a9dedE+0x1284>
    6979:	49 83 fc 01          	cmp    $0x1,%r12
    697d:	0f 84 13 04 00 00    	je     6d96 <_ZN71_$LT$backtrace..symbolize..SymbolName$u20$as$u20$core..fmt..Display$GT$3fmt17h17077a10756a9dedE+0xb26>
    6983:	41 0f b6 55 01       	movzbl 0x1(%r13),%edx
    6988:	84 d2                	test   %dl,%dl
    698a:	0f 88 9e 03 00 00    	js     6d2e <_ZN71_$LT$backtrace..symbolize..SymbolName$u20$as$u20$core..fmt..Display$GT$3fmt17h17077a10756a9dedE+0xabe>
    6990:	89 d0                	mov    %edx,%eax
    6992:	83 f8 2e             	cmp    $0x2e,%eax
    6995:	0f 85 fb 03 00 00    	jne    6d96 <_ZN71_$LT$backtrace..symbolize..SymbolName$u20$as$u20$core..fmt..Display$GT$3fmt17h17077a10756a9dedE+0xb26>
    699b:	48 8b 44 24 28       	mov    0x28(%rsp),%rax
    69a0:	48 8b 78 20          	mov    0x20(%rax),%rdi
    69a4:	48 8b 40 28          	mov    0x28(%rax),%rax
    69a8:	ba 02 00 00 00       	mov    $0x2,%edx
    69ad:	48 8d 35 c4 87 02 00 	lea    0x287c4(%rip),%rsi        # 2f178 <_ZN4core7unicode12unicode_data2cc6BITSET17h5201257bcf8f09faE+0x18>
    69b4:	ff 50 18             	callq  *0x18(%rax)
    69b7:	84 c0                	test   %al,%al
    69b9:	0f 85 1d 0b 00 00    	jne    74dc <_ZN71_$LT$backtrace..symbolize..SymbolName$u20$as$u20$core..fmt..Display$GT$3fmt17h17077a10756a9dedE+0x126c>
    69bf:	4c 89 6c 24 18       	mov    %r13,0x18(%rsp)
    69c4:	49 83 c5 02          	add    $0x2,%r13
    69c8:	4c 89 64 24 20       	mov    %r12,0x20(%rsp)
    69cd:	48 c7 44 24 08 02 00 	movq   $0x2,0x8(%rsp)
    69d4:	00 00 
    69d6:	4c 89 64 24 10       	mov    %r12,0x10(%rsp)
    69db:	49 83 fc 02          	cmp    $0x2,%r12
    69df:	74 0b                	je     69ec <_ZN71_$LT$backtrace..symbolize..SymbolName$u20$as$u20$core..fmt..Display$GT$3fmt17h17077a10756a9dedE+0x77c>
    69e1:	41 80 7d 00 bf       	cmpb   $0xbf,0x0(%r13)
    69e6:	0f 8e 08 0b 00 00    	jle    74f4 <_ZN71_$LT$backtrace..symbolize..SymbolName$u20$as$u20$core..fmt..Display$GT$3fmt17h17077a10756a9dedE+0x1284>
    69ec:	49 83 c4 fe          	add    $0xfffffffffffffffe,%r12
    69f0:	e9 f6 03 00 00       	jmpq   6deb <_ZN71_$LT$backtrace..symbolize..SymbolName$u20$as$u20$core..fmt..Display$GT$3fmt17h17077a10756a9dedE+0xb7b>
    69f5:	66 2e 0f 1f 84 00 00 	nopw   %cs:0x0(%rax,%rax,1)
    69fc:	00 00 00 
    69ff:	90                   	nop
    6a00:	4c 89 6c 24 18       	mov    %r13,0x18(%rsp)
    6a05:	4c 89 64 24 20       	mov    %r12,0x20(%rsp)
    6a0a:	48 c7 44 24 08 01 00 	movq   $0x1,0x8(%rsp)
    6a11:	00 00 
    6a13:	4c 89 64 24 10       	mov    %r12,0x10(%rsp)
    6a18:	49 83 fc 01          	cmp    $0x1,%r12
    6a1c:	74 0b                	je     6a29 <_ZN71_$LT$backtrace..symbolize..SymbolName$u20$as$u20$core..fmt..Display$GT$3fmt17h17077a10756a9dedE+0x7b9>
    6a1e:	41 80 7d 01 bf       	cmpb   $0xbf,0x1(%r13)
    6a23:	0f 8e cb 0a 00 00    	jle    74f4 <_ZN71_$LT$backtrace..symbolize..SymbolName$u20$as$u20$core..fmt..Display$GT$3fmt17h17077a10756a9dedE+0x1284>
    6a29:	4d 8d 4d 01          	lea    0x1(%r13),%r9
    6a2d:	4c 89 64 24 60       	mov    %r12,0x60(%rsp)
    6a32:	49 83 c4 ff          	add    $0xffffffffffffffff,%r12
    6a36:	4c 89 4c 24 30       	mov    %r9,0x30(%rsp)
    6a3b:	4c 89 64 24 38       	mov    %r12,0x38(%rsp)
    6a40:	48 c7 44 24 40 00 00 	movq   $0x0,0x40(%rsp)
    6a47:	00 00 
    6a49:	4c 89 64 24 48       	mov    %r12,0x48(%rsp)
    6a4e:	48 b8 24 00 00 00 24 	movabs $0x2400000024,%rax
    6a55:	00 00 00 
    6a58:	48 89 44 24 58       	mov    %rax,0x58(%rsp)
    6a5d:	48 c7 44 24 50 01 00 	movq   $0x1,0x50(%rsp)
    6a64:	00 00 
    6a66:	44 89 c9             	mov    %r9d,%ecx
    6a69:	83 e1 07             	and    $0x7,%ecx
    6a6c:	48 85 c9             	test   %rcx,%rcx
    6a6f:	0f 84 ad 00 00 00    	je     6b22 <_ZN71_$LT$backtrace..symbolize..SymbolName$u20$as$u20$core..fmt..Display$GT$3fmt17h17077a10756a9dedE+0x8b2>
    6a75:	b8 08 00 00 00       	mov    $0x8,%eax
    6a7a:	bf 00 00 00 00       	mov    $0x0,%edi
    6a7f:	48 29 c8             	sub    %rcx,%rax
    6a82:	74 48                	je     6acc <_ZN71_$LT$backtrace..symbolize..SymbolName$u20$as$u20$core..fmt..Display$GT$3fmt17h17077a10756a9dedE+0x85c>
    6a84:	4c 39 e0             	cmp    %r12,%rax
    6a87:	49 0f 47 c4          	cmova  %r12,%rax
    6a8b:	48 89 c2             	mov    %rax,%rdx
    6a8e:	48 f7 da             	neg    %rdx
    6a91:	48 c7 c1 ff ff ff ff 	mov    $0xffffffffffffffff,%rcx
    6a98:	0f 1f 84 00 00 00 00 	nopl   0x0(%rax,%rax,1)
    6a9f:	00 
    6aa0:	48 8d 3c 0a          	lea    (%rdx,%rcx,1),%rdi
    6aa4:	48 83 ff ff          	cmp    $0xffffffffffffffff,%rdi
    6aa8:	74 1f                	je     6ac9 <_ZN71_$LT$backtrace..symbolize..SymbolName$u20$as$u20$core..fmt..Display$GT$3fmt17h17077a10756a9dedE+0x859>
    6aaa:	41 80 7c 0d 02 24    	cmpb   $0x24,0x2(%r13,%rcx,1)
    6ab0:	48 8d 49 01          	lea    0x1(%rcx),%rcx
    6ab4:	75 ea                	jne    6aa0 <_ZN71_$LT$backtrace..symbolize..SymbolName$u20$as$u20$core..fmt..Display$GT$3fmt17h17077a10756a9dedE+0x830>
    6ab6:	0f 94 c0             	sete   %al
    6ab9:	04 01                	add    $0x1,%al
    6abb:	0f b6 d8             	movzbl %al,%ebx
    6abe:	83 e3 01             	and    $0x1,%ebx
    6ac1:	48 01 cb             	add    %rcx,%rbx
    6ac4:	e9 a1 00 00 00       	jmpq   6b6a <_ZN71_$LT$backtrace..symbolize..SymbolName$u20$as$u20$core..fmt..Display$GT$3fmt17h17077a10756a9dedE+0x8fa>
    6ac9:	48 89 c7             	mov    %rax,%rdi
    6acc:	49 83 fc 10          	cmp    $0x10,%r12
    6ad0:	72 58                	jb     6b2a <_ZN71_$LT$backtrace..symbolize..SymbolName$u20$as$u20$core..fmt..Display$GT$3fmt17h17077a10756a9dedE+0x8ba>
    6ad2:	48 8b 44 24 60       	mov    0x60(%rsp),%rax
    6ad7:	48 83 c0 ef          	add    $0xffffffffffffffef,%rax
    6adb:	48 39 c7             	cmp    %rax,%rdi
    6ade:	77 4a                	ja     6b2a <_ZN71_$LT$backtrace..symbolize..SymbolName$u20$as$u20$core..fmt..Display$GT$3fmt17h17077a10756a9dedE+0x8ba>
    6ae0:	f3 41 0f 6f 44 3d 01 	movdqu 0x1(%r13,%rdi,1),%xmm0
    6ae7:	66 0f 6f c8          	movdqa %xmm0,%xmm1
    6aeb:	66 0f ef ca          	pxor   %xmm2,%xmm1
    6aef:	66 0f d4 cb          	paddq  %xmm3,%xmm1
    6af3:	66 0f df c1          	pandn  %xmm1,%xmm0
    6af7:	66 0f db c4          	pand   %xmm4,%xmm0
    6afb:	66 48 0f 7e c1       	movq   %xmm0,%rcx
    6b00:	66 0f 70 c0 4e       	pshufd $0x4e,%xmm0,%xmm0
    6b05:	66 48 0f 7e c2       	movq   %xmm0,%rdx
    6b0a:	48 09 ca             	or     %rcx,%rdx
    6b0d:	75 09                	jne    6b18 <_ZN71_$LT$backtrace..symbolize..SymbolName$u20$as$u20$core..fmt..Display$GT$3fmt17h17077a10756a9dedE+0x8a8>
    6b0f:	48 83 c7 10          	add    $0x10,%rdi
    6b13:	48 39 c7             	cmp    %rax,%rdi
    6b16:	76 c8                	jbe    6ae0 <_ZN71_$LT$backtrace..symbolize..SymbolName$u20$as$u20$core..fmt..Display$GT$3fmt17h17077a10756a9dedE+0x870>
    6b18:	4c 39 e7             	cmp    %r12,%rdi
    6b1b:	76 0d                	jbe    6b2a <_ZN71_$LT$backtrace..symbolize..SymbolName$u20$as$u20$core..fmt..Display$GT$3fmt17h17077a10756a9dedE+0x8ba>
    6b1d:	e9 5e 0a 00 00       	jmpq   7580 <_ZN71_$LT$backtrace..symbolize..SymbolName$u20$as$u20$core..fmt..Display$GT$3fmt17h17077a10756a9dedE+0x1310>
    6b22:	31 ff                	xor    %edi,%edi
    6b24:	49 83 fc 10          	cmp    $0x10,%r12
    6b28:	73 a8                	jae    6ad2 <_ZN71_$LT$backtrace..symbolize..SymbolName$u20$as$u20$core..fmt..Display$GT$3fmt17h17077a10756a9dedE+0x862>
    6b2a:	4a 8d 0c 2f          	lea    (%rdi,%r13,1),%rcx
    6b2e:	48 83 c1 01          	add    $0x1,%rcx
    6b32:	48 89 fa             	mov    %rdi,%rdx
    6b35:	48 f7 d2             	not    %rdx
    6b38:	48 03 54 24 60       	add    0x60(%rsp),%rdx
    6b3d:	31 c0                	xor    %eax,%eax
    6b3f:	90                   	nop
    6b40:	48 39 c2             	cmp    %rax,%rdx
    6b43:	0f 84 b4 f8 ff ff    	je     63fd <_ZN71_$LT$backtrace..symbolize..SymbolName$u20$as$u20$core..fmt..Display$GT$3fmt17h17077a10756a9dedE+0x18d>
    6b49:	80 3c 01 24          	cmpb   $0x24,(%rcx,%rax,1)
    6b4d:	48 8d 40 01          	lea    0x1(%rax),%rax
    6b51:	75 ed                	jne    6b40 <_ZN71_$LT$backtrace..symbolize..SymbolName$u20$as$u20$core..fmt..Display$GT$3fmt17h17077a10756a9dedE+0x8d0>
    6b53:	0f 94 c1             	sete   %cl
    6b56:	80 c1 01             	add    $0x1,%cl
    6b59:	0f b6 c9             	movzbl %cl,%ecx
    6b5c:	83 e1 01             	and    $0x1,%ecx
    6b5f:	48 01 cf             	add    %rcx,%rdi
    6b62:	48 8d 1c 38          	lea    (%rax,%rdi,1),%rbx
    6b66:	48 83 c3 ff          	add    $0xffffffffffffffff,%rbx
    6b6a:	49 8d 6d 02          	lea    0x2(%r13),%rbp
    6b6e:	48 8b 44 24 60       	mov    0x60(%rsp),%rax
    6b73:	48 83 c0 fe          	add    $0xfffffffffffffffe,%rax
    6b77:	48 89 44 24 78       	mov    %rax,0x78(%rsp)
    6b7c:	45 31 ff             	xor    %r15d,%r15d
    6b7f:	48 89 6c 24 70       	mov    %rbp,0x70(%rsp)
    6b84:	eb 1b                	jmp    6ba1 <_ZN71_$LT$backtrace..symbolize..SymbolName$u20$as$u20$core..fmt..Display$GT$3fmt17h17077a10756a9dedE+0x931>
    6b86:	66 2e 0f 1f 84 00 00 	nopw   %cs:0x0(%rax,%rax,1)
    6b8d:	00 00 00 
    6b90:	31 c0                	xor    %eax,%eax
    6b92:	48 01 fb             	add    %rdi,%rbx
    6b95:	4d 89 df             	mov    %r11,%r15
    6b98:	48 85 c0             	test   %rax,%rax
    6b9b:	0f 84 5c f8 ff ff    	je     63fd <_ZN71_$LT$backtrace..symbolize..SymbolName$u20$as$u20$core..fmt..Display$GT$3fmt17h17077a10756a9dedE+0x18d>
    6ba1:	4a 8d 34 3b          	lea    (%rbx,%r15,1),%rsi
    6ba5:	49 89 f3             	mov    %rsi,%r11
    6ba8:	49 ff c3             	inc    %r11
    6bab:	4c 89 5c 24 40       	mov    %r11,0x40(%rsp)
    6bb0:	74 13                	je     6bc5 <_ZN71_$LT$backtrace..symbolize..SymbolName$u20$as$u20$core..fmt..Display$GT$3fmt17h17077a10756a9dedE+0x955>
    6bb2:	4d 39 dc             	cmp    %r11,%r12
    6bb5:	72 0e                	jb     6bc5 <_ZN71_$LT$backtrace..symbolize..SymbolName$u20$as$u20$core..fmt..Display$GT$3fmt17h17077a10756a9dedE+0x955>
    6bb7:	41 8a 04 31          	mov    (%r9,%rsi,1),%al
    6bbb:	3a 44 24 5c          	cmp    0x5c(%rsp),%al
    6bbf:	0f 84 2e 02 00 00    	je     6df3 <_ZN71_$LT$backtrace..symbolize..SymbolName$u20$as$u20$core..fmt..Display$GT$3fmt17h17077a10756a9dedE+0xb83>
    6bc5:	4c 89 e0             	mov    %r12,%rax
    6bc8:	4c 29 d8             	sub    %r11,%rax
    6bcb:	0f 82 31 f8 ff ff    	jb     6402 <_ZN71_$LT$backtrace..symbolize..SymbolName$u20$as$u20$core..fmt..Display$GT$3fmt17h17077a10756a9dedE+0x192>
    6bd1:	4b 8d 0c 19          	lea    (%r9,%r11,1),%rcx
    6bd5:	83 e1 07             	and    $0x7,%ecx
    6bd8:	48 85 c9             	test   %rcx,%rcx
    6bdb:	0f 84 df 00 00 00    	je     6cc0 <_ZN71_$LT$backtrace..symbolize..SymbolName$u20$as$u20$core..fmt..Display$GT$3fmt17h17077a10756a9dedE+0xa50>
    6be1:	41 b8 08 00 00 00    	mov    $0x8,%r8d
    6be7:	bf 00 00 00 00       	mov    $0x0,%edi
    6bec:	49 29 c8             	sub    %rcx,%r8
    6bef:	74 65                	je     6c56 <_ZN71_$LT$backtrace..symbolize..SymbolName$u20$as$u20$core..fmt..Display$GT$3fmt17h17077a10756a9dedE+0x9e6>
    6bf1:	4d 89 ca             	mov    %r9,%r10
    6bf4:	49 39 c0             	cmp    %rax,%r8
    6bf7:	4c 0f 47 c0          	cmova  %rax,%r8
    6bfb:	48 8d 14 2e          	lea    (%rsi,%rbp,1),%rdx
    6bff:	4c 89 c1             	mov    %r8,%rcx
    6c02:	48 f7 d9             	neg    %rcx
    6c05:	48 c7 c7 ff ff ff ff 	mov    $0xffffffffffffffff,%rdi
    6c0c:	0f 1f 40 00          	nopl   0x0(%rax)
    6c10:	4c 8d 0c 39          	lea    (%rcx,%rdi,1),%r9
    6c14:	49 83 f9 ff          	cmp    $0xffffffffffffffff,%r9
    6c18:	74 36                	je     6c50 <_ZN71_$LT$backtrace..symbolize..SymbolName$u20$as$u20$core..fmt..Display$GT$3fmt17h17077a10756a9dedE+0x9e0>
    6c1a:	80 7c 3a 01 24       	cmpb   $0x24,0x1(%rdx,%rdi,1)
    6c1f:	48 8d 7f 01          	lea    0x1(%rdi),%rdi
    6c23:	75 eb                	jne    6c10 <_ZN71_$LT$backtrace..symbolize..SymbolName$u20$as$u20$core..fmt..Display$GT$3fmt17h17077a10756a9dedE+0x9a0>
    6c25:	0f 94 c0             	sete   %al
    6c28:	04 01                	add    $0x1,%al
    6c2a:	0f b6 d8             	movzbl %al,%ebx
    6c2d:	83 e3 01             	and    $0x1,%ebx
    6c30:	48 01 fb             	add    %rdi,%rbx
    6c33:	b8 01 00 00 00       	mov    $0x1,%eax
    6c38:	4d 89 d1             	mov    %r10,%r9
    6c3b:	4d 89 df             	mov    %r11,%r15
    6c3e:	48 85 c0             	test   %rax,%rax
    6c41:	0f 85 5a ff ff ff    	jne    6ba1 <_ZN71_$LT$backtrace..symbolize..SymbolName$u20$as$u20$core..fmt..Display$GT$3fmt17h17077a10756a9dedE+0x931>
    6c47:	e9 b1 f7 ff ff       	jmpq   63fd <_ZN71_$LT$backtrace..symbolize..SymbolName$u20$as$u20$core..fmt..Display$GT$3fmt17h17077a10756a9dedE+0x18d>
    6c4c:	0f 1f 40 00          	nopl   0x0(%rax)
    6c50:	4c 89 c7             	mov    %r8,%rdi
    6c53:	4d 89 d1             	mov    %r10,%r9
    6c56:	48 83 f8 10          	cmp    $0x10,%rax
    6c5a:	72 74                	jb     6cd0 <_ZN71_$LT$backtrace..symbolize..SymbolName$u20$as$u20$core..fmt..Display$GT$3fmt17h17077a10756a9dedE+0xa60>
    6c5c:	48 8d 48 f0          	lea    -0x10(%rax),%rcx
    6c60:	48 39 cf             	cmp    %rcx,%rdi
    6c63:	77 6b                	ja     6cd0 <_ZN71_$LT$backtrace..symbolize..SymbolName$u20$as$u20$core..fmt..Display$GT$3fmt17h17077a10756a9dedE+0xa60>
    6c65:	48 01 ee             	add    %rbp,%rsi
    6c68:	0f 1f 84 00 00 00 00 	nopl   0x0(%rax,%rax,1)
    6c6f:	00 
    6c70:	f3 0f 6f 04 3e       	movdqu (%rsi,%rdi,1),%xmm0
    6c75:	66 0f 6f c8          	movdqa %xmm0,%xmm1
    6c79:	66 0f ef ca          	pxor   %xmm2,%xmm1
    6c7d:	66 0f d4 cb          	paddq  %xmm3,%xmm1
    6c81:	66 0f df c1          	pandn  %xmm1,%xmm0
    6c85:	66 0f db c4          	pand   %xmm4,%xmm0
    6c89:	66 48 0f 7e c2       	movq   %xmm0,%rdx
    6c8e:	66 0f 70 c0 4e       	pshufd $0x4e,%xmm0,%xmm0
    6c93:	66 48 0f 7e c5       	movq   %xmm0,%rbp
    6c98:	48 09 d5             	or     %rdx,%rbp
    6c9b:	75 09                	jne    6ca6 <_ZN71_$LT$backtrace..symbolize..SymbolName$u20$as$u20$core..fmt..Display$GT$3fmt17h17077a10756a9dedE+0xa36>
    6c9d:	48 83 c7 10          	add    $0x10,%rdi
    6ca1:	48 39 cf             	cmp    %rcx,%rdi
    6ca4:	76 ca                	jbe    6c70 <_ZN71_$LT$backtrace..symbolize..SymbolName$u20$as$u20$core..fmt..Display$GT$3fmt17h17077a10756a9dedE+0xa00>
    6ca6:	48 39 c7             	cmp    %rax,%rdi
    6ca9:	0f 87 db 08 00 00    	ja     758a <_ZN71_$LT$backtrace..symbolize..SymbolName$u20$as$u20$core..fmt..Display$GT$3fmt17h17077a10756a9dedE+0x131a>
    6caf:	48 8b 6c 24 70       	mov    0x70(%rsp),%rbp
    6cb4:	eb 1a                	jmp    6cd0 <_ZN71_$LT$backtrace..symbolize..SymbolName$u20$as$u20$core..fmt..Display$GT$3fmt17h17077a10756a9dedE+0xa60>
    6cb6:	66 2e 0f 1f 84 00 00 	nopw   %cs:0x0(%rax,%rax,1)
    6cbd:	00 00 00 
    6cc0:	31 ff                	xor    %edi,%edi
    6cc2:	48 83 f8 10          	cmp    $0x10,%rax
    6cc6:	73 94                	jae    6c5c <_ZN71_$LT$backtrace..symbolize..SymbolName$u20$as$u20$core..fmt..Display$GT$3fmt17h17077a10756a9dedE+0x9ec>
    6cc8:	0f 1f 84 00 00 00 00 	nopl   0x0(%rax,%rax,1)
    6ccf:	00 
    6cd0:	48 01 fb             	add    %rdi,%rbx
    6cd3:	4c 01 fb             	add    %r15,%rbx
    6cd6:	48 8d 04 2b          	lea    (%rbx,%rbp,1),%rax
    6cda:	48 8b 4c 24 78       	mov    0x78(%rsp),%rcx
    6cdf:	48 29 d9             	sub    %rbx,%rcx
    6ce2:	31 db                	xor    %ebx,%ebx
    6ce4:	66 2e 0f 1f 84 00 00 	nopw   %cs:0x0(%rax,%rax,1)
    6ceb:	00 00 00 
    6cee:	66 90                	xchg   %ax,%ax
    6cf0:	48 39 d9             	cmp    %rbx,%rcx
    6cf3:	0f 84 97 fe ff ff    	je     6b90 <_ZN71_$LT$backtrace..symbolize..SymbolName$u20$as$u20$core..fmt..Display$GT$3fmt17h17077a10756a9dedE+0x920>
    6cf9:	80 3c 18 24          	cmpb   $0x24,(%rax,%rbx,1)
    6cfd:	48 8d 5b 01          	lea    0x1(%rbx),%rbx
    6d01:	75 ed                	jne    6cf0 <_ZN71_$LT$backtrace..symbolize..SymbolName$u20$as$u20$core..fmt..Display$GT$3fmt17h17077a10756a9dedE+0xa80>
    6d03:	0f 94 c0             	sete   %al
    6d06:	04 01                	add    $0x1,%al
    6d08:	0f b6 c0             	movzbl %al,%eax
    6d0b:	83 e0 01             	and    $0x1,%eax
    6d0e:	48 01 c3             	add    %rax,%rbx
    6d11:	48 83 c3 ff          	add    $0xffffffffffffffff,%rbx
    6d15:	b8 01 00 00 00       	mov    $0x1,%eax
    6d1a:	48 01 fb             	add    %rdi,%rbx
    6d1d:	4d 89 df             	mov    %r11,%r15
    6d20:	48 85 c0             	test   %rax,%rax
    6d23:	0f 85 78 fe ff ff    	jne    6ba1 <_ZN71_$LT$backtrace..symbolize..SymbolName$u20$as$u20$core..fmt..Display$GT$3fmt17h17077a10756a9dedE+0x931>
    6d29:	e9 cf f6 ff ff       	jmpq   63fd <_ZN71_$LT$backtrace..symbolize..SymbolName$u20$as$u20$core..fmt..Display$GT$3fmt17h17077a10756a9dedE+0x18d>
    6d2e:	4b 8d 34 2c          	lea    (%r12,%r13,1),%rsi
    6d32:	31 c0                	xor    %eax,%eax
    6d34:	48 89 f7             	mov    %rsi,%rdi
    6d37:	49 83 fc 02          	cmp    $0x2,%r12
    6d3b:	74 0c                	je     6d49 <_ZN71_$LT$backtrace..symbolize..SymbolName$u20$as$u20$core..fmt..Display$GT$3fmt17h17077a10756a9dedE+0xad9>
    6d3d:	49 8d 7d 03          	lea    0x3(%r13),%rdi
    6d41:	41 0f b6 45 02       	movzbl 0x2(%r13),%eax
    6d46:	83 e0 3f             	and    $0x3f,%eax
    6d49:	89 d1                	mov    %edx,%ecx
    6d4b:	83 e1 1f             	and    $0x1f,%ecx
    6d4e:	80 fa df             	cmp    $0xdf,%dl
    6d51:	76 35                	jbe    6d88 <_ZN71_$LT$backtrace..symbolize..SymbolName$u20$as$u20$core..fmt..Display$GT$3fmt17h17077a10756a9dedE+0xb18>
    6d53:	48 39 f7             	cmp    %rsi,%rdi
    6d56:	0f 84 3c 01 00 00    	je     6e98 <_ZN71_$LT$backtrace..symbolize..SymbolName$u20$as$u20$core..fmt..Display$GT$3fmt17h17077a10756a9dedE+0xc28>
    6d5c:	0f b6 2f             	movzbl (%rdi),%ebp
    6d5f:	48 83 c7 01          	add    $0x1,%rdi
    6d63:	83 e5 3f             	and    $0x3f,%ebp
    6d66:	c1 e0 06             	shl    $0x6,%eax
    6d69:	09 e8                	or     %ebp,%eax
    6d6b:	80 fa f0             	cmp    $0xf0,%dl
    6d6e:	0f 82 37 01 00 00    	jb     6eab <_ZN71_$LT$backtrace..symbolize..SymbolName$u20$as$u20$core..fmt..Display$GT$3fmt17h17077a10756a9dedE+0xc3b>
    6d74:	48 39 f7             	cmp    %rsi,%rdi
    6d77:	0f 84 19 04 00 00    	je     7196 <_ZN71_$LT$backtrace..symbolize..SymbolName$u20$as$u20$core..fmt..Display$GT$3fmt17h17077a10756a9dedE+0xf26>
    6d7d:	0f b6 17             	movzbl (%rdi),%edx
    6d80:	83 e2 3f             	and    $0x3f,%edx
    6d83:	e9 10 04 00 00       	jmpq   7198 <_ZN71_$LT$backtrace..symbolize..SymbolName$u20$as$u20$core..fmt..Display$GT$3fmt17h17077a10756a9dedE+0xf28>
    6d88:	c1 e1 06             	shl    $0x6,%ecx
    6d8b:	09 c8                	or     %ecx,%eax
    6d8d:	83 f8 2e             	cmp    $0x2e,%eax
    6d90:	0f 84 05 fc ff ff    	je     699b <_ZN71_$LT$backtrace..symbolize..SymbolName$u20$as$u20$core..fmt..Display$GT$3fmt17h17077a10756a9dedE+0x72b>
    6d96:	48 8b 44 24 28       	mov    0x28(%rsp),%rax
    6d9b:	48 8b 78 20          	mov    0x20(%rax),%rdi
    6d9f:	48 8b 40 28          	mov    0x28(%rax),%rax
    6da3:	ba 01 00 00 00       	mov    $0x1,%edx
    6da8:	48 8d 35 7f 88 02 00 	lea    0x2887f(%rip),%rsi        # 2f62e <_ZN4core7unicode12unicode_data2cc6BITSET17h5201257bcf8f09faE+0x4ce>
    6daf:	ff 50 18             	callq  *0x18(%rax)
    6db2:	84 c0                	test   %al,%al
    6db4:	0f 85 22 07 00 00    	jne    74dc <_ZN71_$LT$backtrace..symbolize..SymbolName$u20$as$u20$core..fmt..Display$GT$3fmt17h17077a10756a9dedE+0x126c>
    6dba:	4c 89 6c 24 18       	mov    %r13,0x18(%rsp)
    6dbf:	49 83 c5 01          	add    $0x1,%r13
    6dc3:	4c 89 64 24 20       	mov    %r12,0x20(%rsp)
    6dc8:	48 c7 44 24 08 01 00 	movq   $0x1,0x8(%rsp)
    6dcf:	00 00 
    6dd1:	4c 89 64 24 10       	mov    %r12,0x10(%rsp)
    6dd6:	49 83 fc 01          	cmp    $0x1,%r12
    6dda:	74 0b                	je     6de7 <_ZN71_$LT$backtrace..symbolize..SymbolName$u20$as$u20$core..fmt..Display$GT$3fmt17h17077a10756a9dedE+0xb77>
    6ddc:	41 80 7d 00 bf       	cmpb   $0xbf,0x0(%r13)
    6de1:	0f 8e 0d 07 00 00    	jle    74f4 <_ZN71_$LT$backtrace..symbolize..SymbolName$u20$as$u20$core..fmt..Display$GT$3fmt17h17077a10756a9dedE+0x1284>
    6de7:	49 83 c4 ff          	add    $0xffffffffffffffff,%r12
    6deb:	4d 89 e7             	mov    %r12,%r15
    6dee:	e9 86 06 00 00       	jmpq   7479 <_ZN71_$LT$backtrace..symbolize..SymbolName$u20$as$u20$core..fmt..Display$GT$3fmt17h17077a10756a9dedE+0x1209>
    6df3:	4c 89 6c 24 18       	mov    %r13,0x18(%rsp)
    6df8:	4c 8b 64 24 60       	mov    0x60(%rsp),%r12
    6dfd:	4c 89 64 24 20       	mov    %r12,0x20(%rsp)
    6e02:	48 c7 44 24 08 01 00 	movq   $0x1,0x8(%rsp)
    6e09:	00 00 
    6e0b:	4c 89 5c 24 10       	mov    %r11,0x10(%rsp)
    6e10:	49 83 fc 01          	cmp    $0x1,%r12
    6e14:	74 0a                	je     6e20 <_ZN71_$LT$backtrace..symbolize..SymbolName$u20$as$u20$core..fmt..Display$GT$3fmt17h17077a10756a9dedE+0xbb0>
    6e16:	41 80 39 bf          	cmpb   $0xbf,(%r9)
    6e1a:	0f 8e d4 06 00 00    	jle    74f4 <_ZN71_$LT$backtrace..symbolize..SymbolName$u20$as$u20$core..fmt..Display$GT$3fmt17h17077a10756a9dedE+0x1284>
    6e20:	4d 39 dc             	cmp    %r11,%r12
    6e23:	74 12                	je     6e37 <_ZN71_$LT$backtrace..symbolize..SymbolName$u20$as$u20$core..fmt..Display$GT$3fmt17h17077a10756a9dedE+0xbc7>
    6e25:	0f 86 c9 06 00 00    	jbe    74f4 <_ZN71_$LT$backtrace..symbolize..SymbolName$u20$as$u20$core..fmt..Display$GT$3fmt17h17077a10756a9dedE+0x1284>
    6e2b:	43 80 7c 1d 00 bf    	cmpb   $0xbf,0x0(%r13,%r11,1)
    6e31:	0f 8e bd 06 00 00    	jle    74f4 <_ZN71_$LT$backtrace..symbolize..SymbolName$u20$as$u20$core..fmt..Display$GT$3fmt17h17077a10756a9dedE+0x1284>
    6e37:	48 89 f0             	mov    %rsi,%rax
    6e3a:	4c 89 6c 24 18       	mov    %r13,0x18(%rsp)
    6e3f:	4c 89 64 24 20       	mov    %r12,0x20(%rsp)
    6e44:	4c 89 64 24 10       	mov    %r12,0x10(%rsp)
    6e49:	48 83 c0 02          	add    $0x2,%rax
    6e4d:	48 89 44 24 08       	mov    %rax,0x8(%rsp)
    6e52:	74 17                	je     6e6b <_ZN71_$LT$backtrace..symbolize..SymbolName$u20$as$u20$core..fmt..Display$GT$3fmt17h17077a10756a9dedE+0xbfb>
    6e54:	49 39 c4             	cmp    %rax,%r12
    6e57:	74 12                	je     6e6b <_ZN71_$LT$backtrace..symbolize..SymbolName$u20$as$u20$core..fmt..Display$GT$3fmt17h17077a10756a9dedE+0xbfb>
    6e59:	0f 86 95 06 00 00    	jbe    74f4 <_ZN71_$LT$backtrace..symbolize..SymbolName$u20$as$u20$core..fmt..Display$GT$3fmt17h17077a10756a9dedE+0x1284>
    6e5f:	41 80 7c 05 00 bf    	cmpb   $0xbf,0x0(%r13,%rax,1)
    6e65:	0f 8e 89 06 00 00    	jle    74f4 <_ZN71_$LT$backtrace..symbolize..SymbolName$u20$as$u20$core..fmt..Display$GT$3fmt17h17077a10756a9dedE+0x1284>
    6e6b:	4e 8d 14 28          	lea    (%rax,%r13,1),%r10
    6e6f:	4d 89 e7             	mov    %r12,%r15
    6e72:	49 29 c7             	sub    %rax,%r15
    6e75:	48 83 fe 01          	cmp    $0x1,%rsi
    6e79:	0f 84 6c 01 00 00    	je     6feb <_ZN71_$LT$backtrace..symbolize..SymbolName$u20$as$u20$core..fmt..Display$GT$3fmt17h17077a10756a9dedE+0xd7b>
    6e7f:	48 83 fe 02          	cmp    $0x2,%rsi
    6e83:	74 39                	je     6ebe <_ZN71_$LT$backtrace..symbolize..SymbolName$u20$as$u20$core..fmt..Display$GT$3fmt17h17077a10756a9dedE+0xc4e>
    6e85:	48 85 f6             	test   %rsi,%rsi
    6e88:	0f 84 79 f5 ff ff    	je     6407 <_ZN71_$LT$backtrace..symbolize..SymbolName$u20$as$u20$core..fmt..Display$GT$3fmt17h17077a10756a9dedE+0x197>
    6e8e:	41 8a 09             	mov    (%r9),%cl
    6e91:	31 c0                	xor    %eax,%eax
    6e93:	e9 b7 01 00 00       	jmpq   704f <_ZN71_$LT$backtrace..symbolize..SymbolName$u20$as$u20$core..fmt..Display$GT$3fmt17h17077a10756a9dedE+0xddf>
    6e98:	31 ed                	xor    %ebp,%ebp
    6e9a:	48 89 f7             	mov    %rsi,%rdi
    6e9d:	c1 e0 06             	shl    $0x6,%eax
    6ea0:	09 e8                	or     %ebp,%eax
    6ea2:	80 fa f0             	cmp    $0xf0,%dl
    6ea5:	0f 83 c9 fe ff ff    	jae    6d74 <_ZN71_$LT$backtrace..symbolize..SymbolName$u20$as$u20$core..fmt..Display$GT$3fmt17h17077a10756a9dedE+0xb04>
    6eab:	c1 e1 0c             	shl    $0xc,%ecx
    6eae:	09 c8                	or     %ecx,%eax
    6eb0:	83 f8 2e             	cmp    $0x2e,%eax
    6eb3:	0f 84 e2 fa ff ff    	je     699b <_ZN71_$LT$backtrace..symbolize..SymbolName$u20$as$u20$core..fmt..Display$GT$3fmt17h17077a10756a9dedE+0x72b>
    6eb9:	e9 d8 fe ff ff       	jmpq   6d96 <_ZN71_$LT$backtrace..symbolize..SymbolName$u20$as$u20$core..fmt..Display$GT$3fmt17h17077a10756a9dedE+0xb26>
    6ebe:	48 8d 2d c6 82 02 00 	lea    0x282c6(%rip),%rbp        # 2f18b <_ZN4core7unicode12unicode_data2cc6BITSET17h5201257bcf8f09faE+0x2b>
    6ec5:	48 8d 05 b0 82 02 00 	lea    0x282b0(%rip),%rax        # 2f17c <_ZN4core7unicode12unicode_data2cc6BITSET17h5201257bcf8f09faE+0x1c>
    6ecc:	49 39 c1             	cmp    %rax,%r9
    6ecf:	0f 84 3a 01 00 00    	je     700f <_ZN71_$LT$backtrace..symbolize..SymbolName$u20$as$u20$core..fmt..Display$GT$3fmt17h17077a10756a9dedE+0xd9f>
    6ed5:	41 0f b7 01          	movzwl (%r9),%eax
    6ed9:	48 8d 2d ab 82 02 00 	lea    0x282ab(%rip),%rbp        # 2f18b <_ZN4core7unicode12unicode_data2cc6BITSET17h5201257bcf8f09faE+0x2b>
    6ee0:	3d 53 50 00 00       	cmp    $0x5053,%eax
    6ee5:	0f 84 24 01 00 00    	je     700f <_ZN71_$LT$backtrace..symbolize..SymbolName$u20$as$u20$core..fmt..Display$GT$3fmt17h17077a10756a9dedE+0xd9f>
    6eeb:	48 8d 2d 9a 82 02 00 	lea    0x2829a(%rip),%rbp        # 2f18c <_ZN4core7unicode12unicode_data2cc6BITSET17h5201257bcf8f09faE+0x2c>
    6ef2:	48 8d 05 85 82 02 00 	lea    0x28285(%rip),%rax        # 2f17e <_ZN4core7unicode12unicode_data2cc6BITSET17h5201257bcf8f09faE+0x1e>
    6ef9:	49 39 c1             	cmp    %rax,%r9
    6efc:	0f 84 0d 01 00 00    	je     700f <_ZN71_$LT$backtrace..symbolize..SymbolName$u20$as$u20$core..fmt..Display$GT$3fmt17h17077a10756a9dedE+0xd9f>
    6f02:	41 0f b7 01          	movzwl (%r9),%eax
    6f06:	48 8d 2d 7f 82 02 00 	lea    0x2827f(%rip),%rbp        # 2f18c <_ZN4core7unicode12unicode_data2cc6BITSET17h5201257bcf8f09faE+0x2c>
    6f0d:	3d 42 50 00 00       	cmp    $0x5042,%eax
    6f12:	0f 84 f7 00 00 00    	je     700f <_ZN71_$LT$backtrace..symbolize..SymbolName$u20$as$u20$core..fmt..Display$GT$3fmt17h17077a10756a9dedE+0xd9f>
    6f18:	48 8d 2d 6e 82 02 00 	lea    0x2826e(%rip),%rbp        # 2f18d <_ZN4core7unicode12unicode_data2cc6BITSET17h5201257bcf8f09faE+0x2d>
    6f1f:	48 8d 05 5a 82 02 00 	lea    0x2825a(%rip),%rax        # 2f180 <_ZN4core7unicode12unicode_data2cc6BITSET17h5201257bcf8f09faE+0x20>
    6f26:	49 39 c1             	cmp    %rax,%r9
    6f29:	0f 84 e0 00 00 00    	je     700f <_ZN71_$LT$backtrace..symbolize..SymbolName$u20$as$u20$core..fmt..Display$GT$3fmt17h17077a10756a9dedE+0xd9f>
    6f2f:	41 0f b7 01          	movzwl (%r9),%eax
    6f33:	48 8d 2d 53 82 02 00 	lea    0x28253(%rip),%rbp        # 2f18d <_ZN4core7unicode12unicode_data2cc6BITSET17h5201257bcf8f09faE+0x2d>
    6f3a:	3d 52 46 00 00       	cmp    $0x4652,%eax
    6f3f:	0f 84 ca 00 00 00    	je     700f <_ZN71_$LT$backtrace..symbolize..SymbolName$u20$as$u20$core..fmt..Display$GT$3fmt17h17077a10756a9dedE+0xd9f>
    6f45:	48 8d 2d 42 82 02 00 	lea    0x28242(%rip),%rbp        # 2f18e <_ZN4core7unicode12unicode_data2cc6BITSET17h5201257bcf8f09faE+0x2e>
    6f4c:	48 8d 05 2f 82 02 00 	lea    0x2822f(%rip),%rax        # 2f182 <_ZN4core7unicode12unicode_data2cc6BITSET17h5201257bcf8f09faE+0x22>
    6f53:	49 39 c1             	cmp    %rax,%r9
    6f56:	0f 84 b3 00 00 00    	je     700f <_ZN71_$LT$backtrace..symbolize..SymbolName$u20$as$u20$core..fmt..Display$GT$3fmt17h17077a10756a9dedE+0xd9f>
    6f5c:	41 0f b7 01          	movzwl (%r9),%eax
    6f60:	48 8d 2d 27 82 02 00 	lea    0x28227(%rip),%rbp        # 2f18e <_ZN4core7unicode12unicode_data2cc6BITSET17h5201257bcf8f09faE+0x2e>
    6f67:	3d 4c 54 00 00       	cmp    $0x544c,%eax
    6f6c:	0f 84 9d 00 00 00    	je     700f <_ZN71_$LT$backtrace..symbolize..SymbolName$u20$as$u20$core..fmt..Display$GT$3fmt17h17077a10756a9dedE+0xd9f>
    6f72:	48 8d 2d 16 82 02 00 	lea    0x28216(%rip),%rbp        # 2f18f <_ZN4core7unicode12unicode_data2cc6BITSET17h5201257bcf8f09faE+0x2f>
    6f79:	48 8d 05 04 82 02 00 	lea    0x28204(%rip),%rax        # 2f184 <_ZN4core7unicode12unicode_data2cc6BITSET17h5201257bcf8f09faE+0x24>
    6f80:	49 39 c1             	cmp    %rax,%r9
    6f83:	0f 84 86 00 00 00    	je     700f <_ZN71_$LT$backtrace..symbolize..SymbolName$u20$as$u20$core..fmt..Display$GT$3fmt17h17077a10756a9dedE+0xd9f>
    6f89:	41 0f b7 01          	movzwl (%r9),%eax
    6f8d:	48 8d 2d fb 81 02 00 	lea    0x281fb(%rip),%rbp        # 2f18f <_ZN4core7unicode12unicode_data2cc6BITSET17h5201257bcf8f09faE+0x2f>
    6f94:	3d 47 54 00 00       	cmp    $0x5447,%eax
    6f99:	74 74                	je     700f <_ZN71_$LT$backtrace..symbolize..SymbolName$u20$as$u20$core..fmt..Display$GT$3fmt17h17077a10756a9dedE+0xd9f>
    6f9b:	48 8d 2d ee 81 02 00 	lea    0x281ee(%rip),%rbp        # 2f190 <_ZN4core7unicode12unicode_data2cc6BITSET17h5201257bcf8f09faE+0x30>
    6fa2:	48 8d 05 dd 81 02 00 	lea    0x281dd(%rip),%rax        # 2f186 <_ZN4core7unicode12unicode_data2cc6BITSET17h5201257bcf8f09faE+0x26>
    6fa9:	49 39 c1             	cmp    %rax,%r9
    6fac:	74 61                	je     700f <_ZN71_$LT$backtrace..symbolize..SymbolName$u20$as$u20$core..fmt..Display$GT$3fmt17h17077a10756a9dedE+0xd9f>
    6fae:	41 0f b7 01          	movzwl (%r9),%eax
    6fb2:	48 8d 2d d7 81 02 00 	lea    0x281d7(%rip),%rbp        # 2f190 <_ZN4core7unicode12unicode_data2cc6BITSET17h5201257bcf8f09faE+0x30>
    6fb9:	3d 4c 50 00 00       	cmp    $0x504c,%eax
    6fbe:	74 4f                	je     700f <_ZN71_$LT$backtrace..symbolize..SymbolName$u20$as$u20$core..fmt..Display$GT$3fmt17h17077a10756a9dedE+0xd9f>
    6fc0:	48 8d 2d 09 89 02 00 	lea    0x28909(%rip),%rbp        # 2f8d0 <_ZN4core7unicode12unicode_data2cc6BITSET17h5201257bcf8f09faE+0x770>
    6fc7:	48 8d 05 ba 81 02 00 	lea    0x281ba(%rip),%rax        # 2f188 <_ZN4core7unicode12unicode_data2cc6BITSET17h5201257bcf8f09faE+0x28>
    6fce:	49 39 c1             	cmp    %rax,%r9
    6fd1:	74 3c                	je     700f <_ZN71_$LT$backtrace..symbolize..SymbolName$u20$as$u20$core..fmt..Display$GT$3fmt17h17077a10756a9dedE+0xd9f>
    6fd3:	41 0f b7 01          	movzwl (%r9),%eax
    6fd7:	48 8d 2d f2 88 02 00 	lea    0x288f2(%rip),%rbp        # 2f8d0 <_ZN4core7unicode12unicode_data2cc6BITSET17h5201257bcf8f09faE+0x770>
    6fde:	3d 52 50 00 00       	cmp    $0x5052,%eax
    6fe3:	0f 85 a5 fe ff ff    	jne    6e8e <_ZN71_$LT$backtrace..symbolize..SymbolName$u20$as$u20$core..fmt..Display$GT$3fmt17h17077a10756a9dedE+0xc1e>
    6fe9:	eb 24                	jmp    700f <_ZN71_$LT$backtrace..symbolize..SymbolName$u20$as$u20$core..fmt..Display$GT$3fmt17h17077a10756a9dedE+0xd9f>
    6feb:	48 8d 2d 9f 81 02 00 	lea    0x2819f(%rip),%rbp        # 2f191 <_ZN4core7unicode12unicode_data2cc6BITSET17h5201257bcf8f09faE+0x31>
    6ff2:	48 8d 05 91 81 02 00 	lea    0x28191(%rip),%rax        # 2f18a <_ZN4core7unicode12unicode_data2cc6BITSET17h5201257bcf8f09faE+0x2a>
    6ff9:	49 39 c1             	cmp    %rax,%r9
    6ffc:	74 11                	je     700f <_ZN71_$LT$backtrace..symbolize..SymbolName$u20$as$u20$core..fmt..Display$GT$3fmt17h17077a10756a9dedE+0xd9f>
    6ffe:	41 8a 09             	mov    (%r9),%cl
    7001:	b0 01                	mov    $0x1,%al
    7003:	48 8d 2d 87 81 02 00 	lea    0x28187(%rip),%rbp        # 2f191 <_ZN4core7unicode12unicode_data2cc6BITSET17h5201257bcf8f09faE+0x31>
    700a:	80 f9 43             	cmp    $0x43,%cl
    700d:	75 40                	jne    704f <_ZN71_$LT$backtrace..symbolize..SymbolName$u20$as$u20$core..fmt..Display$GT$3fmt17h17077a10756a9dedE+0xddf>
    700f:	48 8b 44 24 28       	mov    0x28(%rsp),%rax
    7014:	48 8b 78 20          	mov    0x20(%rax),%rdi
    7018:	48 8b 40 28          	mov    0x28(%rax),%rax
    701c:	ba 01 00 00 00       	mov    $0x1,%edx
    7021:	48 89 ee             	mov    %rbp,%rsi
    7024:	4d 89 d5             	mov    %r10,%r13
    7027:	ff 50 18             	callq  *0x18(%rax)
    702a:	66 0f 6f 25 5e 5b 02 	movdqa 0x25b5e(%rip),%xmm4        # 2cb90 <_fini+0x6c>
    7031:	00 
    7032:	66 0f 6f 1d 46 5b 02 	movdqa 0x25b46(%rip),%xmm3        # 2cb80 <_fini+0x5c>
    7039:	00 
    703a:	66 0f 6f 15 2e 5b 02 	movdqa 0x25b2e(%rip),%xmm2        # 2cb70 <_fini+0x4c>
    7041:	00 
    7042:	84 c0                	test   %al,%al
    7044:	0f 84 e6 f8 ff ff    	je     6930 <_ZN71_$LT$backtrace..symbolize..SymbolName$u20$as$u20$core..fmt..Display$GT$3fmt17h17077a10756a9dedE+0x6c0>
    704a:	e9 8d 04 00 00       	jmpq   74dc <_ZN71_$LT$backtrace..symbolize..SymbolName$u20$as$u20$core..fmt..Display$GT$3fmt17h17077a10756a9dedE+0x126c>
    704f:	80 f9 75             	cmp    $0x75,%cl
    7052:	0f 85 af f3 ff ff    	jne    6407 <_ZN71_$LT$backtrace..symbolize..SymbolName$u20$as$u20$core..fmt..Display$GT$3fmt17h17077a10756a9dedE+0x197>
    7058:	4c 89 4c 24 18       	mov    %r9,0x18(%rsp)
    705d:	48 89 74 24 20       	mov    %rsi,0x20(%rsp)
    7062:	48 c7 44 24 08 01 00 	movq   $0x1,0x8(%rsp)
    7069:	00 00 
    706b:	48 89 74 24 10       	mov    %rsi,0x10(%rsp)
    7070:	84 c0                	test   %al,%al
    7072:	75 15                	jne    7089 <_ZN71_$LT$backtrace..symbolize..SymbolName$u20$as$u20$core..fmt..Display$GT$3fmt17h17077a10756a9dedE+0xe19>
    7074:	48 83 fe 02          	cmp    $0x2,%rsi
    7078:	0f 82 76 04 00 00    	jb     74f4 <_ZN71_$LT$backtrace..symbolize..SymbolName$u20$as$u20$core..fmt..Display$GT$3fmt17h17077a10756a9dedE+0x1284>
    707e:	41 80 7d 02 bf       	cmpb   $0xbf,0x2(%r13)
    7083:	0f 8e 6b 04 00 00    	jle    74f4 <_ZN71_$LT$backtrace..symbolize..SymbolName$u20$as$u20$core..fmt..Display$GT$3fmt17h17077a10756a9dedE+0x1284>
    7089:	4c 8d 46 ff          	lea    -0x1(%rsi),%r8
    708d:	4a 8d 04 2e          	lea    (%rsi,%r13,1),%rax
    7091:	48 83 c0 01          	add    $0x1,%rax
    7095:	48 8b 54 24 70       	mov    0x70(%rsp),%rdx
    709a:	48 39 c2             	cmp    %rax,%rdx
    709d:	75 27                	jne    70c6 <_ZN71_$LT$backtrace..symbolize..SymbolName$u20$as$u20$core..fmt..Display$GT$3fmt17h17077a10756a9dedE+0xe56>
    709f:	e9 e6 00 00 00       	jmpq   718a <_ZN71_$LT$backtrace..symbolize..SymbolName$u20$as$u20$core..fmt..Display$GT$3fmt17h17077a10756a9dedE+0xf1a>
    70a4:	c1 e3 06             	shl    $0x6,%ebx
    70a7:	09 df                	or     %ebx,%edi
    70a9:	8d 4f 9f             	lea    -0x61(%rdi),%ecx
    70ac:	83 f9 06             	cmp    $0x6,%ecx
    70af:	72 0c                	jb     70bd <_ZN71_$LT$backtrace..symbolize..SymbolName$u20$as$u20$core..fmt..Display$GT$3fmt17h17077a10756a9dedE+0xe4d>
    70b1:	83 c7 d0             	add    $0xffffffd0,%edi
    70b4:	83 ff 0a             	cmp    $0xa,%edi
    70b7:	0f 83 f6 00 00 00    	jae    71b3 <_ZN71_$LT$backtrace..symbolize..SymbolName$u20$as$u20$core..fmt..Display$GT$3fmt17h17077a10756a9dedE+0xf43>
    70bd:	48 39 c2             	cmp    %rax,%rdx
    70c0:	0f 84 c4 00 00 00    	je     718a <_ZN71_$LT$backtrace..symbolize..SymbolName$u20$as$u20$core..fmt..Display$GT$3fmt17h17077a10756a9dedE+0xf1a>
    70c6:	48 8d 4a 01          	lea    0x1(%rdx),%rcx
    70ca:	0f b6 2a             	movzbl (%rdx),%ebp
    70cd:	40 84 ed             	test   %bpl,%bpl
    70d0:	78 0f                	js     70e1 <_ZN71_$LT$backtrace..symbolize..SymbolName$u20$as$u20$core..fmt..Display$GT$3fmt17h17077a10756a9dedE+0xe71>
    70d2:	48 89 ca             	mov    %rcx,%rdx
    70d5:	89 ef                	mov    %ebp,%edi
    70d7:	8d 4f 9f             	lea    -0x61(%rdi),%ecx
    70da:	83 f9 06             	cmp    $0x6,%ecx
    70dd:	73 d2                	jae    70b1 <_ZN71_$LT$backtrace..symbolize..SymbolName$u20$as$u20$core..fmt..Display$GT$3fmt17h17077a10756a9dedE+0xe41>
    70df:	eb dc                	jmp    70bd <_ZN71_$LT$backtrace..symbolize..SymbolName$u20$as$u20$core..fmt..Display$GT$3fmt17h17077a10756a9dedE+0xe4d>
    70e1:	48 39 c1             	cmp    %rax,%rcx
    70e4:	74 18                	je     70fe <_ZN71_$LT$backtrace..symbolize..SymbolName$u20$as$u20$core..fmt..Display$GT$3fmt17h17077a10756a9dedE+0xe8e>
    70e6:	0f b6 7a 01          	movzbl 0x1(%rdx),%edi
    70ea:	48 83 c2 02          	add    $0x2,%rdx
    70ee:	83 e7 3f             	and    $0x3f,%edi
    70f1:	89 eb                	mov    %ebp,%ebx
    70f3:	83 e3 1f             	and    $0x1f,%ebx
    70f6:	40 80 fd df          	cmp    $0xdf,%bpl
    70fa:	76 a8                	jbe    70a4 <_ZN71_$LT$backtrace..symbolize..SymbolName$u20$as$u20$core..fmt..Display$GT$3fmt17h17077a10756a9dedE+0xe34>
    70fc:	eb 10                	jmp    710e <_ZN71_$LT$backtrace..symbolize..SymbolName$u20$as$u20$core..fmt..Display$GT$3fmt17h17077a10756a9dedE+0xe9e>
    70fe:	31 ff                	xor    %edi,%edi
    7100:	48 89 c2             	mov    %rax,%rdx
    7103:	89 eb                	mov    %ebp,%ebx
    7105:	83 e3 1f             	and    $0x1f,%ebx
    7108:	40 80 fd df          	cmp    $0xdf,%bpl
    710c:	76 96                	jbe    70a4 <_ZN71_$LT$backtrace..symbolize..SymbolName$u20$as$u20$core..fmt..Display$GT$3fmt17h17077a10756a9dedE+0xe34>
    710e:	48 39 c2             	cmp    %rax,%rdx
    7111:	74 26                	je     7139 <_ZN71_$LT$backtrace..symbolize..SymbolName$u20$as$u20$core..fmt..Display$GT$3fmt17h17077a10756a9dedE+0xec9>
    7113:	0f b6 0a             	movzbl (%rdx),%ecx
    7116:	48 83 c2 01          	add    $0x1,%rdx
    711a:	83 e1 3f             	and    $0x3f,%ecx
    711d:	c1 e7 06             	shl    $0x6,%edi
    7120:	09 cf                	or     %ecx,%edi
    7122:	40 80 fd f0          	cmp    $0xf0,%bpl
    7126:	72 21                	jb     7149 <_ZN71_$LT$backtrace..symbolize..SymbolName$u20$as$u20$core..fmt..Display$GT$3fmt17h17077a10756a9dedE+0xed9>
    7128:	48 39 c2             	cmp    %rax,%rdx
    712b:	74 32                	je     715f <_ZN71_$LT$backtrace..symbolize..SymbolName$u20$as$u20$core..fmt..Display$GT$3fmt17h17077a10756a9dedE+0xeef>
    712d:	0f b6 0a             	movzbl (%rdx),%ecx
    7130:	48 83 c2 01          	add    $0x1,%rdx
    7134:	83 e1 3f             	and    $0x3f,%ecx
    7137:	eb 2b                	jmp    7164 <_ZN71_$LT$backtrace..symbolize..SymbolName$u20$as$u20$core..fmt..Display$GT$3fmt17h17077a10756a9dedE+0xef4>
    7139:	31 c9                	xor    %ecx,%ecx
    713b:	48 89 c2             	mov    %rax,%rdx
    713e:	c1 e7 06             	shl    $0x6,%edi
    7141:	09 cf                	or     %ecx,%edi
    7143:	40 80 fd f0          	cmp    $0xf0,%bpl
    7147:	73 df                	jae    7128 <_ZN71_$LT$backtrace..symbolize..SymbolName$u20$as$u20$core..fmt..Display$GT$3fmt17h17077a10756a9dedE+0xeb8>
    7149:	c1 e3 0c             	shl    $0xc,%ebx
    714c:	09 df                	or     %ebx,%edi
    714e:	8d 4f 9f             	lea    -0x61(%rdi),%ecx
    7151:	83 f9 06             	cmp    $0x6,%ecx
    7154:	0f 83 57 ff ff ff    	jae    70b1 <_ZN71_$LT$backtrace..symbolize..SymbolName$u20$as$u20$core..fmt..Display$GT$3fmt17h17077a10756a9dedE+0xe41>
    715a:	e9 5e ff ff ff       	jmpq   70bd <_ZN71_$LT$backtrace..symbolize..SymbolName$u20$as$u20$core..fmt..Display$GT$3fmt17h17077a10756a9dedE+0xe4d>
    715f:	31 c9                	xor    %ecx,%ecx
    7161:	48 89 c2             	mov    %rax,%rdx
    7164:	83 e3 07             	and    $0x7,%ebx
    7167:	c1 e3 12             	shl    $0x12,%ebx
    716a:	c1 e7 06             	shl    $0x6,%edi
    716d:	09 df                	or     %ebx,%edi
    716f:	09 cf                	or     %ecx,%edi
    7171:	81 ff 00 00 11 00    	cmp    $0x110000,%edi
    7177:	74 11                	je     718a <_ZN71_$LT$backtrace..symbolize..SymbolName$u20$as$u20$core..fmt..Display$GT$3fmt17h17077a10756a9dedE+0xf1a>
    7179:	8d 4f 9f             	lea    -0x61(%rdi),%ecx
    717c:	83 f9 06             	cmp    $0x6,%ecx
    717f:	0f 83 2c ff ff ff    	jae    70b1 <_ZN71_$LT$backtrace..symbolize..SymbolName$u20$as$u20$core..fmt..Display$GT$3fmt17h17077a10756a9dedE+0xe41>
    7185:	e9 33 ff ff ff       	jmpq   70bd <_ZN71_$LT$backtrace..symbolize..SymbolName$u20$as$u20$core..fmt..Display$GT$3fmt17h17077a10756a9dedE+0xe4d>
    718a:	31 ff                	xor    %edi,%edi
    718c:	4d 85 c0             	test   %r8,%r8
    718f:	75 2e                	jne    71bf <_ZN71_$LT$backtrace..symbolize..SymbolName$u20$as$u20$core..fmt..Display$GT$3fmt17h17077a10756a9dedE+0xf4f>
    7191:	e9 71 f2 ff ff       	jmpq   6407 <_ZN71_$LT$backtrace..symbolize..SymbolName$u20$as$u20$core..fmt..Display$GT$3fmt17h17077a10756a9dedE+0x197>
    7196:	31 d2                	xor    %edx,%edx
    7198:	83 e1 07             	and    $0x7,%ecx
    719b:	c1 e1 12             	shl    $0x12,%ecx
    719e:	c1 e0 06             	shl    $0x6,%eax
    71a1:	09 c8                	or     %ecx,%eax
    71a3:	09 d0                	or     %edx,%eax
    71a5:	83 f8 2e             	cmp    $0x2e,%eax
    71a8:	0f 84 ed f7 ff ff    	je     699b <_ZN71_$LT$backtrace..symbolize..SymbolName$u20$as$u20$core..fmt..Display$GT$3fmt17h17077a10756a9dedE+0x72b>
    71ae:	e9 e3 fb ff ff       	jmpq   6d96 <_ZN71_$LT$backtrace..symbolize..SymbolName$u20$as$u20$core..fmt..Display$GT$3fmt17h17077a10756a9dedE+0xb26>
    71b3:	40 b7 01             	mov    $0x1,%dil
    71b6:	4d 85 c0             	test   %r8,%r8
    71b9:	0f 84 48 f2 ff ff    	je     6407 <_ZN71_$LT$backtrace..symbolize..SymbolName$u20$as$u20$core..fmt..Display$GT$3fmt17h17077a10756a9dedE+0x197>
    71bf:	48 8b 5c 24 70       	mov    0x70(%rsp),%rbx
    71c4:	80 3b 2b             	cmpb   $0x2b,(%rbx)
    71c7:	75 11                	jne    71da <_ZN71_$LT$backtrace..symbolize..SymbolName$u20$as$u20$core..fmt..Display$GT$3fmt17h17077a10756a9dedE+0xf6a>
    71c9:	48 83 c6 fe          	add    $0xfffffffffffffffe,%rsi
    71cd:	0f 84 34 f2 ff ff    	je     6407 <_ZN71_$LT$backtrace..symbolize..SymbolName$u20$as$u20$core..fmt..Display$GT$3fmt17h17077a10756a9dedE+0x197>
    71d3:	49 8d 5d 03          	lea    0x3(%r13),%rbx
    71d7:	49 89 f0             	mov    %rsi,%r8
    71da:	31 c9                	xor    %ecx,%ecx
    71dc:	31 c0                	xor    %eax,%eax
    71de:	49 39 c8             	cmp    %rcx,%r8
    71e1:	74 57                	je     723a <_ZN71_$LT$backtrace..symbolize..SymbolName$u20$as$u20$core..fmt..Display$GT$3fmt17h17077a10756a9dedE+0xfca>
    71e3:	0f b6 14 0b          	movzbl (%rbx,%rcx,1),%edx
    71e7:	8d 6a d0             	lea    -0x30(%rdx),%ebp
    71ea:	83 fd 0a             	cmp    $0xa,%ebp
    71ed:	72 31                	jb     7220 <_ZN71_$LT$backtrace..symbolize..SymbolName$u20$as$u20$core..fmt..Display$GT$3fmt17h17077a10756a9dedE+0xfb0>
    71ef:	8d 72 9f             	lea    -0x61(%rdx),%esi
    71f2:	83 fe 1a             	cmp    $0x1a,%esi
    71f5:	73 0f                	jae    7206 <_ZN71_$LT$backtrace..symbolize..SymbolName$u20$as$u20$core..fmt..Display$GT$3fmt17h17077a10756a9dedE+0xf96>
    71f7:	83 c2 a9             	add    $0xffffffa9,%edx
    71fa:	89 d5                	mov    %edx,%ebp
    71fc:	83 fa 0f             	cmp    $0xf,%edx
    71ff:	76 1f                	jbe    7220 <_ZN71_$LT$backtrace..symbolize..SymbolName$u20$as$u20$core..fmt..Display$GT$3fmt17h17077a10756a9dedE+0xfb0>
    7201:	e9 01 f2 ff ff       	jmpq   6407 <_ZN71_$LT$backtrace..symbolize..SymbolName$u20$as$u20$core..fmt..Display$GT$3fmt17h17077a10756a9dedE+0x197>
    7206:	8d 72 bf             	lea    -0x41(%rdx),%esi
    7209:	83 fe 1a             	cmp    $0x1a,%esi
    720c:	0f 83 f5 f1 ff ff    	jae    6407 <_ZN71_$LT$backtrace..symbolize..SymbolName$u20$as$u20$core..fmt..Display$GT$3fmt17h17077a10756a9dedE+0x197>
    7212:	83 c2 c9             	add    $0xffffffc9,%edx
    7215:	89 d5                	mov    %edx,%ebp
    7217:	83 fa 0f             	cmp    $0xf,%edx
    721a:	0f 87 e7 f1 ff ff    	ja     6407 <_ZN71_$LT$backtrace..symbolize..SymbolName$u20$as$u20$core..fmt..Display$GT$3fmt17h17077a10756a9dedE+0x197>
    7220:	ba 10 00 00 00       	mov    $0x10,%edx
    7225:	f7 e2                	mul    %edx
    7227:	0f 80 da f1 ff ff    	jo     6407 <_ZN71_$LT$backtrace..symbolize..SymbolName$u20$as$u20$core..fmt..Display$GT$3fmt17h17077a10756a9dedE+0x197>
    722d:	48 83 c1 01          	add    $0x1,%rcx
    7231:	01 e8                	add    %ebp,%eax
    7233:	73 a9                	jae    71de <_ZN71_$LT$backtrace..symbolize..SymbolName$u20$as$u20$core..fmt..Display$GT$3fmt17h17077a10756a9dedE+0xf6e>
    7235:	e9 cd f1 ff ff       	jmpq   6407 <_ZN71_$LT$backtrace..symbolize..SymbolName$u20$as$u20$core..fmt..Display$GT$3fmt17h17077a10756a9dedE+0x197>
    723a:	3d ff ff 10 00       	cmp    $0x10ffff,%eax
    723f:	0f 87 c2 f1 ff ff    	ja     6407 <_ZN71_$LT$backtrace..symbolize..SymbolName$u20$as$u20$core..fmt..Display$GT$3fmt17h17077a10756a9dedE+0x197>
    7245:	89 c1                	mov    %eax,%ecx
    7247:	81 e1 00 f8 ff ff    	and    $0xfffff800,%ecx
    724d:	81 f9 00 d8 00 00    	cmp    $0xd800,%ecx
    7253:	b9 00 00 11 00       	mov    $0x110000,%ecx
    7258:	0f 44 c1             	cmove  %ecx,%eax
    725b:	3d 00 00 11 00       	cmp    $0x110000,%eax
    7260:	0f 94 c1             	sete   %cl
    7263:	40 08 cf             	or     %cl,%dil
    7266:	0f 85 9b f1 ff ff    	jne    6407 <_ZN71_$LT$backtrace..symbolize..SymbolName$u20$as$u20$core..fmt..Display$GT$3fmt17h17077a10756a9dedE+0x197>
    726c:	4c 89 d3             	mov    %r10,%rbx
    726f:	89 44 24 30          	mov    %eax,0x30(%rsp)
    7273:	89 c1                	mov    %eax,%ecx
    7275:	c1 e9 06             	shr    $0x6,%ecx
    7278:	f7 c1 f0 7f 00 00    	test   $0x7ff0,%ecx
    727e:	75 2d                	jne    72ad <_ZN71_$LT$backtrace..symbolize..SymbolName$u20$as$u20$core..fmt..Display$GT$3fmt17h17077a10756a9dedE+0x103d>
    7280:	83 e1 0f             	and    $0xf,%ecx
    7283:	48 8d 15 d6 59 02 00 	lea    0x259d6(%rip),%rdx        # 2cc60 <_ZN4core7unicode12unicode_data2cc19BITSET_INDEX_CHUNKS17h8a1f39cd536e9344E>
    728a:	0f b6 34 11          	movzbl (%rcx,%rdx,1),%esi
    728e:	48 83 fe 03          	cmp    $0x3,%rsi
    7292:	0f 83 fc 02 00 00    	jae    7594 <_ZN71_$LT$backtrace..symbolize..SymbolName$u20$as$u20$core..fmt..Display$GT$3fmt17h17077a10756a9dedE+0x1324>
    7298:	48 8d 0d c1 7e 02 00 	lea    0x27ec1(%rip),%rcx        # 2f160 <_ZN4core7unicode12unicode_data2cc6BITSET17h5201257bcf8f09faE>
    729f:	48 8b 0c f1          	mov    (%rcx,%rsi,8),%rcx
    72a3:	48 0f a3 c1          	bt     %rax,%rcx
    72a7:	0f 82 5a f1 ff ff    	jb     6407 <_ZN71_$LT$backtrace..symbolize..SymbolName$u20$as$u20$core..fmt..Display$GT$3fmt17h17077a10756a9dedE+0x197>
    72ad:	48 8d 7c 24 30       	lea    0x30(%rsp),%rdi
    72b2:	48 8b 74 24 28       	mov    0x28(%rsp),%rsi
    72b7:	e8 e4 3a 00 00       	callq  ada0 <_ZN43_$LT$char$u20$as$u20$core..fmt..Display$GT$3fmt17h7792e6955f0fb677E>
    72bc:	49 89 dd             	mov    %rbx,%r13
    72bf:	84 c0                	test   %al,%al
    72c1:	66 0f 6f 15 a7 58 02 	movdqa 0x258a7(%rip),%xmm2        # 2cb70 <_fini+0x4c>
    72c8:	00 
    72c9:	66 0f 6f 1d af 58 02 	movdqa 0x258af(%rip),%xmm3        # 2cb80 <_fini+0x5c>
    72d0:	00 
    72d1:	66 0f 6f 25 b7 58 02 	movdqa 0x258b7(%rip),%xmm4        # 2cb90 <_fini+0x6c>
    72d8:	00 
    72d9:	0f 84 51 f6 ff ff    	je     6930 <_ZN71_$LT$backtrace..symbolize..SymbolName$u20$as$u20$core..fmt..Display$GT$3fmt17h17077a10756a9dedE+0x6c0>
    72df:	e9 f8 01 00 00       	jmpq   74dc <_ZN71_$LT$backtrace..symbolize..SymbolName$u20$as$u20$core..fmt..Display$GT$3fmt17h17077a10756a9dedE+0x126c>
    72e4:	66 2e 0f 1f 84 00 00 	nopw   %cs:0x0(%rax,%rax,1)
    72eb:	00 00 00 
    72ee:	66 90                	xchg   %ax,%ax
    72f0:	4f 8d 04 2c          	lea    (%r12,%r13,1),%r8
    72f4:	31 c0                	xor    %eax,%eax
    72f6:	4c 89 e9             	mov    %r13,%rcx
    72f9:	0f 1f 80 00 00 00 00 	nopl   0x0(%rax)
    7300:	49 39 c8             	cmp    %rcx,%r8
    7303:	0f 84 fe f0 ff ff    	je     6407 <_ZN71_$LT$backtrace..symbolize..SymbolName$u20$as$u20$core..fmt..Display$GT$3fmt17h17077a10756a9dedE+0x197>
    7309:	48 89 c3             	mov    %rax,%rbx
    730c:	48 8d 51 01          	lea    0x1(%rcx),%rdx
    7310:	0f b6 39             	movzbl (%rcx),%edi
    7313:	40 84 ff             	test   %dil,%dil
    7316:	78 18                	js     7330 <_ZN71_$LT$backtrace..symbolize..SymbolName$u20$as$u20$core..fmt..Display$GT$3fmt17h17077a10756a9dedE+0x10c0>
    7318:	89 fe                	mov    %edi,%esi
    731a:	83 fe 24             	cmp    $0x24,%esi
    731d:	0f 85 c2 00 00 00    	jne    73e5 <_ZN71_$LT$backtrace..symbolize..SymbolName$u20$as$u20$core..fmt..Display$GT$3fmt17h17077a10756a9dedE+0x1175>
    7323:	e9 d2 00 00 00       	jmpq   73fa <_ZN71_$LT$backtrace..symbolize..SymbolName$u20$as$u20$core..fmt..Display$GT$3fmt17h17077a10756a9dedE+0x118a>
    7328:	0f 1f 84 00 00 00 00 	nopl   0x0(%rax,%rax,1)
    732f:	00 
    7330:	4c 39 c2             	cmp    %r8,%rdx
    7333:	74 4d                	je     7382 <_ZN71_$LT$backtrace..symbolize..SymbolName$u20$as$u20$core..fmt..Display$GT$3fmt17h17077a10756a9dedE+0x1112>
    7335:	48 8d 51 02          	lea    0x2(%rcx),%rdx
    7339:	0f b6 71 01          	movzbl 0x1(%rcx),%esi
    733d:	83 e6 3f             	and    $0x3f,%esi
    7340:	48 89 d0             	mov    %rdx,%rax
    7343:	89 fd                	mov    %edi,%ebp
    7345:	83 e5 1f             	and    $0x1f,%ebp
    7348:	40 80 ff df          	cmp    $0xdf,%dil
    734c:	76 44                	jbe    7392 <_ZN71_$LT$backtrace..symbolize..SymbolName$u20$as$u20$core..fmt..Display$GT$3fmt17h17077a10756a9dedE+0x1122>
    734e:	4c 39 c0             	cmp    %r8,%rax
    7351:	74 4b                	je     739e <_ZN71_$LT$backtrace..symbolize..SymbolName$u20$as$u20$core..fmt..Display$GT$3fmt17h17077a10756a9dedE+0x112e>
    7353:	44 0f b6 08          	movzbl (%rax),%r9d
    7357:	48 83 c0 01          	add    $0x1,%rax
    735b:	41 83 e1 3f          	and    $0x3f,%r9d
    735f:	48 89 c2             	mov    %rax,%rdx
    7362:	c1 e6 06             	shl    $0x6,%esi
    7365:	44 09 ce             	or     %r9d,%esi
    7368:	40 80 ff f0          	cmp    $0xf0,%dil
    736c:	72 42                	jb     73b0 <_ZN71_$LT$backtrace..symbolize..SymbolName$u20$as$u20$core..fmt..Display$GT$3fmt17h17077a10756a9dedE+0x1140>
    736e:	4c 39 c0             	cmp    %r8,%rax
    7371:	74 49                	je     73bc <_ZN71_$LT$backtrace..symbolize..SymbolName$u20$as$u20$core..fmt..Display$GT$3fmt17h17077a10756a9dedE+0x114c>
    7373:	0f b6 38             	movzbl (%rax),%edi
    7376:	48 83 c0 01          	add    $0x1,%rax
    737a:	83 e7 3f             	and    $0x3f,%edi
    737d:	48 89 c2             	mov    %rax,%rdx
    7380:	eb 3c                	jmp    73be <_ZN71_$LT$backtrace..symbolize..SymbolName$u20$as$u20$core..fmt..Display$GT$3fmt17h17077a10756a9dedE+0x114e>
